; Listing generated by Microsoft (R) Optimizing Compiler Version 19.34.31942.0 

	TITLE	C:\Users\Marian\Desktop\Aeldra\ProjectA-main\Binary\Client\PRTerrainLib\Distribute_Aeldra\TextureSet.obj
	.686P
	.XMM
	include listing.inc
	.model	flat

INCLUDELIB LIBCMT
INCLUDELIB OLDNAMES

CONST	SEGMENT
?_Fake_alloc@std@@3U_Fake_allocator@1@B	ORG $+1		; std::_Fake_alloc
?piecewise_construct@std@@3Upiecewise_construct_t@1@B	ORG $+1 ; std::piecewise_construct
CONST	ENDS
PUBLIC	___local_stdio_printf_options
PUBLIC	_fprintf
PUBLIC	__snprintf
PUBLIC	??0exception@std@@QAE@ABV01@@Z			; std::exception::exception
PUBLIC	??1exception@std@@UAE@XZ			; std::exception::~exception
PUBLIC	?what@exception@std@@UBEPBDXZ			; std::exception::what
PUBLIC	??_Gexception@std@@UAEPAXI@Z			; std::exception::`scalar deleting destructor'
PUBLIC	??0bad_alloc@std@@QAE@ABV01@@Z			; std::bad_alloc::bad_alloc
PUBLIC	??_Gbad_alloc@std@@UAEPAXI@Z			; std::bad_alloc::`scalar deleting destructor'
PUBLIC	??0bad_array_new_length@std@@QAE@XZ		; std::bad_array_new_length::bad_array_new_length
PUBLIC	??1bad_array_new_length@std@@UAE@XZ		; std::bad_array_new_length::~bad_array_new_length
PUBLIC	??0bad_array_new_length@std@@QAE@ABV01@@Z	; std::bad_array_new_length::bad_array_new_length
PUBLIC	??_Gbad_array_new_length@std@@UAEPAXI@Z		; std::bad_array_new_length::`scalar deleting destructor'
PUBLIC	?_Throw_bad_array_new_length@std@@YAXXZ		; std::_Throw_bad_array_new_length
PUBLIC	?_Xlen_string@std@@YAXXZ			; std::_Xlen_string
PUBLIC	??0?$basic_string@DU?$char_traits@D@std@@V?$allocator@D@2@@std@@QAE@ABV01@@Z ; std::basic_string<char,std::char_traits<char>,std::allocator<char> >::basic_string<char,std::char_traits<char>,std::allocator<char> >
PUBLIC	??1?$basic_string@DU?$char_traits@D@std@@V?$allocator@D@2@@std@@QAE@XZ ; std::basic_string<char,std::char_traits<char>,std::allocator<char> >::~basic_string<char,std::char_traits<char>,std::allocator<char> >
PUBLIC	?assign@?$basic_string@DU?$char_traits@D@std@@V?$allocator@D@2@@std@@QAEAAV12@QBDI@Z ; std::basic_string<char,std::char_traits<char>,std::allocator<char> >::assign
PUBLIC	?_Throw_tree_length_error@std@@YAXXZ		; std::_Throw_tree_length_error
PUBLIC	??1?$vector@V?$basic_string@DU?$char_traits@D@std@@V?$allocator@D@2@@std@@V?$allocator@V?$basic_string@DU?$char_traits@D@std@@V?$allocator@D@2@@std@@@2@@std@@QAE@XZ ; std::vector<std::basic_string<char,std::char_traits<char>,std::allocator<char> >,std::allocator<std::basic_string<char,std::char_traits<char>,std::allocator<char> > > >::~vector<std::basic_string<char,std::char_traits<char>,std::allocator<char> >,std::allocator<std::basic_string<char,std::char_traits<char>,std::allocator<char> > > >
PUBLIC	??_GCGraphicImageInstance@@UAEPAXI@Z		; CGraphicImageInstance::`scalar deleting destructor'
PUBLIC	??0STerrainTexture@@QAE@XZ			; STerrainTexture::STerrainTexture
PUBLIC	??1STerrainTexture@@QAE@XZ			; STerrainTexture::~STerrainTexture
PUBLIC	??0STerrainTexture@@QAE@ABU0@@Z			; STerrainTexture::STerrainTexture
PUBLIC	??0CTextureSet@@QAE@XZ				; CTextureSet::CTextureSet
PUBLIC	??1CTextureSet@@UAE@XZ				; CTextureSet::~CTextureSet
PUBLIC	?Initialize@CTextureSet@@QAEXXZ			; CTextureSet::Initialize
PUBLIC	?Clear@CTextureSet@@QAEXXZ			; CTextureSet::Clear
PUBLIC	?Create@CTextureSet@@QAEXXZ			; CTextureSet::Create
PUBLIC	?Load@CTextureSet@@QAE_NPBDM@Z			; CTextureSet::Load
PUBLIC	?Save@CTextureSet@@QAE_NPBD@Z			; CTextureSet::Save
PUBLIC	?GetTextureCount@CTextureSet@@QAEKXZ		; CTextureSet::GetTextureCount
PUBLIC	?GetTexture@CTextureSet@@QAEAAUSTerrainTexture@@K@Z ; CTextureSet::GetTexture
PUBLIC	?RemoveTexture@CTextureSet@@QAE_NK@Z		; CTextureSet::RemoveTexture
PUBLIC	?SetTexture@CTextureSet@@QAE_NKPBDMMMM_NGGM@Z	; CTextureSet::SetTexture
PUBLIC	?Reload@CTextureSet@@QAEXM@Z			; CTextureSet::Reload
PUBLIC	?AddTexture@CTextureSet@@QAE_NPBDMMMM_NGGM@Z	; CTextureSet::AddTexture
PUBLIC	?AddEmptyTexture@CTextureSet@@IAEXXZ		; CTextureSet::AddEmptyTexture
PUBLIC	?deallocate@?$allocator@USTerrainTexture@@@std@@QAEXQAUSTerrainTexture@@I@Z ; std::allocator<STerrainTexture>::deallocate
PUBLIC	??1?$vector@USTerrainTexture@@V?$allocator@USTerrainTexture@@@std@@@std@@QAE@XZ ; std::vector<STerrainTexture,std::allocator<STerrainTexture> >::~vector<STerrainTexture,std::allocator<STerrainTexture> >
PUBLIC	?_Reallocate_exactly@?$vector@USTerrainTexture@@V?$allocator@USTerrainTexture@@@std@@@std@@AAEXI@Z ; std::vector<STerrainTexture,std::allocator<STerrainTexture> >::_Reallocate_exactly
PUBLIC	?_Change_array@?$vector@USTerrainTexture@@V?$allocator@USTerrainTexture@@@std@@@std@@AAEXQAUSTerrainTexture@@II@Z ; std::vector<STerrainTexture,std::allocator<STerrainTexture> >::_Change_array
PUBLIC	?_Xlength@?$vector@USTerrainTexture@@V?$allocator@USTerrainTexture@@@std@@@std@@CAXXZ ; std::vector<STerrainTexture,std::allocator<STerrainTexture> >::_Xlength
PUBLIC	??_GCTextureSet@@UAEPAXI@Z			; CTextureSet::`scalar deleting destructor'
PUBLIC	?_Insert_node@?$_Tree_val@U?$_Tree_simple_types@U?$pair@$$CBV?$basic_string@DU?$char_traits@D@std@@V?$allocator@D@2@@std@@V?$vector@V?$basic_string@DU?$char_traits@D@std@@V?$allocator@D@2@@std@@V?$allocator@V?$basic_string@DU?$char_traits@D@std@@V?$allocator@D@2@@std@@@2@@2@@std@@@std@@@std@@QAEPAU?$_Tree_node@U?$pair@$$CBV?$basic_string@DU?$char_traits@D@std@@V?$allocator@D@2@@std@@V?$vector@V?$basic_string@DU?$char_traits@D@std@@V?$allocator@D@2@@std@@V?$allocator@V?$basic_string@DU?$char_traits@D@std@@V?$allocator@D@2@@std@@@2@@2@@std@@PAX@2@U?$_Tree_id@PAU?$_Tree_node@U?$pair@$$CBV?$basic_string@DU?$char_traits@D@std@@V?$allocator@D@2@@std@@V?$vector@V?$basic_string@DU?$char_traits@D@std@@V?$allocator@D@2@@std@@V?$allocator@V?$basic_string@DU?$char_traits@D@std@@V?$allocator@D@2@@std@@@2@@2@@std@@PAX@std@@@2@QAU32@@Z ; std::_Tree_val<std::_Tree_simple_types<std::pair<std::basic_string<char,std::char_traits<char>,std::allocator<char> > const ,std::vector<std::basic_string<char,std::char_traits<char>,std::allocator<char> >,std::allocator<std::basic_string<char,std::char_traits<char>,std::allocator<char> > > > > > >::_Insert_node
PUBLIC	??1?$map@V?$basic_string@DU?$char_traits@D@std@@V?$allocator@D@2@@std@@V?$vector@V?$basic_string@DU?$char_traits@D@std@@V?$allocator@D@2@@std@@V?$allocator@V?$basic_string@DU?$char_traits@D@std@@V?$allocator@D@2@@std@@@2@@2@U?$less@V?$basic_string@DU?$char_traits@D@std@@V?$allocator@D@2@@std@@@2@V?$allocator@U?$pair@$$CBV?$basic_string@DU?$char_traits@D@std@@V?$allocator@D@2@@std@@V?$vector@V?$basic_string@DU?$char_traits@D@std@@V?$allocator@D@2@@std@@V?$allocator@V?$basic_string@DU?$char_traits@D@std@@V?$allocator@D@2@@std@@@2@@2@@std@@@2@@std@@QAE@XZ ; std::map<std::basic_string<char,std::char_traits<char>,std::allocator<char> >,std::vector<std::basic_string<char,std::char_traits<char>,std::allocator<char> >,std::allocator<std::basic_string<char,std::char_traits<char>,std::allocator<char> > > >,std::less<std::basic_string<char,std::char_traits<char>,std::allocator<char> > >,std::allocator<std::pair<std::basic_string<char,std::char_traits<char>,std::allocator<char> > const ,std::vector<std::basic_string<char,std::char_traits<char>,std::allocator<char> >,std::allocator<std::basic_string<char,std::char_traits<char>,std::allocator<char> > > > > > >::~map<std::basic_string<char,std::char_traits<char>,std::allocator<char> >,std::vector<std::basic_string<char,std::char_traits<char>,std::allocator<char> >,std::allocator<std::basic_string<char,std::char_traits<char>,std::allocator<char> > > >,std::less<std::basic_string<char,std::char_traits<char>,std::allocator<char> > >,std::allocator<std::pair<std::basic_string<char,std::char_traits<char>,std::allocator<char> > const ,std::vector<std::basic_string<char,std::char_traits<char>,std::allocator<char> >,std::allocator<std::basic_string<char,std::char_traits<char>,std::allocator<char> > > > > > >
PUBLIC	??$_Destroy_range@V?$allocator@USTerrainTexture@@@std@@@std@@YAXPAUSTerrainTexture@@QAU1@AAV?$allocator@USTerrainTexture@@@0@@Z ; std::_Destroy_range<std::allocator<STerrainTexture> >
PUBLIC	??$destroy@USTerrainTexture@@@?$_Default_allocator_traits@V?$allocator@USTerrainTexture@@@std@@@std@@SAXAAV?$allocator@USTerrainTexture@@@1@QAUSTerrainTexture@@@Z ; std::_Default_allocator_traits<std::allocator<STerrainTexture> >::destroy<STerrainTexture>
PUBLIC	??$_Traits_compare@U?$char_traits@D@std@@@std@@YAHQBDI0I@Z ; std::_Traits_compare<std::char_traits<char> >
PUBLIC	??$_Construct@$00PBD@?$basic_string@DU?$char_traits@D@std@@V?$allocator@D@2@@std@@AAEXQBDI@Z ; std::basic_string<char,std::char_traits<char>,std::allocator<char> >::_Construct<1,char const *>
PUBLIC	??$_Uninitialized_copy@PAUSTerrainTexture@@PAU1@V?$allocator@USTerrainTexture@@@std@@@std@@YAPAUSTerrainTexture@@PAU1@00AAV?$allocator@USTerrainTexture@@@0@@Z ; std::_Uninitialized_copy<STerrainTexture *,STerrainTexture *,std::allocator<STerrainTexture> >
PUBLIC	??$_Find_lower_bound@V?$basic_string@DU?$char_traits@D@std@@V?$allocator@D@2@@std@@@?$_Tree@V?$_Tmap_traits@V?$basic_string@DU?$char_traits@D@std@@V?$allocator@D@2@@std@@V?$vector@V?$basic_string@DU?$char_traits@D@std@@V?$allocator@D@2@@std@@V?$allocator@V?$basic_string@DU?$char_traits@D@std@@V?$allocator@D@2@@std@@@2@@2@U?$less@V?$basic_string@DU?$char_traits@D@std@@V?$allocator@D@2@@std@@@2@V?$allocator@U?$pair@$$CBV?$basic_string@DU?$char_traits@D@std@@V?$allocator@D@2@@std@@V?$vector@V?$basic_string@DU?$char_traits@D@std@@V?$allocator@D@2@@std@@V?$allocator@V?$basic_string@DU?$char_traits@D@std@@V?$allocator@D@2@@std@@@2@@2@@std@@@2@$0A@@std@@@std@@IBE?AU?$_Tree_find_result@PAU?$_Tree_node@U?$pair@$$CBV?$basic_string@DU?$char_traits@D@std@@V?$allocator@D@2@@std@@V?$vector@V?$basic_string@DU?$char_traits@D@std@@V?$allocator@D@2@@std@@V?$allocator@V?$basic_string@DU?$char_traits@D@std@@V?$allocator@D@2@@std@@@2@@2@@std@@PAX@std@@@1@ABV?$basic_string@DU?$char_traits@D@std@@V?$allocator@D@2@@1@@Z ; std::_Tree<std::_Tmap_traits<std::basic_string<char,std::char_traits<char>,std::allocator<char> >,std::vector<std::basic_string<char,std::char_traits<char>,std::allocator<char> >,std::allocator<std::basic_string<char,std::char_traits<char>,std::allocator<char> > > >,std::less<std::basic_string<char,std::char_traits<char>,std::allocator<char> > >,std::allocator<std::pair<std::basic_string<char,std::char_traits<char>,std::allocator<char> > const ,std::vector<std::basic_string<char,std::char_traits<char>,std::allocator<char> >,std::allocator<std::basic_string<char,std::char_traits<char>,std::allocator<char> > > > > >,0> >::_Find_lower_bound<std::basic_string<char,std::char_traits<char>,std::allocator<char> > >
PUBLIC	??1?$_Alloc_construct_ptr@V?$allocator@U?$_Tree_node@U?$pair@$$CBV?$basic_string@DU?$char_traits@D@std@@V?$allocator@D@2@@std@@V?$vector@V?$basic_string@DU?$char_traits@D@std@@V?$allocator@D@2@@std@@V?$allocator@V?$basic_string@DU?$char_traits@D@std@@V?$allocator@D@2@@std@@@2@@2@@std@@PAX@std@@@std@@@std@@QAE@XZ ; std::_Alloc_construct_ptr<std::allocator<std::_Tree_node<std::pair<std::basic_string<char,std::char_traits<char>,std::allocator<char> > const ,std::vector<std::basic_string<char,std::char_traits<char>,std::allocator<char> >,std::allocator<std::basic_string<char,std::char_traits<char>,std::allocator<char> > > > >,void *> > >::~_Alloc_construct_ptr<std::allocator<std::_Tree_node<std::pair<std::basic_string<char,std::char_traits<char>,std::allocator<char> > const ,std::vector<std::basic_string<char,std::char_traits<char>,std::allocator<char> >,std::allocator<std::basic_string<char,std::char_traits<char>,std::allocator<char> > > > >,void *> > >
PUBLIC	??$_Erase_tree@V?$allocator@U?$_Tree_node@U?$pair@$$CBV?$basic_string@DU?$char_traits@D@std@@V?$allocator@D@2@@std@@V?$vector@V?$basic_string@DU?$char_traits@D@std@@V?$allocator@D@2@@std@@V?$allocator@V?$basic_string@DU?$char_traits@D@std@@V?$allocator@D@2@@std@@@2@@2@@std@@PAX@std@@@std@@@?$_Tree_val@U?$_Tree_simple_types@U?$pair@$$CBV?$basic_string@DU?$char_traits@D@std@@V?$allocator@D@2@@std@@V?$vector@V?$basic_string@DU?$char_traits@D@std@@V?$allocator@D@2@@std@@V?$allocator@V?$basic_string@DU?$char_traits@D@std@@V?$allocator@D@2@@std@@@2@@2@@std@@@std@@@std@@QAEXAAV?$allocator@U?$_Tree_node@U?$pair@$$CBV?$basic_string@DU?$char_traits@D@std@@V?$allocator@D@2@@std@@V?$vector@V?$basic_string@DU?$char_traits@D@std@@V?$allocator@D@2@@std@@V?$allocator@V?$basic_string@DU?$char_traits@D@std@@V?$allocator@D@2@@std@@@2@@2@@std@@PAX@std@@@1@PAU?$_Tree_node@U?$pair@$$CBV?$basic_string@DU?$char_traits@D@std@@V?$allocator@D@2@@std@@V?$vector@V?$basic_string@DU?$char_traits@D@std@@V?$allocator@D@2@@std@@V?$allocator@V?$basic_string@DU?$char_traits@D@std@@V?$allocator@D@2@@std@@@2@@2@@std@@PAX@1@@Z ; std::_Tree_val<std::_Tree_simple_types<std::pair<std::basic_string<char,std::char_traits<char>,std::allocator<char> > const ,std::vector<std::basic_string<char,std::char_traits<char>,std::allocator<char> >,std::allocator<std::basic_string<char,std::char_traits<char>,std::allocator<char> > > > > > >::_Erase_tree<std::allocator<std::_Tree_node<std::pair<std::basic_string<char,std::char_traits<char>,std::allocator<char> > const ,std::vector<std::basic_string<char,std::char_traits<char>,std::allocator<char> >,std::allocator<std::basic_string<char,std::char_traits<char>,std::allocator<char> > > > >,void *> > >
PUBLIC	??$_Resize_reallocate@U_Value_init_tag@std@@@?$vector@USTerrainTexture@@V?$allocator@USTerrainTexture@@@std@@@std@@AAEXIABU_Value_init_tag@1@@Z ; std::vector<STerrainTexture,std::allocator<STerrainTexture> >::_Resize_reallocate<std::_Value_init_tag>
PUBLIC	??$_Uninitialized_value_construct_n@V?$allocator@USTerrainTexture@@@std@@@std@@YAPAUSTerrainTexture@@PAU1@IAAV?$allocator@USTerrainTexture@@@0@@Z ; std::_Uninitialized_value_construct_n<std::allocator<STerrainTexture> >
PUBLIC	??$_Emplace_reallocate@ABUSTerrainTexture@@@?$vector@USTerrainTexture@@V?$allocator@USTerrainTexture@@@std@@@std@@AAEPAUSTerrainTexture@@QAU2@ABU2@@Z ; std::vector<STerrainTexture,std::allocator<STerrainTexture> >::_Emplace_reallocate<STerrainTexture const &>
PUBLIC	??1?$_Uninitialized_backout_al@V?$allocator@USTerrainTexture@@@std@@@std@@QAE@XZ ; std::_Uninitialized_backout_al<std::allocator<STerrainTexture> >::~_Uninitialized_backout_al<std::allocator<STerrainTexture> >
PUBLIC	??$_Allocate_manually_vector_aligned@U_Default_allocate_traits@std@@@std@@YAPAXI@Z ; std::_Allocate_manually_vector_aligned<std::_Default_allocate_traits>
PUBLIC	??$destroy@U?$pair@$$CBV?$basic_string@DU?$char_traits@D@std@@V?$allocator@D@2@@std@@V?$vector@V?$basic_string@DU?$char_traits@D@std@@V?$allocator@D@2@@std@@V?$allocator@V?$basic_string@DU?$char_traits@D@std@@V?$allocator@D@2@@std@@@2@@2@@std@@@?$_Default_allocator_traits@V?$allocator@U?$_Tree_node@U?$pair@$$CBV?$basic_string@DU?$char_traits@D@std@@V?$allocator@D@2@@std@@V?$vector@V?$basic_string@DU?$char_traits@D@std@@V?$allocator@D@2@@std@@V?$allocator@V?$basic_string@DU?$char_traits@D@std@@V?$allocator@D@2@@std@@@2@@2@@std@@PAX@std@@@std@@@std@@SAXAAV?$allocator@U?$_Tree_node@U?$pair@$$CBV?$basic_string@DU?$char_traits@D@std@@V?$allocator@D@2@@std@@V?$vector@V?$basic_string@DU?$char_traits@D@std@@V?$allocator@D@2@@std@@V?$allocator@V?$basic_string@DU?$char_traits@D@std@@V?$allocator@D@2@@std@@@2@@2@@std@@PAX@std@@@1@QAU?$pair@$$CBV?$basic_string@DU?$char_traits@D@std@@V?$allocator@D@2@@std@@V?$vector@V?$basic_string@DU?$char_traits@D@std@@V?$allocator@D@2@@std@@V?$allocator@V?$basic_string@DU?$char_traits@D@std@@V?$allocator@D@2@@std@@@2@@2@@1@@Z ; std::_Default_allocator_traits<std::allocator<std::_Tree_node<std::pair<std::basic_string<char,std::char_traits<char>,std::allocator<char> > const ,std::vector<std::basic_string<char,std::char_traits<char>,std::allocator<char> >,std::allocator<std::basic_string<char,std::char_traits<char>,std::allocator<char> > > > >,void *> > >::destroy<std::pair<std::basic_string<char,std::char_traits<char>,std::allocator<char> > const ,std::vector<std::basic_string<char,std::char_traits<char>,std::allocator<char> >,std::allocator<std::basic_string<char,std::char_traits<char>,std::allocator<char> > > > > >
PUBLIC	??$?MDU?$char_traits@D@std@@V?$allocator@D@1@@std@@YA_NABV?$basic_string@DU?$char_traits@D@std@@V?$allocator@D@2@@0@0@Z ; std::operator<<char,std::char_traits<char>,std::allocator<char> >
PUBLIC	??$_Uninitialized_move@PAUSTerrainTexture@@V?$allocator@USTerrainTexture@@@std@@@std@@YAPAUSTerrainTexture@@QAU1@0PAU1@AAV?$allocator@USTerrainTexture@@@0@@Z ; std::_Uninitialized_move<STerrainTexture *,std::allocator<STerrainTexture> >
PUBLIC	?_OptionsStorage@?1??__local_stdio_printf_options@@9@4_KA ; `__local_stdio_printf_options'::`2'::_OptionsStorage
PUBLIC	??_7exception@std@@6B@				; std::exception::`vftable'
PUBLIC	??_C@_0BC@EOODALEL@Unknown?5exception@		; `string'
PUBLIC	??_7bad_alloc@std@@6B@				; std::bad_alloc::`vftable'
PUBLIC	??_7bad_array_new_length@std@@6B@		; std::bad_array_new_length::`vftable'
PUBLIC	??_C@_0BF@KINCDENJ@bad?5array?5new?5length@	; `string'
PUBLIC	__TI3?AVbad_array_new_length@std@@
PUBLIC	__CTA3?AVbad_array_new_length@std@@
PUBLIC	??_R0?AVbad_array_new_length@std@@@8		; std::bad_array_new_length `RTTI Type Descriptor'
PUBLIC	__CT??_R0?AVbad_array_new_length@std@@@8??0bad_array_new_length@std@@QAE@ABV01@@Z12
PUBLIC	??_R0?AVbad_alloc@std@@@8			; std::bad_alloc `RTTI Type Descriptor'
PUBLIC	__CT??_R0?AVbad_alloc@std@@@8??0bad_alloc@std@@QAE@ABV01@@Z12
PUBLIC	??_R0?AVexception@std@@@8			; std::exception `RTTI Type Descriptor'
PUBLIC	__CT??_R0?AVexception@std@@@8??0exception@std@@QAE@ABV01@@Z12
PUBLIC	??_C@_0BA@JFNIOLAK@string?5too?5long@		; `string'
PUBLIC	??_C@_0BB@GCADKGJO@map?1set?5too?5long@		; `string'
PUBLIC	?ms_singleton@?$CSingleton@VCResourceManager@@@@0PAVCResourceManager@@A ; CSingleton<CResourceManager>::ms_singleton
PUBLIC	??_7CGraphicImageInstance@@6B@			; CGraphicImageInstance::`vftable'
PUBLIC	??_7CTextureSet@@6B@				; CTextureSet::`vftable'
PUBLIC	??_C@_0BP@PGALBFBK@d?3?1ymir?5work?1special?1error?4tga@ ; `string'
PUBLIC	??_C@_0CC@NFEEIIKK@TextureSet?3?3Load?5?3?5cannot?5load?5@ ; `string'
PUBLIC	??_C@_0L@FLIBEPMB@textureset@			; `string'
PUBLIC	??_C@_0DL@HIELGKBC@TextureSet?3?3Load?5?3?5syntax?5error@ ; `string'
PUBLIC	??_C@_0N@MMECMGAI@texturecount@			; `string'
PUBLIC	??_C@_0DN@FCLAEMJC@TextureSet?3?3Load?5?3?5syntax?5error@ ; `string'
PUBLIC	??_C@_0M@NDPMIDHE@texture?$CF03d@		; `string'
PUBLIC	??_C@_0DF@CFOIFDDM@CTextureSet?3?3Load?5?3?5SetTexture?5@ ; `string'
PUBLIC	??_C@_0FF@IFFABLMH@CTextureSet?3?3SetTexture?5?3?5Index@ ; `string'
PUBLIC	??_C@_0DF@JOIEGDLH@CTerrainImpl?3?3GenerateTexture?5?3@ ; `string'
PUBLIC	??_C@_0BH@JDODIAKK@?C?V?$LE?k?5?E?X?$LN?$LK?C?$LD?5?$LA?$LD?$LM?v?5255?$LA?$LD@ ; `string'
PUBLIC	??_C@_0CF@MOODBFAK@?E?X?$LN?$LK?C?$LD?$LI?$KG?5?$LE?u?5?$MA?L?$LL?s?5?C?$NP?$LA?$KB?G?R?5?$LM?v?5?$LO?x?$LN?$MA@ ; `string'
PUBLIC	??_C@_04GOFBAOHB@?A?$NP?$LK?$LJ@		; `string'
PUBLIC	??_C@_0CG@FLKLAMDA@?$LF?$LP?$MA?O?G?Q?5?$MA?L?$LI?$KH?$MA?G?5?E?X?$LN?$LK?C?$LD?$LA?$KB?5?$MA?L?$LJ?L?5?$MA?V?$LN@ ; `string'
PUBLIC	??_C@_0DL@DKIJJDLL@CTerrainImpl?3?3GenerateTexture?5?3@ ; `string'
PUBLIC	??_C@_01NOFIACDB@w@				; `string'
PUBLIC	??_C@_0M@MPCHGPBP@TextureSet?6@			; `string'
PUBLIC	??_C@_01EEMJAFIK@?6@				; `string'
PUBLIC	??_C@_0BC@GGJBGKJP@TextureCount?5?$CFld?6@	; `string'
PUBLIC	??_C@_0BD@BJELLKNB@Start?5Texture?$CF03d?6@	; `string'
PUBLIC	??_C@_09BMPLDMAP@?5?5?5?5?$CC?$CFs?$CC?6@	; `string'
PUBLIC	??_C@_07ELCCFBHK@?5?5?5?5?$CFf?6@		; `string'
PUBLIC	??_C@_07EIKGIFBE@?5?5?5?5?$CFd?6@		; `string'
PUBLIC	??_C@_08PFAGAKKH@?5?5?5?5?$CFhu?6@		; `string'
PUBLIC	??_C@_0BB@GNLMPHOK@End?5Texture?$CF03d?6@	; `string'
PUBLIC	??_C@_0BA@FOIKENOD@vector?5too?5long@		; `string'
PUBLIC	??_R4exception@std@@6B@				; std::exception::`RTTI Complete Object Locator'
PUBLIC	??_R3exception@std@@8				; std::exception::`RTTI Class Hierarchy Descriptor'
PUBLIC	??_R2exception@std@@8				; std::exception::`RTTI Base Class Array'
PUBLIC	??_R1A@?0A@EA@exception@std@@8			; std::exception::`RTTI Base Class Descriptor at (0,-1,0,64)'
PUBLIC	??_R4bad_alloc@std@@6B@				; std::bad_alloc::`RTTI Complete Object Locator'
PUBLIC	??_R3bad_alloc@std@@8				; std::bad_alloc::`RTTI Class Hierarchy Descriptor'
PUBLIC	??_R2bad_alloc@std@@8				; std::bad_alloc::`RTTI Base Class Array'
PUBLIC	??_R1A@?0A@EA@bad_alloc@std@@8			; std::bad_alloc::`RTTI Base Class Descriptor at (0,-1,0,64)'
PUBLIC	??_R4bad_array_new_length@std@@6B@		; std::bad_array_new_length::`RTTI Complete Object Locator'
PUBLIC	??_R3bad_array_new_length@std@@8		; std::bad_array_new_length::`RTTI Class Hierarchy Descriptor'
PUBLIC	??_R2bad_array_new_length@std@@8		; std::bad_array_new_length::`RTTI Base Class Array'
PUBLIC	??_R1A@?0A@EA@bad_array_new_length@std@@8	; std::bad_array_new_length::`RTTI Base Class Descriptor at (0,-1,0,64)'
PUBLIC	??_R4CGraphicImageInstance@@6B@			; CGraphicImageInstance::`RTTI Complete Object Locator'
PUBLIC	??_R0?AVCGraphicImageInstance@@@8		; CGraphicImageInstance `RTTI Type Descriptor'
PUBLIC	??_R3CGraphicImageInstance@@8			; CGraphicImageInstance::`RTTI Class Hierarchy Descriptor'
PUBLIC	??_R2CGraphicImageInstance@@8			; CGraphicImageInstance::`RTTI Base Class Array'
PUBLIC	??_R1A@?0A@EA@CGraphicImageInstance@@8		; CGraphicImageInstance::`RTTI Base Class Descriptor at (0,-1,0,64)'
PUBLIC	??_R4CTextureSet@@6B@				; CTextureSet::`RTTI Complete Object Locator'
PUBLIC	??_R0?AVCTextureSet@@@8				; CTextureSet `RTTI Type Descriptor'
PUBLIC	??_R3CTextureSet@@8				; CTextureSet::`RTTI Class Hierarchy Descriptor'
PUBLIC	??_R2CTextureSet@@8				; CTextureSet::`RTTI Base Class Array'
PUBLIC	??_R1A@?0A@EA@CTextureSet@@8			; CTextureSet::`RTTI Base Class Descriptor at (0,-1,0,64)'
PUBLIC	__xmm@80000000800000008000000080000000
EXTRN	??2@YAPAXI@Z:PROC				; operator new
EXTRN	??3@YAXPAXI@Z:PROC				; operator delete
EXTRN	__invalid_parameter_noinfo_noreturn:PROC
EXTRN	_atof:PROC
EXTRN	_atol:PROC
EXTRN	__atoi64:PROC
EXTRN	_D3DXMatrixScaling@16:PROC
EXTRN	_fclose:PROC
EXTRN	_fopen:PROC
EXTRN	___stdio_common_vfprintf:PROC
EXTRN	___stdio_common_vsprintf:PROC
EXTRN	___std_exception_copy:PROC
EXTRN	___std_exception_destroy:PROC
EXTRN	??_Eexception@std@@UAEPAXI@Z:PROC		; std::exception::`vector deleting destructor'
EXTRN	??_Ebad_alloc@std@@UAEPAXI@Z:PROC		; std::bad_alloc::`vector deleting destructor'
EXTRN	??_Ebad_array_new_length@std@@UAEPAXI@Z:PROC	; std::bad_array_new_length::`vector deleting destructor'
EXTRN	?_Xlength_error@std@@YAXPBD@Z:PROC		; std::_Xlength_error
EXTRN	?TraceError@@YAXPBDZZ:PROC			; TraceError
EXTRN	?LogBox@@YAXPBD0PAUHWND__@@@Z:PROC		; LogBox
EXTRN	?LoadMultipleTextData@@YA_NPBDAAV?$map@V?$basic_string@DU?$char_traits@D@std@@V?$allocator@D@2@@std@@V?$vector@V?$basic_string@DU?$char_traits@D@std@@V?$allocator@D@2@@std@@V?$allocator@V?$basic_string@DU?$char_traits@D@std@@V?$allocator@D@2@@std@@@2@@2@U?$less@V?$basic_string@DU?$char_traits@D@std@@V?$allocator@D@2@@std@@@2@V?$allocator@U?$pair@$$CBV?$basic_string@DU?$char_traits@D@std@@V?$allocator@D@2@@std@@V?$vector@V?$basic_string@DU?$char_traits@D@std@@V?$allocator@D@2@@std@@V?$allocator@V?$basic_string@DU?$char_traits@D@std@@V?$allocator@D@2@@std@@@2@@2@@std@@@2@@std@@@Z:PROC ; LoadMultipleTextData
EXTRN	?AddReference@CReferenceObject@@QAEXXZ:PROC	; CReferenceObject::AddReference
EXTRN	?Release@CReferenceObject@@QAEXXZ:PROC		; CReferenceObject::Release
EXTRN	?IsType@CResource@@QAE_NK@Z:PROC		; CResource::IsType
EXTRN	?GetResourcePointer@CResourceManager@@QAEPAVCResource@@PBD@Z:PROC ; CResourceManager::GetResourcePointer
EXTRN	?GetD3DTexture@CGraphicTexture@@QBEPAUIDirect3DTexture8@@XZ:PROC ; CGraphicTexture::GetD3DTexture
EXTRN	?Type@CGraphicImage@@SAKXZ:PROC			; CGraphicImage::Type
EXTRN	??0CGraphicImageInstance@@QAE@XZ:PROC		; CGraphicImageInstance::CGraphicImageInstance
EXTRN	??1CGraphicImageInstance@@UAE@XZ:PROC		; CGraphicImageInstance::~CGraphicImageInstance
EXTRN	?Destroy@CGraphicImageInstance@@QAEXXZ:PROC	; CGraphicImageInstance::Destroy
EXTRN	?SetImagePointer@CGraphicImageInstance@@QAEXPAVCGraphicImage@@@Z:PROC ; CGraphicImageInstance::SetImagePointer
EXTRN	?ReloadImagePointer@CGraphicImageInstance@@QAEXPAVCGraphicImage@@@Z:PROC ; CGraphicImageInstance::ReloadImagePointer
EXTRN	?GetTexturePointer@CGraphicImageInstance@@QAEPAVCGraphicTexture@@XZ:PROC ; CGraphicImageInstance::GetTexturePointer
EXTRN	?OnRender@CGraphicImageInstance@@MAEXXZ:PROC	; CGraphicImageInstance::OnRender
EXTRN	?OnSetImagePointer@CGraphicImageInstance@@MAEXXZ:PROC ; CGraphicImageInstance::OnSetImagePointer
EXTRN	?OnIsType@CGraphicImageInstance@@MAEHK@Z:PROC	; CGraphicImageInstance::OnIsType
EXTRN	??_ECGraphicImageInstance@@UAEPAXI@Z:PROC	; CGraphicImageInstance::`vector deleting destructor'
EXTRN	??_ECTextureSet@@UAEPAXI@Z:PROC			; CTextureSet::`vector deleting destructor'
EXTRN	@__security_check_cookie@4:PROC
EXTRN	__CxxThrowException@8:PROC
EXTRN	___CxxFrameHandler3:PROC
EXTRN	_memcpy:PROC
EXTRN	_memmove:PROC
EXTRN	??_7type_info@@6B@:QWORD			; type_info::`vftable'
EXTRN	___security_cookie:DWORD
EXTRN	__fltused:DWORD
;	COMDAT ?_OptionsStorage@?1??__local_stdio_printf_options@@9@4_KA
_BSS	SEGMENT
?_OptionsStorage@?1??__local_stdio_printf_options@@9@4_KA DQ 01H DUP (?) ; `__local_stdio_printf_options'::`2'::_OptionsStorage
_BSS	ENDS
;	COMDAT ?ms_singleton@?$CSingleton@VCResourceManager@@@@0PAVCResourceManager@@A
_BSS	SEGMENT
?ms_singleton@?$CSingleton@VCResourceManager@@@@0PAVCResourceManager@@A DD 01H DUP (?) ; CSingleton<CResourceManager>::ms_singleton
_BSS	ENDS
;	COMDAT __xmm@80000000800000008000000080000000
CONST	SEGMENT
__xmm@80000000800000008000000080000000 DB 00H, 00H, 00H, 080H, 00H, 00H, 00H
	DB	080H, 00H, 00H, 00H, 080H, 00H, 00H, 00H, 080H
CONST	ENDS
;	COMDAT ??_R1A@?0A@EA@CTextureSet@@8
rdata$r	SEGMENT
??_R1A@?0A@EA@CTextureSet@@8 DD FLAT:??_R0?AVCTextureSet@@@8 ; CTextureSet::`RTTI Base Class Descriptor at (0,-1,0,64)'
	DD	00H
	DD	00H
	DD	0ffffffffH
	DD	00H
	DD	040H
	DD	FLAT:??_R3CTextureSet@@8
rdata$r	ENDS
;	COMDAT ??_R2CTextureSet@@8
rdata$r	SEGMENT
??_R2CTextureSet@@8 DD FLAT:??_R1A@?0A@EA@CTextureSet@@8 ; CTextureSet::`RTTI Base Class Array'
rdata$r	ENDS
;	COMDAT ??_R3CTextureSet@@8
rdata$r	SEGMENT
??_R3CTextureSet@@8 DD 00H				; CTextureSet::`RTTI Class Hierarchy Descriptor'
	DD	00H
	DD	01H
	DD	FLAT:??_R2CTextureSet@@8
rdata$r	ENDS
;	COMDAT ??_R0?AVCTextureSet@@@8
data$rs	SEGMENT
??_R0?AVCTextureSet@@@8 DD FLAT:??_7type_info@@6B@	; CTextureSet `RTTI Type Descriptor'
	DD	00H
	DB	'.?AVCTextureSet@@', 00H
data$rs	ENDS
;	COMDAT ??_R4CTextureSet@@6B@
rdata$r	SEGMENT
??_R4CTextureSet@@6B@ DD 00H				; CTextureSet::`RTTI Complete Object Locator'
	DD	00H
	DD	00H
	DD	FLAT:??_R0?AVCTextureSet@@@8
	DD	FLAT:??_R3CTextureSet@@8
rdata$r	ENDS
;	COMDAT ??_R1A@?0A@EA@CGraphicImageInstance@@8
rdata$r	SEGMENT
??_R1A@?0A@EA@CGraphicImageInstance@@8 DD FLAT:??_R0?AVCGraphicImageInstance@@@8 ; CGraphicImageInstance::`RTTI Base Class Descriptor at (0,-1,0,64)'
	DD	00H
	DD	00H
	DD	0ffffffffH
	DD	00H
	DD	040H
	DD	FLAT:??_R3CGraphicImageInstance@@8
rdata$r	ENDS
;	COMDAT ??_R2CGraphicImageInstance@@8
rdata$r	SEGMENT
??_R2CGraphicImageInstance@@8 DD FLAT:??_R1A@?0A@EA@CGraphicImageInstance@@8 ; CGraphicImageInstance::`RTTI Base Class Array'
rdata$r	ENDS
;	COMDAT ??_R3CGraphicImageInstance@@8
rdata$r	SEGMENT
??_R3CGraphicImageInstance@@8 DD 00H			; CGraphicImageInstance::`RTTI Class Hierarchy Descriptor'
	DD	00H
	DD	01H
	DD	FLAT:??_R2CGraphicImageInstance@@8
rdata$r	ENDS
;	COMDAT ??_R0?AVCGraphicImageInstance@@@8
data$rs	SEGMENT
??_R0?AVCGraphicImageInstance@@@8 DD FLAT:??_7type_info@@6B@ ; CGraphicImageInstance `RTTI Type Descriptor'
	DD	00H
	DB	'.?AVCGraphicImageInstance@@', 00H
data$rs	ENDS
;	COMDAT ??_R4CGraphicImageInstance@@6B@
rdata$r	SEGMENT
??_R4CGraphicImageInstance@@6B@ DD 00H			; CGraphicImageInstance::`RTTI Complete Object Locator'
	DD	00H
	DD	00H
	DD	FLAT:??_R0?AVCGraphicImageInstance@@@8
	DD	FLAT:??_R3CGraphicImageInstance@@8
rdata$r	ENDS
;	COMDAT ??_R1A@?0A@EA@bad_array_new_length@std@@8
rdata$r	SEGMENT
??_R1A@?0A@EA@bad_array_new_length@std@@8 DD FLAT:??_R0?AVbad_array_new_length@std@@@8 ; std::bad_array_new_length::`RTTI Base Class Descriptor at (0,-1,0,64)'
	DD	02H
	DD	00H
	DD	0ffffffffH
	DD	00H
	DD	040H
	DD	FLAT:??_R3bad_array_new_length@std@@8
rdata$r	ENDS
;	COMDAT ??_R2bad_array_new_length@std@@8
rdata$r	SEGMENT
??_R2bad_array_new_length@std@@8 DD FLAT:??_R1A@?0A@EA@bad_array_new_length@std@@8 ; std::bad_array_new_length::`RTTI Base Class Array'
	DD	FLAT:??_R1A@?0A@EA@bad_alloc@std@@8
	DD	FLAT:??_R1A@?0A@EA@exception@std@@8
rdata$r	ENDS
;	COMDAT ??_R3bad_array_new_length@std@@8
rdata$r	SEGMENT
??_R3bad_array_new_length@std@@8 DD 00H			; std::bad_array_new_length::`RTTI Class Hierarchy Descriptor'
	DD	00H
	DD	03H
	DD	FLAT:??_R2bad_array_new_length@std@@8
rdata$r	ENDS
;	COMDAT ??_R4bad_array_new_length@std@@6B@
rdata$r	SEGMENT
??_R4bad_array_new_length@std@@6B@ DD 00H		; std::bad_array_new_length::`RTTI Complete Object Locator'
	DD	00H
	DD	00H
	DD	FLAT:??_R0?AVbad_array_new_length@std@@@8
	DD	FLAT:??_R3bad_array_new_length@std@@8
rdata$r	ENDS
;	COMDAT ??_R1A@?0A@EA@bad_alloc@std@@8
rdata$r	SEGMENT
??_R1A@?0A@EA@bad_alloc@std@@8 DD FLAT:??_R0?AVbad_alloc@std@@@8 ; std::bad_alloc::`RTTI Base Class Descriptor at (0,-1,0,64)'
	DD	01H
	DD	00H
	DD	0ffffffffH
	DD	00H
	DD	040H
	DD	FLAT:??_R3bad_alloc@std@@8
rdata$r	ENDS
;	COMDAT ??_R2bad_alloc@std@@8
rdata$r	SEGMENT
??_R2bad_alloc@std@@8 DD FLAT:??_R1A@?0A@EA@bad_alloc@std@@8 ; std::bad_alloc::`RTTI Base Class Array'
	DD	FLAT:??_R1A@?0A@EA@exception@std@@8
rdata$r	ENDS
;	COMDAT ??_R3bad_alloc@std@@8
rdata$r	SEGMENT
??_R3bad_alloc@std@@8 DD 00H				; std::bad_alloc::`RTTI Class Hierarchy Descriptor'
	DD	00H
	DD	02H
	DD	FLAT:??_R2bad_alloc@std@@8
rdata$r	ENDS
;	COMDAT ??_R4bad_alloc@std@@6B@
rdata$r	SEGMENT
??_R4bad_alloc@std@@6B@ DD 00H				; std::bad_alloc::`RTTI Complete Object Locator'
	DD	00H
	DD	00H
	DD	FLAT:??_R0?AVbad_alloc@std@@@8
	DD	FLAT:??_R3bad_alloc@std@@8
rdata$r	ENDS
;	COMDAT ??_R1A@?0A@EA@exception@std@@8
rdata$r	SEGMENT
??_R1A@?0A@EA@exception@std@@8 DD FLAT:??_R0?AVexception@std@@@8 ; std::exception::`RTTI Base Class Descriptor at (0,-1,0,64)'
	DD	00H
	DD	00H
	DD	0ffffffffH
	DD	00H
	DD	040H
	DD	FLAT:??_R3exception@std@@8
rdata$r	ENDS
;	COMDAT ??_R2exception@std@@8
rdata$r	SEGMENT
??_R2exception@std@@8 DD FLAT:??_R1A@?0A@EA@exception@std@@8 ; std::exception::`RTTI Base Class Array'
rdata$r	ENDS
;	COMDAT ??_R3exception@std@@8
rdata$r	SEGMENT
??_R3exception@std@@8 DD 00H				; std::exception::`RTTI Class Hierarchy Descriptor'
	DD	00H
	DD	01H
	DD	FLAT:??_R2exception@std@@8
rdata$r	ENDS
;	COMDAT ??_R4exception@std@@6B@
rdata$r	SEGMENT
??_R4exception@std@@6B@ DD 00H				; std::exception::`RTTI Complete Object Locator'
	DD	00H
	DD	00H
	DD	FLAT:??_R0?AVexception@std@@@8
	DD	FLAT:??_R3exception@std@@8
rdata$r	ENDS
;	COMDAT ??_C@_0BA@FOIKENOD@vector?5too?5long@
CONST	SEGMENT
??_C@_0BA@FOIKENOD@vector?5too?5long@ DB 'vector too long', 00H ; `string'
CONST	ENDS
;	COMDAT ??_C@_0BB@GNLMPHOK@End?5Texture?$CF03d?6@
CONST	SEGMENT
??_C@_0BB@GNLMPHOK@End?5Texture?$CF03d?6@ DB 'End Texture%03d', 0aH, 00H ; `string'
CONST	ENDS
;	COMDAT ??_C@_08PFAGAKKH@?5?5?5?5?$CFhu?6@
CONST	SEGMENT
??_C@_08PFAGAKKH@?5?5?5?5?$CFhu?6@ DB '    %hu', 0aH, 00H ; `string'
CONST	ENDS
;	COMDAT ??_C@_07EIKGIFBE@?5?5?5?5?$CFd?6@
CONST	SEGMENT
??_C@_07EIKGIFBE@?5?5?5?5?$CFd?6@ DB '    %d', 0aH, 00H	; `string'
CONST	ENDS
;	COMDAT ??_C@_07ELCCFBHK@?5?5?5?5?$CFf?6@
CONST	SEGMENT
??_C@_07ELCCFBHK@?5?5?5?5?$CFf?6@ DB '    %f', 0aH, 00H	; `string'
CONST	ENDS
;	COMDAT ??_C@_09BMPLDMAP@?5?5?5?5?$CC?$CFs?$CC?6@
CONST	SEGMENT
??_C@_09BMPLDMAP@?5?5?5?5?$CC?$CFs?$CC?6@ DB '    "%s"', 0aH, 00H ; `string'
CONST	ENDS
;	COMDAT ??_C@_0BD@BJELLKNB@Start?5Texture?$CF03d?6@
CONST	SEGMENT
??_C@_0BD@BJELLKNB@Start?5Texture?$CF03d?6@ DB 'Start Texture%03d', 0aH, 00H ; `string'
CONST	ENDS
;	COMDAT ??_C@_0BC@GGJBGKJP@TextureCount?5?$CFld?6@
CONST	SEGMENT
??_C@_0BC@GGJBGKJP@TextureCount?5?$CFld?6@ DB 'TextureCount %ld', 0aH, 00H ; `string'
CONST	ENDS
;	COMDAT ??_C@_01EEMJAFIK@?6@
CONST	SEGMENT
??_C@_01EEMJAFIK@?6@ DB 0aH, 00H			; `string'
CONST	ENDS
;	COMDAT ??_C@_0M@MPCHGPBP@TextureSet?6@
CONST	SEGMENT
??_C@_0M@MPCHGPBP@TextureSet?6@ DB 'TextureSet', 0aH, 00H ; `string'
CONST	ENDS
;	COMDAT ??_C@_01NOFIACDB@w@
CONST	SEGMENT
??_C@_01NOFIACDB@w@ DB 'w', 00H				; `string'
CONST	ENDS
;	COMDAT ??_C@_0DL@DKIJJDLL@CTerrainImpl?3?3GenerateTexture?5?3@
CONST	SEGMENT
??_C@_0DL@DKIJJDLL@CTerrainImpl?3?3GenerateTexture?5?3@ DB 'CTerrainImpl:'
	DB	':GenerateTexture : ', 0c0H, 0ccH, 0b9H, 0ccH, 0c1H, 0f6H, ' ', 0c6H
	DB	0c4H, 0c0H, 0cfH, 0c0H, 0ccH, ' ', 0beH, 0c6H, 0b4H, 0d5H, 0b4H
	DB	0cfH, 0b4H, 0d9H, '. %s', 00H		; `string'
CONST	ENDS
;	COMDAT ??_C@_0CG@FLKLAMDA@?$LF?$LP?$MA?O?G?Q?5?$MA?L?$LI?$KH?$MA?G?5?E?X?$LN?$LK?C?$LD?$LA?$KB?5?$MA?L?$LJ?L?5?$MA?V?$LN@
CONST	SEGMENT
??_C@_0CG@FLKLAMDA@?$LF?$LP?$MA?O?G?Q?5?$MA?L?$LI?$KH?$MA?G?5?E?X?$LN?$LK?C?$LD?$LA?$KB?5?$MA?L?$LJ?L?5?$MA?V?$LN@ DB 0b5H
	DB	0bfH, 0c0H, 0cfH, 0c7H, 0d1H, ' ', 0c0H, 0ccH, 0b8H, 0a7H, 0c0H
	DB	0c7H, ' ', 0c5H, 0d8H, 0bdH, 0baH, 0c3H, 0b3H, 0b0H, 0a1H, ' ', 0c0H
	DB	0ccH, 0b9H, 0ccH, ' ', 0c0H, 0d6H, 0bdH, 0c0H, 0b4H, 0cfH, 0b4H
	DB	0d9H, '.', 00H				; `string'
CONST	ENDS
;	COMDAT ??_C@_04GOFBAOHB@?A?$NP?$LK?$LJ@
CONST	SEGMENT
??_C@_04GOFBAOHB@?A?$NP?$LK?$LJ@ DB 0c1H, 0dfH, 0baH, 0b9H, 00H ; `string'
CONST	ENDS
;	COMDAT ??_C@_0CF@MOODBFAK@?E?X?$LN?$LK?C?$LD?$LI?$KG?5?$LE?u?5?$MA?L?$LL?s?5?C?$NP?$LA?$KB?G?R?5?$LM?v?5?$LO?x?$LN?$MA@
CONST	SEGMENT
??_C@_0CF@MOODBFAK@?E?X?$LN?$LK?C?$LD?$LI?$KG?5?$LE?u?5?$MA?L?$LL?s?5?C?$NP?$LA?$KB?G?R?5?$LM?v?5?$LO?x?$LN?$MA@ DB 0c5H
	DB	0d8H, 0bdH, 0baH, 0c3H, 0b3H, 0b8H, 0a6H, ' ', 0b4H, 0f5H, ' ', 0c0H
	DB	0ccH, 0bbH, 0f3H, ' ', 0c3H, 0dfH, 0b0H, 0a1H, 0c7H, 0d2H, ' ', 0bcH
	DB	0f6H, ' ', 0beH, 0f8H, 0bdH, 0c0H, 0b4H, 0cfH, 0b4H, 0d9H, '.', 00H ; `string'
CONST	ENDS
;	COMDAT ??_C@_0BH@JDODIAKK@?C?V?$LE?k?5?E?X?$LN?$LK?C?$LD?5?$LA?$LD?$LM?v?5255?$LA?$LD@
CONST	SEGMENT
??_C@_0BH@JDODIAKK@?C?V?$LE?k?5?E?X?$LN?$LK?C?$LD?5?$LA?$LD?$LM?v?5255?$LA?$LD@ DB 0c3H
	DB	0d6H, 0b4H, 0ebH, ' ', 0c5H, 0d8H, 0bdH, 0baH, 0c3H, 0b3H, ' ', 0b0H
	DB	0b3H, 0bcH, 0f6H, ' 255', 0b0H, 0b3H, 00H	; `string'
CONST	ENDS
;	COMDAT ??_C@_0DF@JOIEGDLH@CTerrainImpl?3?3GenerateTexture?5?3@
CONST	SEGMENT
??_C@_0DF@JOIEGDLH@CTerrainImpl?3?3GenerateTexture?5?3@ DB 'CTerrainImpl:'
	DB	':GenerateTexture : %s is NOT Image File', 00H ; `string'
CONST	ENDS
;	COMDAT ??_C@_0FF@IFFABLMH@CTextureSet?3?3SetTexture?5?3?5Index@
CONST	SEGMENT
??_C@_0FF@IFFABLMH@CTextureSet?3?3SetTexture?5?3?5Index@ DB 'CTextureSet:'
	DB	':SetTexture : Index Error : Index(%d) is Larger than TextureS'
	DB	'et Size(%d)', 00H				; `string'
CONST	ENDS
;	COMDAT ??_C@_0DF@CFOIFDDM@CTextureSet?3?3Load?5?3?5SetTexture?5@
CONST	SEGMENT
??_C@_0DF@CFOIFDDM@CTextureSet?3?3Load?5?3?5SetTexture?5@ DB 'CTextureSet'
	DB	'::Load : SetTexture failed : Filename: %s', 00H ; `string'
CONST	ENDS
;	COMDAT ??_C@_0M@NDPMIDHE@texture?$CF03d@
CONST	SEGMENT
??_C@_0M@NDPMIDHE@texture?$CF03d@ DB 'texture%03d', 00H	; `string'
CONST	ENDS
;	COMDAT ??_C@_0DN@FCLAEMJC@TextureSet?3?3Load?5?3?5syntax?5error@
CONST	SEGMENT
??_C@_0DN@FCLAEMJC@TextureSet?3?3Load?5?3?5syntax?5error@ DB 'TextureSet:'
	DB	':Load : syntax error, TextureCount (filename: %s)', 00H ; `string'
CONST	ENDS
;	COMDAT ??_C@_0N@MMECMGAI@texturecount@
CONST	SEGMENT
??_C@_0N@MMECMGAI@texturecount@ DB 'texturecount', 00H	; `string'
CONST	ENDS
;	COMDAT ??_C@_0DL@HIELGKBC@TextureSet?3?3Load?5?3?5syntax?5error@
CONST	SEGMENT
??_C@_0DL@HIELGKBC@TextureSet?3?3Load?5?3?5syntax?5error@ DB 'TextureSet:'
	DB	':Load : syntax error, TextureSet (filename: %s)', 00H ; `string'
CONST	ENDS
;	COMDAT ??_C@_0L@FLIBEPMB@textureset@
CONST	SEGMENT
??_C@_0L@FLIBEPMB@textureset@ DB 'textureset', 00H	; `string'
CONST	ENDS
;	COMDAT ??_C@_0CC@NFEEIIKK@TextureSet?3?3Load?5?3?5cannot?5load?5@
CONST	SEGMENT
??_C@_0CC@NFEEIIKK@TextureSet?3?3Load?5?3?5cannot?5load?5@ DB 'TextureSet'
	DB	'::Load : cannot load %s', 00H		; `string'
CONST	ENDS
;	COMDAT ??_C@_0BP@PGALBFBK@d?3?1ymir?5work?1special?1error?4tga@
CONST	SEGMENT
??_C@_0BP@PGALBFBK@d?3?1ymir?5work?1special?1error?4tga@ DB 'd:/ymir work'
	DB	'/special/error.tga', 00H			; `string'
CONST	ENDS
;	COMDAT ??_7CTextureSet@@6B@
CONST	SEGMENT
??_7CTextureSet@@6B@ DD FLAT:??_R4CTextureSet@@6B@	; CTextureSet::`vftable'
	DD	FLAT:??_ECTextureSet@@UAEPAXI@Z
CONST	ENDS
;	COMDAT ??_7CGraphicImageInstance@@6B@
CONST	SEGMENT
??_7CGraphicImageInstance@@6B@ DD FLAT:??_R4CGraphicImageInstance@@6B@ ; CGraphicImageInstance::`vftable'
	DD	FLAT:??_ECGraphicImageInstance@@UAEPAXI@Z
	DD	FLAT:?OnRender@CGraphicImageInstance@@MAEXXZ
	DD	FLAT:?OnSetImagePointer@CGraphicImageInstance@@MAEXXZ
	DD	FLAT:?OnIsType@CGraphicImageInstance@@MAEHK@Z
CONST	ENDS
;	COMDAT ??_C@_0BB@GCADKGJO@map?1set?5too?5long@
CONST	SEGMENT
??_C@_0BB@GCADKGJO@map?1set?5too?5long@ DB 'map/set too long', 00H ; `string'
CONST	ENDS
;	COMDAT ??_C@_0BA@JFNIOLAK@string?5too?5long@
CONST	SEGMENT
??_C@_0BA@JFNIOLAK@string?5too?5long@ DB 'string too long', 00H ; `string'
CONST	ENDS
;	COMDAT __CT??_R0?AVexception@std@@@8??0exception@std@@QAE@ABV01@@Z12
xdata$x	SEGMENT
__CT??_R0?AVexception@std@@@8??0exception@std@@QAE@ABV01@@Z12 DD 00H
	DD	FLAT:??_R0?AVexception@std@@@8
	DD	00H
	DD	0ffffffffH
	ORG $+4
	DD	0cH
	DD	FLAT:??0exception@std@@QAE@ABV01@@Z
xdata$x	ENDS
;	COMDAT ??_R0?AVexception@std@@@8
data$r	SEGMENT
??_R0?AVexception@std@@@8 DD FLAT:??_7type_info@@6B@	; std::exception `RTTI Type Descriptor'
	DD	00H
	DB	'.?AVexception@std@@', 00H
data$r	ENDS
;	COMDAT __CT??_R0?AVbad_alloc@std@@@8??0bad_alloc@std@@QAE@ABV01@@Z12
xdata$x	SEGMENT
__CT??_R0?AVbad_alloc@std@@@8??0bad_alloc@std@@QAE@ABV01@@Z12 DD 010H
	DD	FLAT:??_R0?AVbad_alloc@std@@@8
	DD	00H
	DD	0ffffffffH
	ORG $+4
	DD	0cH
	DD	FLAT:??0bad_alloc@std@@QAE@ABV01@@Z
xdata$x	ENDS
;	COMDAT ??_R0?AVbad_alloc@std@@@8
data$r	SEGMENT
??_R0?AVbad_alloc@std@@@8 DD FLAT:??_7type_info@@6B@	; std::bad_alloc `RTTI Type Descriptor'
	DD	00H
	DB	'.?AVbad_alloc@std@@', 00H
data$r	ENDS
;	COMDAT __CT??_R0?AVbad_array_new_length@std@@@8??0bad_array_new_length@std@@QAE@ABV01@@Z12
xdata$x	SEGMENT
__CT??_R0?AVbad_array_new_length@std@@@8??0bad_array_new_length@std@@QAE@ABV01@@Z12 DD 00H
	DD	FLAT:??_R0?AVbad_array_new_length@std@@@8
	DD	00H
	DD	0ffffffffH
	ORG $+4
	DD	0cH
	DD	FLAT:??0bad_array_new_length@std@@QAE@ABV01@@Z
xdata$x	ENDS
;	COMDAT ??_R0?AVbad_array_new_length@std@@@8
data$r	SEGMENT
??_R0?AVbad_array_new_length@std@@@8 DD FLAT:??_7type_info@@6B@ ; std::bad_array_new_length `RTTI Type Descriptor'
	DD	00H
	DB	'.?AVbad_array_new_length@std@@', 00H
data$r	ENDS
;	COMDAT __CTA3?AVbad_array_new_length@std@@
xdata$x	SEGMENT
__CTA3?AVbad_array_new_length@std@@ DD 03H
	DD	FLAT:__CT??_R0?AVbad_array_new_length@std@@@8??0bad_array_new_length@std@@QAE@ABV01@@Z12
	DD	FLAT:__CT??_R0?AVbad_alloc@std@@@8??0bad_alloc@std@@QAE@ABV01@@Z12
	DD	FLAT:__CT??_R0?AVexception@std@@@8??0exception@std@@QAE@ABV01@@Z12
xdata$x	ENDS
;	COMDAT __TI3?AVbad_array_new_length@std@@
xdata$x	SEGMENT
__TI3?AVbad_array_new_length@std@@ DD 00H
	DD	FLAT:??1bad_array_new_length@std@@UAE@XZ
	DD	00H
	DD	FLAT:__CTA3?AVbad_array_new_length@std@@
xdata$x	ENDS
;	COMDAT ??_C@_0BF@KINCDENJ@bad?5array?5new?5length@
CONST	SEGMENT
??_C@_0BF@KINCDENJ@bad?5array?5new?5length@ DB 'bad array new length', 00H ; `string'
CONST	ENDS
;	COMDAT ??_7bad_array_new_length@std@@6B@
CONST	SEGMENT
??_7bad_array_new_length@std@@6B@ DD FLAT:??_R4bad_array_new_length@std@@6B@ ; std::bad_array_new_length::`vftable'
	DD	FLAT:??_Ebad_array_new_length@std@@UAEPAXI@Z
	DD	FLAT:?what@exception@std@@UBEPBDXZ
CONST	ENDS
;	COMDAT ??_7bad_alloc@std@@6B@
CONST	SEGMENT
??_7bad_alloc@std@@6B@ DD FLAT:??_R4bad_alloc@std@@6B@	; std::bad_alloc::`vftable'
	DD	FLAT:??_Ebad_alloc@std@@UAEPAXI@Z
	DD	FLAT:?what@exception@std@@UBEPBDXZ
CONST	ENDS
;	COMDAT ??_C@_0BC@EOODALEL@Unknown?5exception@
CONST	SEGMENT
??_C@_0BC@EOODALEL@Unknown?5exception@ DB 'Unknown exception', 00H ; `string'
CONST	ENDS
;	COMDAT ??_7exception@std@@6B@
CONST	SEGMENT
??_7exception@std@@6B@ DD FLAT:??_R4exception@std@@6B@	; std::exception::`vftable'
	DD	FLAT:??_Eexception@std@@UAEPAXI@Z
	DD	FLAT:?what@exception@std@@UBEPBDXZ
CONST	ENDS
;	COMDAT xdata$x
xdata$x	SEGMENT
__unwindtable$??$_Uninitialized_move@PAUSTerrainTexture@@V?$allocator@USTerrainTexture@@@std@@@std@@YAPAUSTerrainTexture@@QAU1@0PAU1@AAV?$allocator@USTerrainTexture@@@0@@Z DD 0ffffffffH
	DD	FLAT:__unwindfunclet$??$_Uninitialized_move@PAUSTerrainTexture@@V?$allocator@USTerrainTexture@@@std@@@std@@YAPAUSTerrainTexture@@QAU1@0PAU1@AAV?$allocator@USTerrainTexture@@@0@@Z$0
__ehfuncinfo$??$_Uninitialized_move@PAUSTerrainTexture@@V?$allocator@USTerrainTexture@@@std@@@std@@YAPAUSTerrainTexture@@QAU1@0PAU1@AAV?$allocator@USTerrainTexture@@@0@@Z DD 019930522H
	DD	01H
	DD	FLAT:__unwindtable$??$_Uninitialized_move@PAUSTerrainTexture@@V?$allocator@USTerrainTexture@@@std@@@std@@YAPAUSTerrainTexture@@QAU1@0PAU1@AAV?$allocator@USTerrainTexture@@@0@@Z
	DD	2 DUP(00H)
	DD	2 DUP(00H)
	DD	00H
	DD	01H
xdata$x	ENDS
;	COMDAT xdata$x
xdata$x	SEGMENT
__catchsym$??$_Emplace_reallocate@ABUSTerrainTexture@@@?$vector@USTerrainTexture@@V?$allocator@USTerrainTexture@@@std@@@std@@AAEPAUSTerrainTexture@@QAU2@ABU2@@Z$2 DD 040H
	DD	00H
	DD	00H
	DD	FLAT:__catch$??$_Emplace_reallocate@ABUSTerrainTexture@@@?$vector@USTerrainTexture@@V?$allocator@USTerrainTexture@@@std@@@std@@AAEPAUSTerrainTexture@@QAU2@ABU2@@Z$0
__unwindtable$??$_Emplace_reallocate@ABUSTerrainTexture@@@?$vector@USTerrainTexture@@V?$allocator@USTerrainTexture@@@std@@@std@@AAEPAUSTerrainTexture@@QAU2@ABU2@@Z DD 0ffffffffH
	DD	00H
	DD	0ffffffffH
	DD	00H
__tryblocktable$??$_Emplace_reallocate@ABUSTerrainTexture@@@?$vector@USTerrainTexture@@V?$allocator@USTerrainTexture@@@std@@@std@@AAEPAUSTerrainTexture@@QAU2@ABU2@@Z DD 00H
	DD	00H
	DD	01H
	DD	01H
	DD	FLAT:__catchsym$??$_Emplace_reallocate@ABUSTerrainTexture@@@?$vector@USTerrainTexture@@V?$allocator@USTerrainTexture@@@std@@@std@@AAEPAUSTerrainTexture@@QAU2@ABU2@@Z$2
__ehfuncinfo$??$_Emplace_reallocate@ABUSTerrainTexture@@@?$vector@USTerrainTexture@@V?$allocator@USTerrainTexture@@@std@@@std@@AAEPAUSTerrainTexture@@QAU2@ABU2@@Z DD 019930522H
	DD	02H
	DD	FLAT:__unwindtable$??$_Emplace_reallocate@ABUSTerrainTexture@@@?$vector@USTerrainTexture@@V?$allocator@USTerrainTexture@@@std@@@std@@AAEPAUSTerrainTexture@@QAU2@ABU2@@Z
	DD	01H
	DD	FLAT:__tryblocktable$??$_Emplace_reallocate@ABUSTerrainTexture@@@?$vector@USTerrainTexture@@V?$allocator@USTerrainTexture@@@std@@@std@@AAEPAUSTerrainTexture@@QAU2@ABU2@@Z
	DD	2 DUP(00H)
	DD	00H
	DD	01H
xdata$x	ENDS
;	COMDAT xdata$x
xdata$x	SEGMENT
__unwindtable$??$_Uninitialized_value_construct_n@V?$allocator@USTerrainTexture@@@std@@@std@@YAPAUSTerrainTexture@@PAU1@IAAV?$allocator@USTerrainTexture@@@0@@Z DD 0ffffffffH
	DD	FLAT:__unwindfunclet$??$_Uninitialized_value_construct_n@V?$allocator@USTerrainTexture@@@std@@@std@@YAPAUSTerrainTexture@@PAU1@IAAV?$allocator@USTerrainTexture@@@0@@Z$0
__ehfuncinfo$??$_Uninitialized_value_construct_n@V?$allocator@USTerrainTexture@@@std@@@std@@YAPAUSTerrainTexture@@PAU1@IAAV?$allocator@USTerrainTexture@@@0@@Z DD 019930522H
	DD	01H
	DD	FLAT:__unwindtable$??$_Uninitialized_value_construct_n@V?$allocator@USTerrainTexture@@@std@@@std@@YAPAUSTerrainTexture@@PAU1@IAAV?$allocator@USTerrainTexture@@@0@@Z
	DD	2 DUP(00H)
	DD	2 DUP(00H)
	DD	00H
	DD	01H
xdata$x	ENDS
;	COMDAT xdata$x
xdata$x	SEGMENT
__catchsym$??$_Resize_reallocate@U_Value_init_tag@std@@@?$vector@USTerrainTexture@@V?$allocator@USTerrainTexture@@@std@@@std@@AAEXIABU_Value_init_tag@1@@Z$2 DD 040H
	DD	00H
	DD	00H
	DD	FLAT:__catch$??$_Resize_reallocate@U_Value_init_tag@std@@@?$vector@USTerrainTexture@@V?$allocator@USTerrainTexture@@@std@@@std@@AAEXIABU_Value_init_tag@1@@Z$0
__unwindtable$??$_Resize_reallocate@U_Value_init_tag@std@@@?$vector@USTerrainTexture@@V?$allocator@USTerrainTexture@@@std@@@std@@AAEXIABU_Value_init_tag@1@@Z DD 0ffffffffH
	DD	00H
	DD	0ffffffffH
	DD	00H
__tryblocktable$??$_Resize_reallocate@U_Value_init_tag@std@@@?$vector@USTerrainTexture@@V?$allocator@USTerrainTexture@@@std@@@std@@AAEXIABU_Value_init_tag@1@@Z DD 00H
	DD	00H
	DD	01H
	DD	01H
	DD	FLAT:__catchsym$??$_Resize_reallocate@U_Value_init_tag@std@@@?$vector@USTerrainTexture@@V?$allocator@USTerrainTexture@@@std@@@std@@AAEXIABU_Value_init_tag@1@@Z$2
__ehfuncinfo$??$_Resize_reallocate@U_Value_init_tag@std@@@?$vector@USTerrainTexture@@V?$allocator@USTerrainTexture@@@std@@@std@@AAEXIABU_Value_init_tag@1@@Z DD 019930522H
	DD	02H
	DD	FLAT:__unwindtable$??$_Resize_reallocate@U_Value_init_tag@std@@@?$vector@USTerrainTexture@@V?$allocator@USTerrainTexture@@@std@@@std@@AAEXIABU_Value_init_tag@1@@Z
	DD	01H
	DD	FLAT:__tryblocktable$??$_Resize_reallocate@U_Value_init_tag@std@@@?$vector@USTerrainTexture@@V?$allocator@USTerrainTexture@@@std@@@std@@AAEXIABU_Value_init_tag@1@@Z
	DD	2 DUP(00H)
	DD	00H
	DD	01H
xdata$x	ENDS
;	COMDAT xdata$x
xdata$x	SEGMENT
__unwindtable$??$?0ABUpiecewise_construct_t@std@@V?$tuple@$$QAV?$basic_string@DU?$char_traits@D@std@@V?$allocator@D@2@@std@@@1@V?$tuple@$$V@1@@?$_Tree_temp_node@V?$allocator@U?$_Tree_node@U?$pair@$$CBV?$basic_string@DU?$char_traits@D@std@@V?$allocator@D@2@@std@@V?$vector@V?$basic_string@DU?$char_traits@D@std@@V?$allocator@D@2@@std@@V?$allocator@V?$basic_string@DU?$char_traits@D@std@@V?$allocator@D@2@@std@@@2@@2@@std@@PAX@std@@@std@@@std@@QAE@AAV?$allocator@U?$_Tree_node@U?$pair@$$CBV?$basic_string@DU?$char_traits@D@std@@V?$allocator@D@2@@std@@V?$vector@V?$basic_string@DU?$char_traits@D@std@@V?$allocator@D@2@@std@@V?$allocator@V?$basic_string@DU?$char_traits@D@std@@V?$allocator@D@2@@std@@@2@@2@@std@@PAX@std@@@1@PAU?$_Tree_node@U?$pair@$$CBV?$basic_string@DU?$char_traits@D@std@@V?$allocator@D@2@@std@@V?$vector@V?$basic_string@DU?$char_traits@D@std@@V?$allocator@D@2@@std@@V?$allocator@V?$basic_string@DU?$char_traits@D@std@@V?$allocator@D@2@@std@@@2@@2@@std@@PAX@1@ABUpiecewise_construct_t@1@$$QAV?$tuple@$$QAV?$basic_string@DU?$char_traits@D@std@@V?$allocator@D@2@@std@@@1@$$QAV?$tuple@$$V@1@@Z DD 0ffffffffH
	DD	FLAT:__unwindfunclet$??$?0ABUpiecewise_construct_t@std@@V?$tuple@$$QAV?$basic_string@DU?$char_traits@D@std@@V?$allocator@D@2@@std@@@1@V?$tuple@$$V@1@@?$_Tree_temp_node@V?$allocator@U?$_Tree_node@U?$pair@$$CBV?$basic_string@DU?$char_traits@D@std@@V?$allocator@D@2@@std@@V?$vector@V?$basic_string@DU?$char_traits@D@std@@V?$allocator@D@2@@std@@V?$allocator@V?$basic_string@DU?$char_traits@D@std@@V?$allocator@D@2@@std@@@2@@2@@std@@PAX@std@@@std@@@std@@QAE@AAV?$allocator@U?$_Tree_node@U?$pair@$$CBV?$basic_string@DU?$char_traits@D@std@@V?$allocator@D@2@@std@@V?$vector@V?$basic_string@DU?$char_traits@D@std@@V?$allocator@D@2@@std@@V?$allocator@V?$basic_string@DU?$char_traits@D@std@@V?$allocator@D@2@@std@@@2@@2@@std@@PAX@std@@@1@PAU?$_Tree_node@U?$pair@$$CBV?$basic_string@DU?$char_traits@D@std@@V?$allocator@D@2@@std@@V?$vector@V?$basic_string@DU?$char_traits@D@std@@V?$allocator@D@2@@std@@V?$allocator@V?$basic_string@DU?$char_traits@D@std@@V?$allocator@D@2@@std@@@2@@2@@std@@PAX@1@ABUpiecewise_construct_t@1@$$QAV?$tuple@$$QAV?$basic_string@DU?$char_traits@D@std@@V?$allocator@D@2@@std@@@1@$$QAV?$tuple@$$V@1@@Z$1
__ehfuncinfo$??$?0ABUpiecewise_construct_t@std@@V?$tuple@$$QAV?$basic_string@DU?$char_traits@D@std@@V?$allocator@D@2@@std@@@1@V?$tuple@$$V@1@@?$_Tree_temp_node@V?$allocator@U?$_Tree_node@U?$pair@$$CBV?$basic_string@DU?$char_traits@D@std@@V?$allocator@D@2@@std@@V?$vector@V?$basic_string@DU?$char_traits@D@std@@V?$allocator@D@2@@std@@V?$allocator@V?$basic_string@DU?$char_traits@D@std@@V?$allocator@D@2@@std@@@2@@2@@std@@PAX@std@@@std@@@std@@QAE@AAV?$allocator@U?$_Tree_node@U?$pair@$$CBV?$basic_string@DU?$char_traits@D@std@@V?$allocator@D@2@@std@@V?$vector@V?$basic_string@DU?$char_traits@D@std@@V?$allocator@D@2@@std@@V?$allocator@V?$basic_string@DU?$char_traits@D@std@@V?$allocator@D@2@@std@@@2@@2@@std@@PAX@std@@@1@PAU?$_Tree_node@U?$pair@$$CBV?$basic_string@DU?$char_traits@D@std@@V?$allocator@D@2@@std@@V?$vector@V?$basic_string@DU?$char_traits@D@std@@V?$allocator@D@2@@std@@V?$allocator@V?$basic_string@DU?$char_traits@D@std@@V?$allocator@D@2@@std@@@2@@2@@std@@PAX@1@ABUpiecewise_construct_t@1@$$QAV?$tuple@$$QAV?$basic_string@DU?$char_traits@D@std@@V?$allocator@D@2@@std@@@1@$$QAV?$tuple@$$V@1@@Z DD 019930522H
	DD	01H
	DD	FLAT:__unwindtable$??$?0ABUpiecewise_construct_t@std@@V?$tuple@$$QAV?$basic_string@DU?$char_traits@D@std@@V?$allocator@D@2@@std@@@1@V?$tuple@$$V@1@@?$_Tree_temp_node@V?$allocator@U?$_Tree_node@U?$pair@$$CBV?$basic_string@DU?$char_traits@D@std@@V?$allocator@D@2@@std@@V?$vector@V?$basic_string@DU?$char_traits@D@std@@V?$allocator@D@2@@std@@V?$allocator@V?$basic_string@DU?$char_traits@D@std@@V?$allocator@D@2@@std@@@2@@2@@std@@PAX@std@@@std@@@std@@QAE@AAV?$allocator@U?$_Tree_node@U?$pair@$$CBV?$basic_string@DU?$char_traits@D@std@@V?$allocator@D@2@@std@@V?$vector@V?$basic_string@DU?$char_traits@D@std@@V?$allocator@D@2@@std@@V?$allocator@V?$basic_string@DU?$char_traits@D@std@@V?$allocator@D@2@@std@@@2@@2@@std@@PAX@std@@@1@PAU?$_Tree_node@U?$pair@$$CBV?$basic_string@DU?$char_traits@D@std@@V?$allocator@D@2@@std@@V?$vector@V?$basic_string@DU?$char_traits@D@std@@V?$allocator@D@2@@std@@V?$allocator@V?$basic_string@DU?$char_traits@D@std@@V?$allocator@D@2@@std@@@2@@2@@std@@PAX@1@ABUpiecewise_construct_t@1@$$QAV?$tuple@$$QAV?$basic_string@DU?$char_traits@D@std@@V?$allocator@D@2@@std@@@1@$$QAV?$tuple@$$V@1@@Z
	DD	2 DUP(00H)
	DD	2 DUP(00H)
	DD	00H
	DD	01H
xdata$x	ENDS
;	COMDAT xdata$x
xdata$x	SEGMENT
__unwindtable$??0?$_Tree_temp_node_alloc@V?$allocator@U?$_Tree_node@U?$pair@$$CBV?$basic_string@DU?$char_traits@D@std@@V?$allocator@D@2@@std@@V?$vector@V?$basic_string@DU?$char_traits@D@std@@V?$allocator@D@2@@std@@V?$allocator@V?$basic_string@DU?$char_traits@D@std@@V?$allocator@D@2@@std@@@2@@2@@std@@PAX@std@@@std@@@std@@QAE@AAV?$allocator@U?$_Tree_node@U?$pair@$$CBV?$basic_string@DU?$char_traits@D@std@@V?$allocator@D@2@@std@@V?$vector@V?$basic_string@DU?$char_traits@D@std@@V?$allocator@D@2@@std@@V?$allocator@V?$basic_string@DU?$char_traits@D@std@@V?$allocator@D@2@@std@@@2@@2@@std@@PAX@std@@@1@@Z DD 0ffffffffH
	DD	FLAT:__unwindfunclet$??0?$_Tree_temp_node_alloc@V?$allocator@U?$_Tree_node@U?$pair@$$CBV?$basic_string@DU?$char_traits@D@std@@V?$allocator@D@2@@std@@V?$vector@V?$basic_string@DU?$char_traits@D@std@@V?$allocator@D@2@@std@@V?$allocator@V?$basic_string@DU?$char_traits@D@std@@V?$allocator@D@2@@std@@@2@@2@@std@@PAX@std@@@std@@@std@@QAE@AAV?$allocator@U?$_Tree_node@U?$pair@$$CBV?$basic_string@DU?$char_traits@D@std@@V?$allocator@D@2@@std@@V?$vector@V?$basic_string@DU?$char_traits@D@std@@V?$allocator@D@2@@std@@V?$allocator@V?$basic_string@DU?$char_traits@D@std@@V?$allocator@D@2@@std@@@2@@2@@std@@PAX@std@@@1@@Z$0
__ehfuncinfo$??0?$_Tree_temp_node_alloc@V?$allocator@U?$_Tree_node@U?$pair@$$CBV?$basic_string@DU?$char_traits@D@std@@V?$allocator@D@2@@std@@V?$vector@V?$basic_string@DU?$char_traits@D@std@@V?$allocator@D@2@@std@@V?$allocator@V?$basic_string@DU?$char_traits@D@std@@V?$allocator@D@2@@std@@@2@@2@@std@@PAX@std@@@std@@@std@@QAE@AAV?$allocator@U?$_Tree_node@U?$pair@$$CBV?$basic_string@DU?$char_traits@D@std@@V?$allocator@D@2@@std@@V?$vector@V?$basic_string@DU?$char_traits@D@std@@V?$allocator@D@2@@std@@V?$allocator@V?$basic_string@DU?$char_traits@D@std@@V?$allocator@D@2@@std@@@2@@2@@std@@PAX@std@@@1@@Z DD 019930522H
	DD	01H
	DD	FLAT:__unwindtable$??0?$_Tree_temp_node_alloc@V?$allocator@U?$_Tree_node@U?$pair@$$CBV?$basic_string@DU?$char_traits@D@std@@V?$allocator@D@2@@std@@V?$vector@V?$basic_string@DU?$char_traits@D@std@@V?$allocator@D@2@@std@@V?$allocator@V?$basic_string@DU?$char_traits@D@std@@V?$allocator@D@2@@std@@@2@@2@@std@@PAX@std@@@std@@@std@@QAE@AAV?$allocator@U?$_Tree_node@U?$pair@$$CBV?$basic_string@DU?$char_traits@D@std@@V?$allocator@D@2@@std@@V?$vector@V?$basic_string@DU?$char_traits@D@std@@V?$allocator@D@2@@std@@V?$allocator@V?$basic_string@DU?$char_traits@D@std@@V?$allocator@D@2@@std@@@2@@2@@std@@PAX@std@@@1@@Z
	DD	2 DUP(00H)
	DD	2 DUP(00H)
	DD	00H
	DD	01H
xdata$x	ENDS
;	COMDAT xdata$x
xdata$x	SEGMENT
__unwindtable$??$_Uninitialized_copy@PAUSTerrainTexture@@PAU1@V?$allocator@USTerrainTexture@@@std@@@std@@YAPAUSTerrainTexture@@PAU1@00AAV?$allocator@USTerrainTexture@@@0@@Z DD 0ffffffffH
	DD	FLAT:__unwindfunclet$??$_Uninitialized_copy@PAUSTerrainTexture@@PAU1@V?$allocator@USTerrainTexture@@@std@@@std@@YAPAUSTerrainTexture@@PAU1@00AAV?$allocator@USTerrainTexture@@@0@@Z$0
__ehfuncinfo$??$_Uninitialized_copy@PAUSTerrainTexture@@PAU1@V?$allocator@USTerrainTexture@@@std@@@std@@YAPAUSTerrainTexture@@PAU1@00AAV?$allocator@USTerrainTexture@@@0@@Z DD 019930522H
	DD	01H
	DD	FLAT:__unwindtable$??$_Uninitialized_copy@PAUSTerrainTexture@@PAU1@V?$allocator@USTerrainTexture@@@std@@@std@@YAPAUSTerrainTexture@@PAU1@00AAV?$allocator@USTerrainTexture@@@0@@Z
	DD	2 DUP(00H)
	DD	2 DUP(00H)
	DD	00H
	DD	01H
xdata$x	ENDS
;	COMDAT xdata$x
xdata$x	SEGMENT
__unwindtable$??$_Try_emplace@V?$basic_string@DU?$char_traits@D@std@@V?$allocator@D@2@@std@@$$V@?$map@V?$basic_string@DU?$char_traits@D@std@@V?$allocator@D@2@@std@@V?$vector@V?$basic_string@DU?$char_traits@D@std@@V?$allocator@D@2@@std@@V?$allocator@V?$basic_string@DU?$char_traits@D@std@@V?$allocator@D@2@@std@@@2@@2@U?$less@V?$basic_string@DU?$char_traits@D@std@@V?$allocator@D@2@@std@@@2@V?$allocator@U?$pair@$$CBV?$basic_string@DU?$char_traits@D@std@@V?$allocator@D@2@@std@@V?$vector@V?$basic_string@DU?$char_traits@D@std@@V?$allocator@D@2@@std@@V?$allocator@V?$basic_string@DU?$char_traits@D@std@@V?$allocator@D@2@@std@@@2@@2@@std@@@2@@std@@AAE?AU?$pair@PAU?$_Tree_node@U?$pair@$$CBV?$basic_string@DU?$char_traits@D@std@@V?$allocator@D@2@@std@@V?$vector@V?$basic_string@DU?$char_traits@D@std@@V?$allocator@D@2@@std@@V?$allocator@V?$basic_string@DU?$char_traits@D@std@@V?$allocator@D@2@@std@@@2@@2@@std@@PAX@std@@_N@1@$$QAV?$basic_string@DU?$char_traits@D@std@@V?$allocator@D@2@@1@@Z DD 0ffffffffH
	DD	FLAT:__unwindfunclet$??$_Try_emplace@V?$basic_string@DU?$char_traits@D@std@@V?$allocator@D@2@@std@@$$V@?$map@V?$basic_string@DU?$char_traits@D@std@@V?$allocator@D@2@@std@@V?$vector@V?$basic_string@DU?$char_traits@D@std@@V?$allocator@D@2@@std@@V?$allocator@V?$basic_string@DU?$char_traits@D@std@@V?$allocator@D@2@@std@@@2@@2@U?$less@V?$basic_string@DU?$char_traits@D@std@@V?$allocator@D@2@@std@@@2@V?$allocator@U?$pair@$$CBV?$basic_string@DU?$char_traits@D@std@@V?$allocator@D@2@@std@@V?$vector@V?$basic_string@DU?$char_traits@D@std@@V?$allocator@D@2@@std@@V?$allocator@V?$basic_string@DU?$char_traits@D@std@@V?$allocator@D@2@@std@@@2@@2@@std@@@2@@std@@AAE?AU?$pair@PAU?$_Tree_node@U?$pair@$$CBV?$basic_string@DU?$char_traits@D@std@@V?$allocator@D@2@@std@@V?$vector@V?$basic_string@DU?$char_traits@D@std@@V?$allocator@D@2@@std@@V?$allocator@V?$basic_string@DU?$char_traits@D@std@@V?$allocator@D@2@@std@@@2@@2@@std@@PAX@std@@_N@1@$$QAV?$basic_string@DU?$char_traits@D@std@@V?$allocator@D@2@@1@@Z$2
__ehfuncinfo$??$_Try_emplace@V?$basic_string@DU?$char_traits@D@std@@V?$allocator@D@2@@std@@$$V@?$map@V?$basic_string@DU?$char_traits@D@std@@V?$allocator@D@2@@std@@V?$vector@V?$basic_string@DU?$char_traits@D@std@@V?$allocator@D@2@@std@@V?$allocator@V?$basic_string@DU?$char_traits@D@std@@V?$allocator@D@2@@std@@@2@@2@U?$less@V?$basic_string@DU?$char_traits@D@std@@V?$allocator@D@2@@std@@@2@V?$allocator@U?$pair@$$CBV?$basic_string@DU?$char_traits@D@std@@V?$allocator@D@2@@std@@V?$vector@V?$basic_string@DU?$char_traits@D@std@@V?$allocator@D@2@@std@@V?$allocator@V?$basic_string@DU?$char_traits@D@std@@V?$allocator@D@2@@std@@@2@@2@@std@@@2@@std@@AAE?AU?$pair@PAU?$_Tree_node@U?$pair@$$CBV?$basic_string@DU?$char_traits@D@std@@V?$allocator@D@2@@std@@V?$vector@V?$basic_string@DU?$char_traits@D@std@@V?$allocator@D@2@@std@@V?$allocator@V?$basic_string@DU?$char_traits@D@std@@V?$allocator@D@2@@std@@@2@@2@@std@@PAX@std@@_N@1@$$QAV?$basic_string@DU?$char_traits@D@std@@V?$allocator@D@2@@1@@Z DD 019930522H
	DD	01H
	DD	FLAT:__unwindtable$??$_Try_emplace@V?$basic_string@DU?$char_traits@D@std@@V?$allocator@D@2@@std@@$$V@?$map@V?$basic_string@DU?$char_traits@D@std@@V?$allocator@D@2@@std@@V?$vector@V?$basic_string@DU?$char_traits@D@std@@V?$allocator@D@2@@std@@V?$allocator@V?$basic_string@DU?$char_traits@D@std@@V?$allocator@D@2@@std@@@2@@2@U?$less@V?$basic_string@DU?$char_traits@D@std@@V?$allocator@D@2@@std@@@2@V?$allocator@U?$pair@$$CBV?$basic_string@DU?$char_traits@D@std@@V?$allocator@D@2@@std@@V?$vector@V?$basic_string@DU?$char_traits@D@std@@V?$allocator@D@2@@std@@V?$allocator@V?$basic_string@DU?$char_traits@D@std@@V?$allocator@D@2@@std@@@2@@2@@std@@@2@@std@@AAE?AU?$pair@PAU?$_Tree_node@U?$pair@$$CBV?$basic_string@DU?$char_traits@D@std@@V?$allocator@D@2@@std@@V?$vector@V?$basic_string@DU?$char_traits@D@std@@V?$allocator@D@2@@std@@V?$allocator@V?$basic_string@DU?$char_traits@D@std@@V?$allocator@D@2@@std@@@2@@2@@std@@PAX@std@@_N@1@$$QAV?$basic_string@DU?$char_traits@D@std@@V?$allocator@D@2@@1@@Z
	DD	2 DUP(00H)
	DD	2 DUP(00H)
	DD	00H
	DD	01H
xdata$x	ENDS
;	COMDAT xdata$x
xdata$x	SEGMENT
__unwindtable$??A?$map@V?$basic_string@DU?$char_traits@D@std@@V?$allocator@D@2@@std@@V?$vector@V?$basic_string@DU?$char_traits@D@std@@V?$allocator@D@2@@std@@V?$allocator@V?$basic_string@DU?$char_traits@D@std@@V?$allocator@D@2@@std@@@2@@2@U?$less@V?$basic_string@DU?$char_traits@D@std@@V?$allocator@D@2@@std@@@2@V?$allocator@U?$pair@$$CBV?$basic_string@DU?$char_traits@D@std@@V?$allocator@D@2@@std@@V?$vector@V?$basic_string@DU?$char_traits@D@std@@V?$allocator@D@2@@std@@V?$allocator@V?$basic_string@DU?$char_traits@D@std@@V?$allocator@D@2@@std@@@2@@2@@std@@@2@@std@@QAEAAV?$vector@V?$basic_string@DU?$char_traits@D@std@@V?$allocator@D@2@@std@@V?$allocator@V?$basic_string@DU?$char_traits@D@std@@V?$allocator@D@2@@std@@@2@@1@$$QAV?$basic_string@DU?$char_traits@D@std@@V?$allocator@D@2@@1@@Z DD 0ffffffffH
	DD	FLAT:__unwindfunclet$??A?$map@V?$basic_string@DU?$char_traits@D@std@@V?$allocator@D@2@@std@@V?$vector@V?$basic_string@DU?$char_traits@D@std@@V?$allocator@D@2@@std@@V?$allocator@V?$basic_string@DU?$char_traits@D@std@@V?$allocator@D@2@@std@@@2@@2@U?$less@V?$basic_string@DU?$char_traits@D@std@@V?$allocator@D@2@@std@@@2@V?$allocator@U?$pair@$$CBV?$basic_string@DU?$char_traits@D@std@@V?$allocator@D@2@@std@@V?$vector@V?$basic_string@DU?$char_traits@D@std@@V?$allocator@D@2@@std@@V?$allocator@V?$basic_string@DU?$char_traits@D@std@@V?$allocator@D@2@@std@@@2@@2@@std@@@2@@std@@QAEAAV?$vector@V?$basic_string@DU?$char_traits@D@std@@V?$allocator@D@2@@std@@V?$allocator@V?$basic_string@DU?$char_traits@D@std@@V?$allocator@D@2@@std@@@2@@1@$$QAV?$basic_string@DU?$char_traits@D@std@@V?$allocator@D@2@@1@@Z$2
__ehfuncinfo$??A?$map@V?$basic_string@DU?$char_traits@D@std@@V?$allocator@D@2@@std@@V?$vector@V?$basic_string@DU?$char_traits@D@std@@V?$allocator@D@2@@std@@V?$allocator@V?$basic_string@DU?$char_traits@D@std@@V?$allocator@D@2@@std@@@2@@2@U?$less@V?$basic_string@DU?$char_traits@D@std@@V?$allocator@D@2@@std@@@2@V?$allocator@U?$pair@$$CBV?$basic_string@DU?$char_traits@D@std@@V?$allocator@D@2@@std@@V?$vector@V?$basic_string@DU?$char_traits@D@std@@V?$allocator@D@2@@std@@V?$allocator@V?$basic_string@DU?$char_traits@D@std@@V?$allocator@D@2@@std@@@2@@2@@std@@@2@@std@@QAEAAV?$vector@V?$basic_string@DU?$char_traits@D@std@@V?$allocator@D@2@@std@@V?$allocator@V?$basic_string@DU?$char_traits@D@std@@V?$allocator@D@2@@std@@@2@@1@$$QAV?$basic_string@DU?$char_traits@D@std@@V?$allocator@D@2@@1@@Z DD 019930522H
	DD	01H
	DD	FLAT:__unwindtable$??A?$map@V?$basic_string@DU?$char_traits@D@std@@V?$allocator@D@2@@std@@V?$vector@V?$basic_string@DU?$char_traits@D@std@@V?$allocator@D@2@@std@@V?$allocator@V?$basic_string@DU?$char_traits@D@std@@V?$allocator@D@2@@std@@@2@@2@U?$less@V?$basic_string@DU?$char_traits@D@std@@V?$allocator@D@2@@std@@@2@V?$allocator@U?$pair@$$CBV?$basic_string@DU?$char_traits@D@std@@V?$allocator@D@2@@std@@V?$vector@V?$basic_string@DU?$char_traits@D@std@@V?$allocator@D@2@@std@@V?$allocator@V?$basic_string@DU?$char_traits@D@std@@V?$allocator@D@2@@std@@@2@@2@@std@@@2@@std@@QAEAAV?$vector@V?$basic_string@DU?$char_traits@D@std@@V?$allocator@D@2@@std@@V?$allocator@V?$basic_string@DU?$char_traits@D@std@@V?$allocator@D@2@@std@@@2@@1@$$QAV?$basic_string@DU?$char_traits@D@std@@V?$allocator@D@2@@1@@Z
	DD	2 DUP(00H)
	DD	2 DUP(00H)
	DD	00H
	DD	01H
xdata$x	ENDS
;	COMDAT xdata$x
xdata$x	SEGMENT
__catchsym$?_Reallocate_exactly@?$vector@USTerrainTexture@@V?$allocator@USTerrainTexture@@@std@@@std@@AAEXI@Z$2 DD 040H
	DD	00H
	DD	00H
	DD	FLAT:__catch$?_Reallocate_exactly@?$vector@USTerrainTexture@@V?$allocator@USTerrainTexture@@@std@@@std@@AAEXI@Z$0
__unwindtable$?_Reallocate_exactly@?$vector@USTerrainTexture@@V?$allocator@USTerrainTexture@@@std@@@std@@AAEXI@Z DD 0ffffffffH
	DD	00H
	DD	0ffffffffH
	DD	00H
__tryblocktable$?_Reallocate_exactly@?$vector@USTerrainTexture@@V?$allocator@USTerrainTexture@@@std@@@std@@AAEXI@Z DD 00H
	DD	00H
	DD	01H
	DD	01H
	DD	FLAT:__catchsym$?_Reallocate_exactly@?$vector@USTerrainTexture@@V?$allocator@USTerrainTexture@@@std@@@std@@AAEXI@Z$2
__ehfuncinfo$?_Reallocate_exactly@?$vector@USTerrainTexture@@V?$allocator@USTerrainTexture@@@std@@@std@@AAEXI@Z DD 019930522H
	DD	02H
	DD	FLAT:__unwindtable$?_Reallocate_exactly@?$vector@USTerrainTexture@@V?$allocator@USTerrainTexture@@@std@@@std@@AAEXI@Z
	DD	01H
	DD	FLAT:__tryblocktable$?_Reallocate_exactly@?$vector@USTerrainTexture@@V?$allocator@USTerrainTexture@@@std@@@std@@AAEXI@Z
	DD	2 DUP(00H)
	DD	00H
	DD	01H
xdata$x	ENDS
;	COMDAT xdata$x
xdata$x	SEGMENT
__unwindtable$?AddEmptyTexture@CTextureSet@@IAEXXZ DD 0ffffffffH
	DD	FLAT:__unwindfunclet$?AddEmptyTexture@CTextureSet@@IAEXXZ$0
__ehfuncinfo$?AddEmptyTexture@CTextureSet@@IAEXXZ DD 019930522H
	DD	01H
	DD	FLAT:__unwindtable$?AddEmptyTexture@CTextureSet@@IAEXXZ
	DD	2 DUP(00H)
	DD	2 DUP(00H)
	DD	00H
	DD	01H
xdata$x	ENDS
;	COMDAT xdata$x
xdata$x	SEGMENT
__ehfuncinfo$?Load@CTextureSet@@QAE_NPBDM@Z DD 019930522H
	DD	0dH
	DD	FLAT:__unwindtable$?Load@CTextureSet@@QAE_NPBDM@Z
	DD	2 DUP(00H)
	DD	2 DUP(00H)
	DD	00H
	DD	01H
__unwindtable$?Load@CTextureSet@@QAE_NPBDM@Z DD 0ffffffffH
	DD	FLAT:__unwindfunclet$?Load@CTextureSet@@QAE_NPBDM@Z$0
	DD	00H
	DD	FLAT:__unwindfunclet$?Load@CTextureSet@@QAE_NPBDM@Z$3
	DD	01H
	DD	FLAT:__unwindfunclet$?Load@CTextureSet@@QAE_NPBDM@Z$63
	DD	00H
	DD	FLAT:__unwindfunclet$?Load@CTextureSet@@QAE_NPBDM@Z$5
	DD	03H
	DD	FLAT:__unwindfunclet$?Load@CTextureSet@@QAE_NPBDM@Z$34
	DD	00H
	DD	FLAT:__unwindfunclet$?Load@CTextureSet@@QAE_NPBDM@Z$6
	DD	05H
	DD	FLAT:__unwindfunclet$?Load@CTextureSet@@QAE_NPBDM@Z$7
	DD	06H
	DD	FLAT:__unwindfunclet$?Load@CTextureSet@@QAE_NPBDM@Z$8
	DD	07H
	DD	FLAT:__unwindfunclet$?Load@CTextureSet@@QAE_NPBDM@Z$9
	DD	08H
	DD	FLAT:__unwindfunclet$?Load@CTextureSet@@QAE_NPBDM@Z$10
	DD	09H
	DD	FLAT:__unwindfunclet$?Load@CTextureSet@@QAE_NPBDM@Z$11
	DD	0aH
	DD	FLAT:__unwindfunclet$?Load@CTextureSet@@QAE_NPBDM@Z$12
	DD	0bH
	DD	FLAT:__unwindfunclet$?Load@CTextureSet@@QAE_NPBDM@Z$13
xdata$x	ENDS
;	COMDAT xdata$x
xdata$x	SEGMENT
__ehfuncinfo$??1CTextureSet@@UAE@XZ DD 019930522H
	DD	00H
	DD	00H
	DD	2 DUP(00H)
	DD	2 DUP(00H)
	DD	00H
	DD	05H
xdata$x	ENDS
;	COMDAT xdata$x
xdata$x	SEGMENT
__unwindtable$??0CTextureSet@@QAE@XZ DD 0ffffffffH
	DD	FLAT:__unwindfunclet$??0CTextureSet@@QAE@XZ$0
__ehfuncinfo$??0CTextureSet@@QAE@XZ DD 019930522H
	DD	01H
	DD	FLAT:__unwindtable$??0CTextureSet@@QAE@XZ
	DD	2 DUP(00H)
	DD	2 DUP(00H)
	DD	00H
	DD	01H
xdata$x	ENDS
;	COMDAT xdata$x
xdata$x	SEGMENT
__unwindtable$??0STerrainTexture@@QAE@ABU0@@Z DD 0ffffffffH
	DD	FLAT:__unwindfunclet$??0STerrainTexture@@QAE@ABU0@@Z$0
__ehfuncinfo$??0STerrainTexture@@QAE@ABU0@@Z DD 019930522H
	DD	01H
	DD	FLAT:__unwindtable$??0STerrainTexture@@QAE@ABU0@@Z
	DD	2 DUP(00H)
	DD	2 DUP(00H)
	DD	00H
	DD	01H
xdata$x	ENDS
;	COMDAT xdata$x
xdata$x	SEGMENT
__unwindtable$??0STerrainTexture@@QAE@XZ DD 0ffffffffH
	DD	FLAT:__unwindfunclet$??0STerrainTexture@@QAE@XZ$0
__ehfuncinfo$??0STerrainTexture@@QAE@XZ DD 019930522H
	DD	01H
	DD	FLAT:__unwindtable$??0STerrainTexture@@QAE@XZ
	DD	2 DUP(00H)
	DD	2 DUP(00H)
	DD	00H
	DD	01H
xdata$x	ENDS
;	COMDAT xdata$x
xdata$x	SEGMENT
__ehfuncinfo$??1?$CRef@VCGraphicImage@@@@QAE@XZ DD 019930522H
	DD	00H
	DD	00H
	DD	2 DUP(00H)
	DD	2 DUP(00H)
	DD	00H
	DD	05H
xdata$x	ENDS
; Function compile flags: /Ogtp
; File C:\Program Files\Microsoft Visual Studio\2022\Community\VC\Tools\MSVC\14.34.31933\include\xmemory
;	COMDAT ??$_Uninitialized_move@PAUSTerrainTexture@@V?$allocator@USTerrainTexture@@@std@@@std@@YAPAUSTerrainTexture@@QAU1@0PAU1@AAV?$allocator@USTerrainTexture@@@0@@Z
_TEXT	SEGMENT
__Backout$ = -24					; size = 12
__$EHRec$ = -12						; size = 12
__First$ = 8						; size = 4
__Last$ = 12						; size = 4
__Dest$ = 16						; size = 4
__Al$ = 20						; size = 4
??$_Uninitialized_move@PAUSTerrainTexture@@V?$allocator@USTerrainTexture@@@std@@@std@@YAPAUSTerrainTexture@@QAU1@0PAU1@AAV?$allocator@USTerrainTexture@@@0@@Z PROC ; std::_Uninitialized_move<STerrainTexture *,std::allocator<STerrainTexture> >, COMDAT

; 1788 :     const _InIt _First, const _InIt _Last, _Alloc_ptr_t<_Alloc> _Dest, _Alloc& _Al) {

  00000	55		 push	 ebp
  00001	8b ec		 mov	 ebp, esp
  00003	6a ff		 push	 -1
  00005	68 00 00 00 00	 push	 __ehhandler$??$_Uninitialized_move@PAUSTerrainTexture@@V?$allocator@USTerrainTexture@@@std@@@std@@YAPAUSTerrainTexture@@QAU1@0PAU1@AAV?$allocator@USTerrainTexture@@@0@@Z
  0000a	64 a1 00 00 00
	00		 mov	 eax, DWORD PTR fs:0
  00010	50		 push	 eax
  00011	83 ec 0c	 sub	 esp, 12			; 0000000cH
  00014	53		 push	 ebx
  00015	56		 push	 esi
  00016	57		 push	 edi
  00017	a1 00 00 00 00	 mov	 eax, DWORD PTR ___security_cookie
  0001c	33 c5		 xor	 eax, ebp
  0001e	50		 push	 eax
  0001f	8d 45 f4	 lea	 eax, DWORD PTR __$EHRec$[ebp]
  00022	64 a3 00 00 00
	00		 mov	 DWORD PTR fs:0, eax

; 1652 :     _CONSTEXPR20 _Uninitialized_backout_al(pointer _Dest, _Alloc& _Al_) : _First(_Dest), _Last(_Dest), _Al(_Al_) {}

  00028	8b 7d 10	 mov	 edi, DWORD PTR __Dest$[ebp]
  0002b	8b 45 14	 mov	 eax, DWORD PTR __Al$[ebp]

; 1789 :     // move [_First, _Last) to raw _Dest, using _Al
; 1790 :     // note: only called internally from elsewhere in the STL
; 1791 :     using _Ptrval     = typename _Alloc::value_type*;
; 1792 :     auto _UFirst      = _Get_unwrapped(_First);

  0002e	8b 75 08	 mov	 esi, DWORD PTR __First$[ebp]

; 1652 :     _CONSTEXPR20 _Uninitialized_backout_al(pointer _Dest, _Alloc& _Al_) : _First(_Dest), _Last(_Dest), _Al(_Al_) {}

  00031	89 7d e8	 mov	 DWORD PTR __Backout$[ebp], edi
  00034	89 7d ec	 mov	 DWORD PTR __Backout$[ebp+4], edi
  00037	89 45 f0	 mov	 DWORD PTR __Backout$[ebp+8], eax

; 1793 :     const auto _ULast = _Get_unwrapped(_Last);
; 1794 :     if constexpr (conjunction_v<bool_constant<_Iter_move_cat<decltype(_UFirst), _Ptrval>::_Bitcopy_constructible>,
; 1795 :                       _Uses_default_construct<_Alloc, _Ptrval, decltype(_STD move(*_UFirst))>>) {
; 1796 : #if _HAS_CXX20
; 1797 :         if (!_STD is_constant_evaluated())
; 1798 : #endif // _HAS_CXX20
; 1799 :         {
; 1800 :             _Copy_memmove(_UFirst, _ULast, _Unfancy(_Dest));
; 1801 :             return _Dest + (_ULast - _UFirst);
; 1802 :         }
; 1803 :     }
; 1804 : 
; 1805 :     _Uninitialized_backout_al<_Alloc> _Backout{_Dest, _Al};
; 1806 :     for (; _UFirst != _ULast; ++_UFirst) {

  0003a	8b 5d 0c	 mov	 ebx, DWORD PTR __Last$[ebp]
  0003d	c7 45 fc 00 00
	00 00		 mov	 DWORD PTR __$EHRec$[ebp+8], 0
  00044	3b f3		 cmp	 esi, ebx
  00046	74 1e		 je	 SHORT $LN3@Uninitiali
$LL4@Uninitiali:

; 680  :             ::new (_Voidify_iter(_Ptr)) _Objty(_STD forward<_Types>(_Args)...);

  00048	56		 push	 esi
  00049	8b cf		 mov	 ecx, edi
  0004b	e8 00 00 00 00	 call	 ??0STerrainTexture@@QAE@ABU0@@Z

; 1664 :         ++_Last;

  00050	81 c7 9c 00 00
	00		 add	 edi, 156		; 0000009cH

; 1793 :     const auto _ULast = _Get_unwrapped(_Last);
; 1794 :     if constexpr (conjunction_v<bool_constant<_Iter_move_cat<decltype(_UFirst), _Ptrval>::_Bitcopy_constructible>,
; 1795 :                       _Uses_default_construct<_Alloc, _Ptrval, decltype(_STD move(*_UFirst))>>) {
; 1796 : #if _HAS_CXX20
; 1797 :         if (!_STD is_constant_evaluated())
; 1798 : #endif // _HAS_CXX20
; 1799 :         {
; 1800 :             _Copy_memmove(_UFirst, _ULast, _Unfancy(_Dest));
; 1801 :             return _Dest + (_ULast - _UFirst);
; 1802 :         }
; 1803 :     }
; 1804 : 
; 1805 :     _Uninitialized_backout_al<_Alloc> _Backout{_Dest, _Al};
; 1806 :     for (; _UFirst != _ULast; ++_UFirst) {

  00056	81 c6 9c 00 00
	00		 add	 esi, 156		; 0000009cH

; 1664 :         ++_Last;

  0005c	89 7d ec	 mov	 DWORD PTR __Backout$[ebp+4], edi

; 1793 :     const auto _ULast = _Get_unwrapped(_Last);
; 1794 :     if constexpr (conjunction_v<bool_constant<_Iter_move_cat<decltype(_UFirst), _Ptrval>::_Bitcopy_constructible>,
; 1795 :                       _Uses_default_construct<_Alloc, _Ptrval, decltype(_STD move(*_UFirst))>>) {
; 1796 : #if _HAS_CXX20
; 1797 :         if (!_STD is_constant_evaluated())
; 1798 : #endif // _HAS_CXX20
; 1799 :         {
; 1800 :             _Copy_memmove(_UFirst, _ULast, _Unfancy(_Dest));
; 1801 :             return _Dest + (_ULast - _UFirst);
; 1802 :         }
; 1803 :     }
; 1804 : 
; 1805 :     _Uninitialized_backout_al<_Alloc> _Backout{_Dest, _Al};
; 1806 :     for (; _UFirst != _ULast; ++_UFirst) {

  0005f	3b f3		 cmp	 esi, ebx
  00061	75 e5		 jne	 SHORT $LL4@Uninitiali
  00063	8b 45 14	 mov	 eax, DWORD PTR __Al$[ebp]
$LN3@Uninitiali:

; 1658 :         _Destroy_range(_First, _Last, _Al);

  00066	50		 push	 eax
  00067	57		 push	 edi
  00068	57		 push	 edi
  00069	e8 00 00 00 00	 call	 ??$_Destroy_range@V?$allocator@USTerrainTexture@@@std@@@std@@YAXPAUSTerrainTexture@@QAU1@AAV?$allocator@USTerrainTexture@@@0@@Z ; std::_Destroy_range<std::allocator<STerrainTexture> >
  0006e	83 c4 0c	 add	 esp, 12			; 0000000cH

; 1807 :         _Backout._Emplace_back(_STD move(*_UFirst));
; 1808 :     }
; 1809 : 
; 1810 :     return _Backout._Release();

  00071	8b c7		 mov	 eax, edi

; 1811 : }

  00073	8b 4d f4	 mov	 ecx, DWORD PTR __$EHRec$[ebp]
  00076	64 89 0d 00 00
	00 00		 mov	 DWORD PTR fs:0, ecx
  0007d	59		 pop	 ecx
  0007e	5f		 pop	 edi
  0007f	5e		 pop	 esi
  00080	5b		 pop	 ebx
  00081	8b e5		 mov	 esp, ebp
  00083	5d		 pop	 ebp
  00084	c3		 ret	 0
_TEXT	ENDS
;	COMDAT text$x
text$x	SEGMENT
__unwindfunclet$??$_Uninitialized_move@PAUSTerrainTexture@@V?$allocator@USTerrainTexture@@@std@@@std@@YAPAUSTerrainTexture@@QAU1@0PAU1@AAV?$allocator@USTerrainTexture@@@0@@Z$0:
  00000	8d 4d e8	 lea	 ecx, DWORD PTR __Backout$[ebp]
  00003	e9 00 00 00 00	 jmp	 ??1?$_Uninitialized_backout_al@V?$allocator@USTerrainTexture@@@std@@@std@@QAE@XZ ; std::_Uninitialized_backout_al<std::allocator<STerrainTexture> >::~_Uninitialized_backout_al<std::allocator<STerrainTexture> >
  00008	cc		 int	 3
  00009	cc		 int	 3
  0000a	cc		 int	 3
  0000b	cc		 int	 3
  0000c	cc		 int	 3
__ehhandler$??$_Uninitialized_move@PAUSTerrainTexture@@V?$allocator@USTerrainTexture@@@std@@@std@@YAPAUSTerrainTexture@@QAU1@0PAU1@AAV?$allocator@USTerrainTexture@@@0@@Z:
  0000d	90		 npad	 1
  0000e	90		 npad	 1
  0000f	8b 54 24 08	 mov	 edx, DWORD PTR [esp+8]
  00013	8d 42 0c	 lea	 eax, DWORD PTR [edx+12]
  00016	8b 4a e4	 mov	 ecx, DWORD PTR [edx-28]
  00019	33 c8		 xor	 ecx, eax
  0001b	e8 00 00 00 00	 call	 @__security_check_cookie@4
  00020	b8 00 00 00 00	 mov	 eax, OFFSET __ehfuncinfo$??$_Uninitialized_move@PAUSTerrainTexture@@V?$allocator@USTerrainTexture@@@std@@@std@@YAPAUSTerrainTexture@@QAU1@0PAU1@AAV?$allocator@USTerrainTexture@@@0@@Z
  00025	e9 00 00 00 00	 jmp	 ___CxxFrameHandler3
text$x	ENDS
??$_Uninitialized_move@PAUSTerrainTexture@@V?$allocator@USTerrainTexture@@@std@@@std@@YAPAUSTerrainTexture@@QAU1@0PAU1@AAV?$allocator@USTerrainTexture@@@0@@Z ENDP ; std::_Uninitialized_move<STerrainTexture *,std::allocator<STerrainTexture> >
; Function compile flags: /Ogtp
; File C:\Program Files\Microsoft Visual Studio\2022\Community\VC\Tools\MSVC\14.34.31933\include\xstring
;	COMDAT ??$?MDU?$char_traits@D@std@@V?$allocator@D@1@@std@@YA_NABV?$basic_string@DU?$char_traits@D@std@@V?$allocator@D@2@@0@0@Z
_TEXT	SEGMENT
__Left$ = 8						; size = 4
__Right$ = 12						; size = 4
??$?MDU?$char_traits@D@std@@V?$allocator@D@1@@std@@YA_NABV?$basic_string@DU?$char_traits@D@std@@V?$allocator@D@2@@0@0@Z PROC ; std::operator<<char,std::char_traits<char>,std::allocator<char> >, COMDAT

; 5234 :     const basic_string<_Elem, _Traits, _Alloc>& _Left, const basic_string<_Elem, _Traits, _Alloc>& _Right) noexcept {

  00000	55		 push	 ebp
  00001	8b ec		 mov	 ebp, esp

; 2292 :         const value_type* _Result = _Bx._Buf;

  00003	8b 45 0c	 mov	 eax, DWORD PTR __Right$[ebp]
  00006	8b d0		 mov	 edx, eax

; 2301 :         return _BUF_SIZE <= _Myres;

  00008	83 78 14 10	 cmp	 DWORD PTR [eax+20], 16	; 00000010H

; 2293 :         if (_Large_string_engaged()) {

  0000c	72 02		 jb	 SHORT $LN6@operator

; 2294 :             _Result = _Unfancy(_Bx._Ptr);

  0000e	8b 10		 mov	 edx, DWORD PTR [eax]
$LN6@operator:

; 2292 :         const value_type* _Result = _Bx._Buf;

  00010	8b 4d 08	 mov	 ecx, DWORD PTR __Left$[ebp]
  00013	56		 push	 esi
  00014	8b f1		 mov	 esi, ecx

; 2301 :         return _BUF_SIZE <= _Myres;

  00016	83 79 14 10	 cmp	 DWORD PTR [ecx+20], 16	; 00000010H

; 2293 :         if (_Large_string_engaged()) {

  0001a	72 02		 jb	 SHORT $LN11@operator

; 2294 :             _Result = _Unfancy(_Bx._Ptr);

  0001c	8b 31		 mov	 esi, DWORD PTR [ecx]
$LN11@operator:

; 4795 :         return _Traits_compare<_Traits>(_Mypair._Myval2._Myptr(), _Mypair._Myval2._Mysize,

  0001e	ff 70 10	 push	 DWORD PTR [eax+16]
  00021	52		 push	 edx
  00022	ff 71 10	 push	 DWORD PTR [ecx+16]
  00025	56		 push	 esi
  00026	e8 00 00 00 00	 call	 ??$_Traits_compare@U?$char_traits@D@std@@@std@@YAHQBDI0I@Z ; std::_Traits_compare<std::char_traits<char> >
  0002b	83 c4 10	 add	 esp, 16			; 00000010H

; 5235 :     return _Left.compare(_Right) < 0;

  0002e	c1 e8 1f	 shr	 eax, 31			; 0000001fH
  00031	5e		 pop	 esi

; 5236 : }

  00032	5d		 pop	 ebp
  00033	c3		 ret	 0
??$?MDU?$char_traits@D@std@@V?$allocator@D@1@@std@@YA_NABV?$basic_string@DU?$char_traits@D@std@@V?$allocator@D@2@@0@0@Z ENDP ; std::operator<<char,std::char_traits<char>,std::allocator<char> >
_TEXT	ENDS
; Function compile flags: /Ogtp
; File C:\Program Files\Microsoft Visual Studio\2022\Community\VC\Tools\MSVC\14.34.31933\include\xmemory
; File C:\Program Files\Microsoft Visual Studio\2022\Community\VC\Tools\MSVC\14.34.31933\include\xstring
; File C:\Program Files\Microsoft Visual Studio\2022\Community\VC\Tools\MSVC\14.34.31933\include\xmemory
; File C:\Program Files\Microsoft Visual Studio\2022\Community\VC\Tools\MSVC\14.34.31933\include\xstring
; File C:\Program Files\Microsoft Visual Studio\2022\Community\VC\Tools\MSVC\14.34.31933\include\xmemory
; File C:\Program Files\Microsoft Visual Studio\2022\Community\VC\Tools\MSVC\14.34.31933\include\xstring
; File C:\Program Files\Microsoft Visual Studio\2022\Community\VC\Tools\MSVC\14.34.31933\include\xmemory
;	COMDAT ??$destroy@U?$pair@$$CBV?$basic_string@DU?$char_traits@D@std@@V?$allocator@D@2@@std@@V?$vector@V?$basic_string@DU?$char_traits@D@std@@V?$allocator@D@2@@std@@V?$allocator@V?$basic_string@DU?$char_traits@D@std@@V?$allocator@D@2@@std@@@2@@2@@std@@@?$_Default_allocator_traits@V?$allocator@U?$_Tree_node@U?$pair@$$CBV?$basic_string@DU?$char_traits@D@std@@V?$allocator@D@2@@std@@V?$vector@V?$basic_string@DU?$char_traits@D@std@@V?$allocator@D@2@@std@@V?$allocator@V?$basic_string@DU?$char_traits@D@std@@V?$allocator@D@2@@std@@@2@@2@@std@@PAX@std@@@std@@@std@@SAXAAV?$allocator@U?$_Tree_node@U?$pair@$$CBV?$basic_string@DU?$char_traits@D@std@@V?$allocator@D@2@@std@@V?$vector@V?$basic_string@DU?$char_traits@D@std@@V?$allocator@D@2@@std@@V?$allocator@V?$basic_string@DU?$char_traits@D@std@@V?$allocator@D@2@@std@@@2@@2@@std@@PAX@std@@@1@QAU?$pair@$$CBV?$basic_string@DU?$char_traits@D@std@@V?$allocator@D@2@@std@@V?$vector@V?$basic_string@DU?$char_traits@D@std@@V?$allocator@D@2@@std@@V?$allocator@V?$basic_string@DU?$char_traits@D@std@@V?$allocator@D@2@@std@@@2@@2@@1@@Z
_TEXT	SEGMENT
___formal$ = 8						; size = 4
__Ptr$ = 12						; size = 4
??$destroy@U?$pair@$$CBV?$basic_string@DU?$char_traits@D@std@@V?$allocator@D@2@@std@@V?$vector@V?$basic_string@DU?$char_traits@D@std@@V?$allocator@D@2@@std@@V?$allocator@V?$basic_string@DU?$char_traits@D@std@@V?$allocator@D@2@@std@@@2@@2@@std@@@?$_Default_allocator_traits@V?$allocator@U?$_Tree_node@U?$pair@$$CBV?$basic_string@DU?$char_traits@D@std@@V?$allocator@D@2@@std@@V?$vector@V?$basic_string@DU?$char_traits@D@std@@V?$allocator@D@2@@std@@V?$allocator@V?$basic_string@DU?$char_traits@D@std@@V?$allocator@D@2@@std@@@2@@2@@std@@PAX@std@@@std@@@std@@SAXAAV?$allocator@U?$_Tree_node@U?$pair@$$CBV?$basic_string@DU?$char_traits@D@std@@V?$allocator@D@2@@std@@V?$vector@V?$basic_string@DU?$char_traits@D@std@@V?$allocator@D@2@@std@@V?$allocator@V?$basic_string@DU?$char_traits@D@std@@V?$allocator@D@2@@std@@@2@@2@@std@@PAX@std@@@1@QAU?$pair@$$CBV?$basic_string@DU?$char_traits@D@std@@V?$allocator@D@2@@std@@V?$vector@V?$basic_string@DU?$char_traits@D@std@@V?$allocator@D@2@@std@@V?$allocator@V?$basic_string@DU?$char_traits@D@std@@V?$allocator@D@2@@std@@@2@@2@@1@@Z PROC ; std::_Default_allocator_traits<std::allocator<std::_Tree_node<std::pair<std::basic_string<char,std::char_traits<char>,std::allocator<char> > const ,std::vector<std::basic_string<char,std::char_traits<char>,std::allocator<char> >,std::allocator<std::basic_string<char,std::char_traits<char>,std::allocator<char> > > > >,void *> > >::destroy<std::pair<std::basic_string<char,std::char_traits<char>,std::allocator<char> > const ,std::vector<std::basic_string<char,std::char_traits<char>,std::allocator<char> >,std::allocator<std::basic_string<char,std::char_traits<char>,std::allocator<char> > > > > >, COMDAT

; 685  :     static _CONSTEXPR20 void destroy(_Alloc&, _Uty* const _Ptr) {

  00000	55		 push	 ebp
  00001	8b ec		 mov	 ebp, esp
  00003	56		 push	 esi
  00004	8b 75 0c	 mov	 esi, DWORD PTR __Ptr$[ebp]
  00007	8d 4e 18	 lea	 ecx, DWORD PTR [esi+24]
  0000a	e8 00 00 00 00	 call	 ??1?$vector@V?$basic_string@DU?$char_traits@D@std@@V?$allocator@D@2@@std@@V?$allocator@V?$basic_string@DU?$char_traits@D@std@@V?$allocator@D@2@@std@@@2@@std@@QAE@XZ ; std::vector<std::basic_string<char,std::char_traits<char>,std::allocator<char> >,std::allocator<std::basic_string<char,std::char_traits<char>,std::allocator<char> > > >::~vector<std::basic_string<char,std::char_traits<char>,std::allocator<char> >,std::allocator<std::basic_string<char,std::char_traits<char>,std::allocator<char> > > >
; File C:\Program Files\Microsoft Visual Studio\2022\Community\VC\Tools\MSVC\14.34.31933\include\xstring

; 2301 :         return _BUF_SIZE <= _Myres;

  0000f	8b 4e 14	 mov	 ecx, DWORD PTR [esi+20]
  00012	83 f9 10	 cmp	 ecx, 16			; 00000010H

; 5011 :         if (_My_data._Large_string_engaged()) {

  00015	72 27		 jb	 SHORT $LN21@destroy
; File C:\Program Files\Microsoft Visual Studio\2022\Community\VC\Tools\MSVC\14.34.31933\include\xmemory

; 830  :         _Deallocate<_New_alignof<_Ty>>(_Ptr, sizeof(_Ty) * _Count);

  00017	8b 06		 mov	 eax, DWORD PTR [esi]
; File C:\Program Files\Microsoft Visual Studio\2022\Community\VC\Tools\MSVC\14.34.31933\include\xstring

; 5016 :             _Al.deallocate(_Ptr, _My_data._Myres + 1);

  00019	41		 inc	 ecx
; File C:\Program Files\Microsoft Visual Studio\2022\Community\VC\Tools\MSVC\14.34.31933\include\xmemory

; 251  :         if (_Bytes >= _Big_allocation_threshold) { // boost the alignment of big allocations to help autovectorization

  0001a	81 f9 00 10 00
	00		 cmp	 ecx, 4096		; 00001000H
  00020	72 12		 jb	 SHORT $LN31@destroy

; 150  :     const uintptr_t _Ptr_container   = _Ptr_user[-1];

  00022	8b 50 fc	 mov	 edx, DWORD PTR [eax-4]
  00025	83 c1 23	 add	 ecx, 35			; 00000023H

; 151  : 
; 152  :     // If the following asserts, it likely means that we are performing
; 153  :     // an aligned delete on memory coming from an unaligned allocation.
; 154  :     _STL_ASSERT(_Ptr_user[-2] == _Big_allocation_sentinel, "invalid argument");
; 155  : 
; 156  :     // Extra paranoia on aligned allocation/deallocation; ensure _Ptr_container is
; 157  :     // in range [_Min_back_shift, _Non_user_size]
; 158  : #ifdef _DEBUG
; 159  :     constexpr uintptr_t _Min_back_shift = 2 * sizeof(void*);
; 160  : #else // ^^^ _DEBUG ^^^ // vvv !_DEBUG vvv
; 161  :     constexpr uintptr_t _Min_back_shift = sizeof(void*);
; 162  : #endif // _DEBUG
; 163  :     const uintptr_t _Back_shift = reinterpret_cast<uintptr_t>(_Ptr) - _Ptr_container;

  00028	2b c2		 sub	 eax, edx

; 164  :     _STL_VERIFY(_Back_shift >= _Min_back_shift && _Back_shift <= _Non_user_size, "invalid argument");

  0002a	83 c0 fc	 add	 eax, -4			; fffffffcH
  0002d	83 f8 1f	 cmp	 eax, 31			; 0000001fH
  00030	77 20		 ja	 SHORT $LN28@destroy

; 165  :     _Ptr = reinterpret_cast<void*>(_Ptr_container);

  00032	8b c2		 mov	 eax, edx
$LN31@destroy:

; 255  :         ::operator delete(_Ptr, _Bytes);

  00034	51		 push	 ecx
  00035	50		 push	 eax
  00036	e8 00 00 00 00	 call	 ??3@YAXPAXI@Z		; operator delete
  0003b	83 c4 08	 add	 esp, 8
$LN21@destroy:
; File C:\Program Files\Microsoft Visual Studio\2022\Community\VC\Tools\MSVC\14.34.31933\include\xstring

; 5019 :         _My_data._Mysize = 0;

  0003e	c7 46 10 00 00
	00 00		 mov	 DWORD PTR [esi+16], 0

; 5020 :         _My_data._Myres  = _BUF_SIZE - 1;

  00045	c7 46 14 0f 00
	00 00		 mov	 DWORD PTR [esi+20], 15	; 0000000fH

; 5021 :         // the _Traits::assign is last so the codegen doesn't think the char write can alias this
; 5022 :         _Traits::assign(_My_data._Bx._Buf[0], _Elem());

  0004c	c6 06 00	 mov	 BYTE PTR [esi], 0
  0004f	5e		 pop	 esi
; File C:\Program Files\Microsoft Visual Studio\2022\Community\VC\Tools\MSVC\14.34.31933\include\xmemory

; 691  :     }

  00050	5d		 pop	 ebp
  00051	c3		 ret	 0
$LN28@destroy:

; 164  :     _STL_VERIFY(_Back_shift >= _Min_back_shift && _Back_shift <= _Non_user_size, "invalid argument");

  00052	e8 00 00 00 00	 call	 __invalid_parameter_noinfo_noreturn
$LN39@destroy:
  00057	cc		 int	 3
??$destroy@U?$pair@$$CBV?$basic_string@DU?$char_traits@D@std@@V?$allocator@D@2@@std@@V?$vector@V?$basic_string@DU?$char_traits@D@std@@V?$allocator@D@2@@std@@V?$allocator@V?$basic_string@DU?$char_traits@D@std@@V?$allocator@D@2@@std@@@2@@2@@std@@@?$_Default_allocator_traits@V?$allocator@U?$_Tree_node@U?$pair@$$CBV?$basic_string@DU?$char_traits@D@std@@V?$allocator@D@2@@std@@V?$vector@V?$basic_string@DU?$char_traits@D@std@@V?$allocator@D@2@@std@@V?$allocator@V?$basic_string@DU?$char_traits@D@std@@V?$allocator@D@2@@std@@@2@@2@@std@@PAX@std@@@std@@@std@@SAXAAV?$allocator@U?$_Tree_node@U?$pair@$$CBV?$basic_string@DU?$char_traits@D@std@@V?$allocator@D@2@@std@@V?$vector@V?$basic_string@DU?$char_traits@D@std@@V?$allocator@D@2@@std@@V?$allocator@V?$basic_string@DU?$char_traits@D@std@@V?$allocator@D@2@@std@@@2@@2@@std@@PAX@std@@@1@QAU?$pair@$$CBV?$basic_string@DU?$char_traits@D@std@@V?$allocator@D@2@@std@@V?$vector@V?$basic_string@DU?$char_traits@D@std@@V?$allocator@D@2@@std@@V?$allocator@V?$basic_string@DU?$char_traits@D@std@@V?$allocator@D@2@@std@@@2@@2@@1@@Z ENDP ; std::_Default_allocator_traits<std::allocator<std::_Tree_node<std::pair<std::basic_string<char,std::char_traits<char>,std::allocator<char> > const ,std::vector<std::basic_string<char,std::char_traits<char>,std::allocator<char> >,std::allocator<std::basic_string<char,std::char_traits<char>,std::allocator<char> > > > >,void *> > >::destroy<std::pair<std::basic_string<char,std::char_traits<char>,std::allocator<char> > const ,std::vector<std::basic_string<char,std::char_traits<char>,std::allocator<char> >,std::allocator<std::basic_string<char,std::char_traits<char>,std::allocator<char> > > > > >
_TEXT	ENDS
; Function compile flags: /Ogtp
; File C:\Program Files\Microsoft Visual Studio\2022\Community\VC\Tools\MSVC\14.34.31933\include\xmemory
;	COMDAT ??$_Allocate_manually_vector_aligned@U_Default_allocate_traits@std@@@std@@YAPAXI@Z
_TEXT	SEGMENT
__Bytes$ = 8						; size = 4
??$_Allocate_manually_vector_aligned@U_Default_allocate_traits@std@@@std@@YAPAXI@Z PROC ; std::_Allocate_manually_vector_aligned<std::_Default_allocate_traits>, COMDAT

; 127  : __declspec(allocator) void* _Allocate_manually_vector_aligned(const size_t _Bytes) {

  00000	55		 push	 ebp
  00001	8b ec		 mov	 ebp, esp

; 128  :     // allocate _Bytes manually aligned to at least _Big_allocation_alignment
; 129  :     const size_t _Block_size = _Non_user_size + _Bytes;

  00003	8b 45 08	 mov	 eax, DWORD PTR __Bytes$[ebp]
  00006	8d 48 23	 lea	 ecx, DWORD PTR [eax+35]

; 130  :     if (_Block_size <= _Bytes) {

  00009	3b c8		 cmp	 ecx, eax
  0000b	0f 86 00 00 00
	00		 jbe	 ?_Throw_bad_array_new_length@std@@YAXXZ ; std::_Throw_bad_array_new_length

; 77   :         return ::operator new(_Bytes);

  00011	51		 push	 ecx
  00012	e8 00 00 00 00	 call	 ??2@YAPAXI@Z		; operator new

; 131  :         _Throw_bad_array_new_length(); // add overflow
; 132  :     }
; 133  : 
; 134  :     const uintptr_t _Ptr_container = reinterpret_cast<uintptr_t>(_Traits::_Allocate(_Block_size));

  00017	8b c8		 mov	 ecx, eax

; 77   :         return ::operator new(_Bytes);

  00019	83 c4 04	 add	 esp, 4

; 135  :     _STL_VERIFY(_Ptr_container != 0, "invalid argument"); // validate even in release since we're doing p[-1]

  0001c	85 c9		 test	 ecx, ecx
  0001e	74 0b		 je	 SHORT $LN7@Allocate_m

; 136  :     void* const _Ptr = reinterpret_cast<void*>((_Ptr_container + _Non_user_size) & ~(_Big_allocation_alignment - 1));

  00020	8d 41 23	 lea	 eax, DWORD PTR [ecx+35]
  00023	83 e0 e0	 and	 eax, -32		; ffffffe0H

; 137  :     static_cast<uintptr_t*>(_Ptr)[-1] = _Ptr_container;

  00026	89 48 fc	 mov	 DWORD PTR [eax-4], ecx

; 138  : 
; 139  : #ifdef _DEBUG
; 140  :     static_cast<uintptr_t*>(_Ptr)[-2] = _Big_allocation_sentinel;
; 141  : #endif // _DEBUG
; 142  :     return _Ptr;
; 143  : }

  00029	5d		 pop	 ebp
  0002a	c3		 ret	 0
$LN7@Allocate_m:

; 135  :     _STL_VERIFY(_Ptr_container != 0, "invalid argument"); // validate even in release since we're doing p[-1]

  0002b	e9 00 00 00 00	 jmp	 __invalid_parameter_noinfo_noreturn
??$_Allocate_manually_vector_aligned@U_Default_allocate_traits@std@@@std@@YAPAXI@Z ENDP ; std::_Allocate_manually_vector_aligned<std::_Default_allocate_traits>
_TEXT	ENDS
; Function compile flags: /Ogtp
; File C:\Program Files\Microsoft Visual Studio\2022\Community\VC\Tools\MSVC\14.34.31933\include\xmemory
;	COMDAT ??1?$_Uninitialized_backout_al@V?$allocator@USTerrainTexture@@@std@@@std@@QAE@XZ
_TEXT	SEGMENT
??1?$_Uninitialized_backout_al@V?$allocator@USTerrainTexture@@@std@@@std@@QAE@XZ PROC ; std::_Uninitialized_backout_al<std::allocator<STerrainTexture> >::~_Uninitialized_backout_al<std::allocator<STerrainTexture> >, COMDAT
; _this$ = ecx

; 1658 :         _Destroy_range(_First, _Last, _Al);

  00000	ff 71 08	 push	 DWORD PTR [ecx+8]
  00003	ff 71 04	 push	 DWORD PTR [ecx+4]
  00006	ff 31		 push	 DWORD PTR [ecx]
  00008	e8 00 00 00 00	 call	 ??$_Destroy_range@V?$allocator@USTerrainTexture@@@std@@@std@@YAXPAUSTerrainTexture@@QAU1@AAV?$allocator@USTerrainTexture@@@0@@Z ; std::_Destroy_range<std::allocator<STerrainTexture> >
  0000d	83 c4 0c	 add	 esp, 12			; 0000000cH

; 1659 :     }

  00010	c3		 ret	 0
??1?$_Uninitialized_backout_al@V?$allocator@USTerrainTexture@@@std@@@std@@QAE@XZ ENDP ; std::_Uninitialized_backout_al<std::allocator<STerrainTexture> >::~_Uninitialized_backout_al<std::allocator<STerrainTexture> >
_TEXT	ENDS
; Function compile flags: /Ogtp
; File C:\Program Files\Microsoft Visual Studio\2022\Community\VC\Tools\MSVC\14.34.31933\include\vector
; File C:\Program Files\Microsoft Visual Studio\2022\Community\VC\Tools\MSVC\14.34.31933\include\xmemory
; File C:\Program Files\Microsoft Visual Studio\2022\Community\VC\Tools\MSVC\14.34.31933\include\vector
; File C:\Program Files\Microsoft Visual Studio\2022\Community\VC\Tools\MSVC\14.34.31933\include\xmemory
; File C:\Program Files\Microsoft Visual Studio\2022\Community\VC\Tools\MSVC\14.34.31933\include\vector
; File C:\Program Files\Microsoft Visual Studio\2022\Community\VC\Tools\MSVC\14.34.31933\include\xmemory
; File C:\Program Files\Microsoft Visual Studio\2022\Community\VC\Tools\MSVC\14.34.31933\include\vector
; File C:\Program Files\Microsoft Visual Studio\2022\Community\VC\Tools\MSVC\14.34.31933\include\xmemory
; File C:\Program Files\Microsoft Visual Studio\2022\Community\VC\Tools\MSVC\14.34.31933\include\vector
; File C:\Program Files\Microsoft Visual Studio\2022\Community\VC\Tools\MSVC\14.34.31933\include\xmemory
; File C:\Program Files\Microsoft Visual Studio\2022\Community\VC\Tools\MSVC\14.34.31933\include\vector
; File C:\Program Files\Microsoft Visual Studio\2022\Community\VC\Tools\MSVC\14.34.31933\include\xmemory
; File C:\Program Files\Microsoft Visual Studio\2022\Community\VC\Tools\MSVC\14.34.31933\include\vector
;	COMDAT ??$_Emplace_reallocate@ABUSTerrainTexture@@@?$vector@USTerrainTexture@@V?$allocator@USTerrainTexture@@@std@@@std@@AAEPAUSTerrainTexture@@QAU2@ABU2@@Z
_TEXT	SEGMENT
_this$ = -44						; size = 4
__Oldsize$1$ = -40					; size = 4
__Whereoff$1$ = -36					; size = 4
__Constructed_last$ = -36				; size = 4
tv303 = -32						; size = 4
$T2 = -28						; size = 4
__Constructed_first$ = -24				; size = 4
__Newcapacity$ = -20					; size = 4
__$EHRec$ = -16						; size = 16
__Whereptr$ = 8						; size = 4
_<_Val_0>$ = 12						; size = 4
??$_Emplace_reallocate@ABUSTerrainTexture@@@?$vector@USTerrainTexture@@V?$allocator@USTerrainTexture@@@std@@@std@@AAEPAUSTerrainTexture@@QAU2@ABU2@@Z PROC ; std::vector<STerrainTexture,std::allocator<STerrainTexture> >::_Emplace_reallocate<STerrainTexture const &>, COMDAT
; _this$ = ecx

; 875  :     _CONSTEXPR20 pointer _Emplace_reallocate(const pointer _Whereptr, _Valty&&... _Val) {

  00000	55		 push	 ebp
  00001	8b ec		 mov	 ebp, esp
  00003	6a ff		 push	 -1
  00005	68 00 00 00 00	 push	 __ehhandler$??$_Emplace_reallocate@ABUSTerrainTexture@@@?$vector@USTerrainTexture@@V?$allocator@USTerrainTexture@@@std@@@std@@AAEPAUSTerrainTexture@@QAU2@ABU2@@Z
  0000a	64 a1 00 00 00
	00		 mov	 eax, DWORD PTR fs:0
  00010	50		 push	 eax
  00011	83 ec 20	 sub	 esp, 32			; 00000020H
  00014	53		 push	 ebx
  00015	56		 push	 esi
  00016	57		 push	 edi
  00017	a1 00 00 00 00	 mov	 eax, DWORD PTR ___security_cookie
  0001c	33 c5		 xor	 eax, ebp
  0001e	50		 push	 eax
  0001f	8d 45 f4	 lea	 eax, DWORD PTR __$EHRec$[ebp+4]
  00022	64 a3 00 00 00
	00		 mov	 DWORD PTR fs:0, eax
  00028	89 65 f0	 mov	 DWORD PTR __$EHRec$[ebp], esp
  0002b	8b d9		 mov	 ebx, ecx
  0002d	89 5d d4	 mov	 DWORD PTR _this$[ebp], ebx

; 876  :         // reallocate and insert by perfectly forwarding _Val at _Whereptr
; 877  :         _Alty& _Al        = _Getal();
; 878  :         auto& _My_data    = _Mypair._Myval2;
; 879  :         pointer& _Myfirst = _My_data._Myfirst;
; 880  :         pointer& _Mylast  = _My_data._Mylast;
; 881  : 
; 882  :         _STL_INTERNAL_CHECK(_Mylast == _My_data._Myend); // check that we have no unused capacity
; 883  : 
; 884  :         const auto _Whereoff = static_cast<size_type>(_Whereptr - _Myfirst);

  00030	8b 75 08	 mov	 esi, DWORD PTR __Whereptr$[ebp]
  00033	b8 d3 20 0d d2	 mov	 eax, -770891565		; d20d20d3H
  00038	2b 33		 sub	 esi, DWORD PTR [ebx]

; 885  :         const auto _Oldsize  = static_cast<size_type>(_Mylast - _Myfirst);

  0003a	8b 4b 04	 mov	 ecx, DWORD PTR [ebx+4]
  0003d	2b 0b		 sub	 ecx, DWORD PTR [ebx]
  0003f	f7 ee		 imul	 esi
  00041	03 d6		 add	 edx, esi
  00043	c1 fa 07	 sar	 edx, 7
  00046	8b c2		 mov	 eax, edx
  00048	c1 e8 1f	 shr	 eax, 31			; 0000001fH
  0004b	03 c2		 add	 eax, edx
  0004d	89 45 dc	 mov	 DWORD PTR __Whereoff$1$[ebp], eax
  00050	b8 d3 20 0d d2	 mov	 eax, -770891565		; d20d20d3H
  00055	f7 e9		 imul	 ecx
  00057	03 d1		 add	 edx, ecx
  00059	c1 fa 07	 sar	 edx, 7
  0005c	8b c2		 mov	 eax, edx
  0005e	c1 e8 1f	 shr	 eax, 31			; 0000001fH
  00061	03 c2		 add	 eax, edx
  00063	89 45 d8	 mov	 DWORD PTR __Oldsize$1$[ebp], eax

; 886  : 
; 887  :         if (_Oldsize == max_size()) {

  00066	3d 41 1a a4 01	 cmp	 eax, 27531841		; 01a41a41H
  0006b	0f 84 42 01 00
	00		 je	 $LN40@Emplace_re

; 1942 :         return static_cast<size_type>(_My_data._Myend - _My_data._Myfirst);

  00071	8b 4b 08	 mov	 ecx, DWORD PTR [ebx+8]

; 889  :         }
; 890  : 
; 891  :         const size_type _Newsize     = _Oldsize + 1;

  00074	8d 78 01	 lea	 edi, DWORD PTR [eax+1]

; 1942 :         return static_cast<size_type>(_My_data._Myend - _My_data._Myfirst);

  00077	2b 0b		 sub	 ecx, DWORD PTR [ebx]
  00079	b8 d3 20 0d d2	 mov	 eax, -770891565		; d20d20d3H
  0007e	f7 e9		 imul	 ecx

; 2029 :         if (_Oldcapacity > _Max - _Oldcapacity / 2) {

  00080	b8 41 1a a4 01	 mov	 eax, 27531841		; 01a41a41H

; 1942 :         return static_cast<size_type>(_My_data._Myend - _My_data._Myfirst);

  00085	03 d1		 add	 edx, ecx
  00087	c1 fa 07	 sar	 edx, 7
  0008a	8b ca		 mov	 ecx, edx
  0008c	c1 e9 1f	 shr	 ecx, 31			; 0000001fH
  0008f	03 ca		 add	 ecx, edx

; 2029 :         if (_Oldcapacity > _Max - _Oldcapacity / 2) {

  00091	8b d1		 mov	 edx, ecx
  00093	d1 ea		 shr	 edx, 1
  00095	2b c2		 sub	 eax, edx
  00097	3b c8		 cmp	 ecx, eax
  00099	76 1a		 jbe	 SHORT $LN12@Emplace_re

; 2030 :             return _Max; // geometric growth would overflow

  0009b	b8 9c ff ff ff	 mov	 eax, -100		; ffffff9cH
  000a0	be 41 1a a4 01	 mov	 esi, 27531841		; 01a41a41H
; File C:\Program Files\Microsoft Visual Studio\2022\Community\VC\Tools\MSVC\14.34.31933\include\xmemory

; 229  :             return _Allocate_manually_vector_aligned<_Traits>(_Bytes);

  000a5	50		 push	 eax
; File C:\Program Files\Microsoft Visual Studio\2022\Community\VC\Tools\MSVC\14.34.31933\include\vector

; 2030 :             return _Max; // geometric growth would overflow

  000a6	89 75 ec	 mov	 DWORD PTR __Newcapacity$[ebp], esi
; File C:\Program Files\Microsoft Visual Studio\2022\Community\VC\Tools\MSVC\14.34.31933\include\xmemory

; 229  :             return _Allocate_manually_vector_aligned<_Traits>(_Bytes);

  000a9	e8 00 00 00 00	 call	 ??$_Allocate_manually_vector_aligned@U_Default_allocate_traits@std@@@std@@YAPAXI@Z ; std::_Allocate_manually_vector_aligned<std::_Default_allocate_traits>
  000ae	83 c4 04	 add	 esp, 4
  000b1	8b f8		 mov	 edi, eax
  000b3	eb 49		 jmp	 SHORT $LN36@Emplace_re
$LN12@Emplace_re:
; File C:\Program Files\Microsoft Visual Studio\2022\Community\VC\Tools\MSVC\14.34.31933\include\vector

; 2033 :         const size_type _Geometric = _Oldcapacity + _Oldcapacity / 2;

  000b5	8d 04 0a	 lea	 eax, DWORD PTR [edx+ecx]
; File C:\Program Files\Microsoft Visual Studio\2022\Community\VC\Tools\MSVC\14.34.31933\include\xmemory

; 60   :         if (_Count > _Max_possible) {

  000b8	8b f7		 mov	 esi, edi
  000ba	3b c7		 cmp	 eax, edi
  000bc	0f 43 f0	 cmovae	 esi, eax
  000bf	81 fe 41 1a a4
	01		 cmp	 esi, 27531841		; 01a41a41H
  000c5	0f 87 ed 00 00
	00		 ja	 $LN41@Emplace_re

; 62   :         }
; 63   :     }
; 64   : 
; 65   :     return _Count * _Ty_size;

  000cb	69 c6 9c 00 00
	00		 imul	 eax, esi, 156
  000d1	89 75 ec	 mov	 DWORD PTR __Newcapacity$[ebp], esi

; 228  :         if (_Bytes >= _Big_allocation_threshold) { // boost the alignment of big allocations to help autovectorization

  000d4	3d 00 10 00 00	 cmp	 eax, 4096		; 00001000H
  000d9	72 0d		 jb	 SHORT $LN24@Emplace_re

; 229  :             return _Allocate_manually_vector_aligned<_Traits>(_Bytes);

  000db	50		 push	 eax
  000dc	e8 00 00 00 00	 call	 ??$_Allocate_manually_vector_aligned@U_Default_allocate_traits@std@@@std@@YAPAXI@Z ; std::_Allocate_manually_vector_aligned<std::_Default_allocate_traits>
  000e1	83 c4 04	 add	 esp, 4
  000e4	8b f8		 mov	 edi, eax
  000e6	eb 16		 jmp	 SHORT $LN36@Emplace_re
$LN24@Emplace_re:

; 230  :         }
; 231  :     }
; 232  : #endif // defined(_M_IX86) || defined(_M_X64)
; 233  : 
; 234  :     if (_Bytes != 0) {

  000e8	85 c0		 test	 eax, eax
  000ea	74 0d		 je	 SHORT $LN25@Emplace_re

; 77   :         return ::operator new(_Bytes);

  000ec	50		 push	 eax
  000ed	e8 00 00 00 00	 call	 ??2@YAPAXI@Z		; operator new
  000f2	83 c4 04	 add	 esp, 4

; 235  :         return _Traits::_Allocate(_Bytes);

  000f5	8b f8		 mov	 edi, eax
  000f7	eb 02		 jmp	 SHORT $LN37@Emplace_re
$LN25@Emplace_re:

; 236  :     }
; 237  : 
; 238  :     return nullptr;

  000f9	33 ff		 xor	 edi, edi
$LN37@Emplace_re:
; File C:\Program Files\Microsoft Visual Studio\2022\Community\VC\Tools\MSVC\14.34.31933\include\vector

; 895  :         const pointer _Constructed_last = _Newvec + _Whereoff + 1;

  000fb	89 75 ec	 mov	 DWORD PTR __Newcapacity$[ebp], esi
$LN36@Emplace_re:
  000fe	69 45 dc 9c 00
	00 00		 imul	 eax, DWORD PTR __Whereoff$1$[ebp], 156
; File C:\Program Files\Microsoft Visual Studio\2022\Community\VC\Tools\MSVC\14.34.31933\include\xmemory

; 680  :             ::new (_Voidify_iter(_Ptr)) _Objty(_STD forward<_Types>(_Args)...);

  00105	ff 75 0c	 push	 DWORD PTR _<_Val_0>$[ebp]
; File C:\Program Files\Microsoft Visual Studio\2022\Community\VC\Tools\MSVC\14.34.31933\include\vector

; 895  :         const pointer _Constructed_last = _Newvec + _Whereoff + 1;

  00108	89 7d e4	 mov	 DWORD PTR $T2[ebp], edi

; 896  :         pointer _Constructed_first      = _Constructed_last;
; 897  : 
; 898  :         _TRY_BEGIN

  0010b	c7 45 fc 00 00
	00 00		 mov	 DWORD PTR __$EHRec$[ebp+12], 0
  00112	03 c7		 add	 eax, edi
  00114	89 45 e0	 mov	 DWORD PTR tv303[ebp], eax
  00117	8d 88 9c 00 00
	00		 lea	 ecx, DWORD PTR [eax+156]
  0011d	89 4d dc	 mov	 DWORD PTR __Constructed_last$[ebp], ecx
  00120	89 4d e8	 mov	 DWORD PTR __Constructed_first$[ebp], ecx
; File C:\Program Files\Microsoft Visual Studio\2022\Community\VC\Tools\MSVC\14.34.31933\include\xmemory

; 680  :             ::new (_Voidify_iter(_Ptr)) _Objty(_STD forward<_Types>(_Args)...);

  00123	8b c8		 mov	 ecx, eax
  00125	e8 00 00 00 00	 call	 ??0STerrainTexture@@QAE@ABU0@@Z
; File C:\Program Files\Microsoft Visual Studio\2022\Community\VC\Tools\MSVC\14.34.31933\include\vector

; 900  :         _Constructed_first = _Newvec + _Whereoff;

  0012a	8b 45 e0	 mov	 eax, DWORD PTR tv303[ebp]

; 901  : 
; 902  :         if (_Whereptr == _Mylast) { // at back, provide strong guarantee

  0012d	8b 4b 04	 mov	 ecx, DWORD PTR [ebx+4]
  00130	8b 55 08	 mov	 edx, DWORD PTR __Whereptr$[ebp]
  00133	89 45 e8	 mov	 DWORD PTR __Constructed_first$[ebp], eax
  00136	8b 03		 mov	 eax, DWORD PTR [ebx]
  00138	53		 push	 ebx
  00139	57		 push	 edi
  0013a	3b d1		 cmp	 edx, ecx
  0013c	75 09		 jne	 SHORT $LN4@Emplace_re

; 903  :             if constexpr (is_nothrow_move_constructible_v<_Ty> || !is_copy_constructible_v<_Ty>) {
; 904  :                 _Uninitialized_move(_Myfirst, _Mylast, _Newvec, _Al);
; 905  :             } else {
; 906  :                 _Uninitialized_copy(_Myfirst, _Mylast, _Newvec, _Al);

  0013e	51		 push	 ecx
  0013f	50		 push	 eax
  00140	e8 00 00 00 00	 call	 ??$_Uninitialized_copy@PAUSTerrainTexture@@PAU1@V?$allocator@USTerrainTexture@@@std@@@std@@YAPAUSTerrainTexture@@PAU1@00AAV?$allocator@USTerrainTexture@@@0@@Z ; std::_Uninitialized_copy<STerrainTexture *,STerrainTexture *,std::allocator<STerrainTexture> >

; 907  :             }
; 908  :         } else { // provide basic guarantee

  00145	eb 1c		 jmp	 SHORT $LN38@Emplace_re
$LN4@Emplace_re:

; 909  :             _Uninitialized_move(_Myfirst, _Whereptr, _Newvec, _Al);

  00147	52		 push	 edx
  00148	50		 push	 eax
  00149	e8 00 00 00 00	 call	 ??$_Uninitialized_move@PAUSTerrainTexture@@V?$allocator@USTerrainTexture@@@std@@@std@@YAPAUSTerrainTexture@@QAU1@0PAU1@AAV?$allocator@USTerrainTexture@@@0@@Z ; std::_Uninitialized_move<STerrainTexture *,std::allocator<STerrainTexture> >
  0014e	83 c4 10	 add	 esp, 16			; 00000010H

; 910  :             _Constructed_first = _Newvec;

  00151	89 7d e8	 mov	 DWORD PTR __Constructed_first$[ebp], edi

; 911  :             _Uninitialized_move(_Whereptr, _Mylast, _Newvec + _Whereoff + 1, _Al);

  00154	53		 push	 ebx
  00155	ff 75 dc	 push	 DWORD PTR __Constructed_last$[ebp]
  00158	ff 73 04	 push	 DWORD PTR [ebx+4]
  0015b	ff 75 08	 push	 DWORD PTR __Whereptr$[ebp]
  0015e	e8 00 00 00 00	 call	 ??$_Uninitialized_move@PAUSTerrainTexture@@V?$allocator@USTerrainTexture@@@std@@@std@@YAPAUSTerrainTexture@@QAU1@0PAU1@AAV?$allocator@USTerrainTexture@@@0@@Z ; std::_Uninitialized_move<STerrainTexture *,std::allocator<STerrainTexture> >
$LN38@Emplace_re:

; 917  :         _CATCH_END
; 918  : 
; 919  :         _Change_array(_Newvec, _Newsize, _Newcapacity);

  00163	8b 45 d8	 mov	 eax, DWORD PTR __Oldsize$1$[ebp]
  00166	83 c4 10	 add	 esp, 16			; 00000010H
  00169	40		 inc	 eax
  0016a	8b cb		 mov	 ecx, ebx
  0016c	56		 push	 esi
  0016d	50		 push	 eax
  0016e	57		 push	 edi
  0016f	e8 00 00 00 00	 call	 ?_Change_array@?$vector@USTerrainTexture@@V?$allocator@USTerrainTexture@@@std@@@std@@AAEXQAUSTerrainTexture@@II@Z ; std::vector<STerrainTexture,std::allocator<STerrainTexture> >::_Change_array

; 920  :         return _Newvec + _Whereoff;

  00174	8b 45 e0	 mov	 eax, DWORD PTR tv303[ebp]

; 921  :     }

  00177	8b 4d f4	 mov	 ecx, DWORD PTR __$EHRec$[ebp+4]
  0017a	64 89 0d 00 00
	00 00		 mov	 DWORD PTR fs:0, ecx
  00181	59		 pop	 ecx
  00182	5f		 pop	 edi
  00183	5e		 pop	 esi
  00184	5b		 pop	 ebx
  00185	8b e5		 mov	 esp, ebp
  00187	5d		 pop	 ebp
  00188	c2 08 00	 ret	 8
__catch$??$_Emplace_reallocate@ABUSTerrainTexture@@@?$vector@USTerrainTexture@@V?$allocator@USTerrainTexture@@@std@@@std@@AAEPAUSTerrainTexture@@QAU2@ABU2@@Z$0:

; 912  :         }
; 913  :         _CATCH_ALL
; 914  :         _Destroy_range(_Constructed_first, _Constructed_last, _Al);

  0018b	8b 75 d4	 mov	 esi, DWORD PTR _this$[ebp]
  0018e	56		 push	 esi
  0018f	ff 75 dc	 push	 DWORD PTR __Constructed_last$[ebp]
  00192	ff 75 e8	 push	 DWORD PTR __Constructed_first$[ebp]
  00195	e8 00 00 00 00	 call	 ??$_Destroy_range@V?$allocator@USTerrainTexture@@@std@@@std@@YAXPAUSTerrainTexture@@QAU1@AAV?$allocator@USTerrainTexture@@@0@@Z ; std::_Destroy_range<std::allocator<STerrainTexture> >
  0019a	83 c4 0c	 add	 esp, 12			; 0000000cH

; 915  :         _Al.deallocate(_Newvec, _Newcapacity);

  0019d	8b ce		 mov	 ecx, esi
  0019f	ff 75 ec	 push	 DWORD PTR __Newcapacity$[ebp]
  001a2	ff 75 e4	 push	 DWORD PTR $T2[ebp]
  001a5	e8 00 00 00 00	 call	 ?deallocate@?$allocator@USTerrainTexture@@@std@@QAEXQAUSTerrainTexture@@I@Z ; std::allocator<STerrainTexture>::deallocate

; 916  :         _RERAISE;

  001aa	6a 00		 push	 0
  001ac	6a 00		 push	 0
  001ae	e8 00 00 00 00	 call	 __CxxThrowException@8
$LN40@Emplace_re:

; 888  :             _Xlength();

  001b3	e8 00 00 00 00	 call	 ?_Xlength@?$vector@USTerrainTexture@@V?$allocator@USTerrainTexture@@@std@@@std@@CAXXZ ; std::vector<STerrainTexture,std::allocator<STerrainTexture> >::_Xlength
$LN41@Emplace_re:
; File C:\Program Files\Microsoft Visual Studio\2022\Community\VC\Tools\MSVC\14.34.31933\include\xmemory

; 61   :             _Throw_bad_array_new_length(); // multiply overflow

  001b8	e8 00 00 00 00	 call	 ?_Throw_bad_array_new_length@std@@YAXXZ ; std::_Throw_bad_array_new_length
$LN35@Emplace_re:
  001bd	cc		 int	 3
  001be	cc		 int	 3
  001bf	cc		 int	 3
  001c0	cc		 int	 3
  001c1	cc		 int	 3
  001c2	cc		 int	 3
_TEXT	ENDS
;	COMDAT text$x
text$x	SEGMENT
__ehhandler$??$_Emplace_reallocate@ABUSTerrainTexture@@@?$vector@USTerrainTexture@@V?$allocator@USTerrainTexture@@@std@@@std@@AAEPAUSTerrainTexture@@QAU2@ABU2@@Z:
  00000	90		 npad	 1
  00001	90		 npad	 1
  00002	8b 54 24 08	 mov	 edx, DWORD PTR [esp+8]
  00006	8d 42 0c	 lea	 eax, DWORD PTR [edx+12]
  00009	8b 4a d0	 mov	 ecx, DWORD PTR [edx-48]
  0000c	33 c8		 xor	 ecx, eax
  0000e	e8 00 00 00 00	 call	 @__security_check_cookie@4
  00013	b8 00 00 00 00	 mov	 eax, OFFSET __ehfuncinfo$??$_Emplace_reallocate@ABUSTerrainTexture@@@?$vector@USTerrainTexture@@V?$allocator@USTerrainTexture@@@std@@@std@@AAEPAUSTerrainTexture@@QAU2@ABU2@@Z
  00018	e9 00 00 00 00	 jmp	 ___CxxFrameHandler3
text$x	ENDS
??$_Emplace_reallocate@ABUSTerrainTexture@@@?$vector@USTerrainTexture@@V?$allocator@USTerrainTexture@@@std@@@std@@AAEPAUSTerrainTexture@@QAU2@ABU2@@Z ENDP ; std::vector<STerrainTexture,std::allocator<STerrainTexture> >::_Emplace_reallocate<STerrainTexture const &>
; Function compile flags: /Ogtp
; File C:\Program Files\Microsoft Visual Studio\2022\Community\VC\Tools\MSVC\14.34.31933\include\xmemory
;	COMDAT ??$_Uninitialized_value_construct_n@V?$allocator@USTerrainTexture@@@std@@@std@@YAPAUSTerrainTexture@@PAU1@IAAV?$allocator@USTerrainTexture@@@0@@Z
_TEXT	SEGMENT
__Backout$ = -24					; size = 12
__$EHRec$ = -12						; size = 12
__First$ = 8						; size = 4
__Count$ = 12						; size = 4
__Al$ = 16						; size = 4
??$_Uninitialized_value_construct_n@V?$allocator@USTerrainTexture@@@std@@@std@@YAPAUSTerrainTexture@@PAU1@IAAV?$allocator@USTerrainTexture@@@0@@Z PROC ; std::_Uninitialized_value_construct_n<std::allocator<STerrainTexture> >, COMDAT

; 1887 :     _Alloc_ptr_t<_Alloc> _First, _Alloc_size_t<_Alloc> _Count, _Alloc& _Al) {

  00000	55		 push	 ebp
  00001	8b ec		 mov	 ebp, esp
  00003	6a ff		 push	 -1
  00005	68 00 00 00 00	 push	 __ehhandler$??$_Uninitialized_value_construct_n@V?$allocator@USTerrainTexture@@@std@@@std@@YAPAUSTerrainTexture@@PAU1@IAAV?$allocator@USTerrainTexture@@@0@@Z
  0000a	64 a1 00 00 00
	00		 mov	 eax, DWORD PTR fs:0
  00010	50		 push	 eax
  00011	83 ec 0c	 sub	 esp, 12			; 0000000cH
  00014	53		 push	 ebx
  00015	56		 push	 esi
  00016	57		 push	 edi
  00017	a1 00 00 00 00	 mov	 eax, DWORD PTR ___security_cookie
  0001c	33 c5		 xor	 eax, ebp
  0001e	50		 push	 eax
  0001f	8d 45 f4	 lea	 eax, DWORD PTR __$EHRec$[ebp]
  00022	64 a3 00 00 00
	00		 mov	 DWORD PTR fs:0, eax

; 1652 :     _CONSTEXPR20 _Uninitialized_backout_al(pointer _Dest, _Alloc& _Al_) : _First(_Dest), _Last(_Dest), _Al(_Al_) {}

  00028	8b 7d 08	 mov	 edi, DWORD PTR __First$[ebp]
  0002b	8b 5d 10	 mov	 ebx, DWORD PTR __Al$[ebp]
  0002e	89 7d e8	 mov	 DWORD PTR __Backout$[ebp], edi
  00031	89 7d ec	 mov	 DWORD PTR __Backout$[ebp+4], edi
  00034	89 5d f0	 mov	 DWORD PTR __Backout$[ebp+8], ebx

; 1888 :     // value-initialize _Count objects to raw _First, using _Al
; 1889 :     using _Ptrty = typename _Alloc::value_type*;
; 1890 :     if constexpr (_Use_memset_value_construct_v<_Ptrty> && _Uses_default_construct<_Alloc, _Ptrty>::value) {
; 1891 : #if _HAS_CXX20
; 1892 :         if (!_STD is_constant_evaluated())
; 1893 : #endif // _HAS_CXX20
; 1894 :         {
; 1895 :             auto _PFirst = _Unfancy(_First);
; 1896 :             _Zero_range(_PFirst, _PFirst + _Count);
; 1897 :             return _First + _Count;
; 1898 :         }
; 1899 :     }
; 1900 : 
; 1901 :     _Uninitialized_backout_al<_Alloc> _Backout{_First, _Al};
; 1902 :     for (; 0 < _Count; --_Count) {

  00037	8b 75 0c	 mov	 esi, DWORD PTR __Count$[ebp]
  0003a	c7 45 fc 00 00
	00 00		 mov	 DWORD PTR __$EHRec$[ebp+8], 0
  00041	85 f6		 test	 esi, esi
  00043	74 15		 je	 SHORT $LN3@Uninitiali
$LL4@Uninitiali:

; 680  :             ::new (_Voidify_iter(_Ptr)) _Objty(_STD forward<_Types>(_Args)...);

  00045	8b cf		 mov	 ecx, edi
  00047	e8 00 00 00 00	 call	 ??0STerrainTexture@@QAE@XZ ; STerrainTexture::STerrainTexture

; 1664 :         ++_Last;

  0004c	81 c7 9c 00 00
	00		 add	 edi, 156		; 0000009cH
  00052	89 7d ec	 mov	 DWORD PTR __Backout$[ebp+4], edi

; 1888 :     // value-initialize _Count objects to raw _First, using _Al
; 1889 :     using _Ptrty = typename _Alloc::value_type*;
; 1890 :     if constexpr (_Use_memset_value_construct_v<_Ptrty> && _Uses_default_construct<_Alloc, _Ptrty>::value) {
; 1891 : #if _HAS_CXX20
; 1892 :         if (!_STD is_constant_evaluated())
; 1893 : #endif // _HAS_CXX20
; 1894 :         {
; 1895 :             auto _PFirst = _Unfancy(_First);
; 1896 :             _Zero_range(_PFirst, _PFirst + _Count);
; 1897 :             return _First + _Count;
; 1898 :         }
; 1899 :     }
; 1900 : 
; 1901 :     _Uninitialized_backout_al<_Alloc> _Backout{_First, _Al};
; 1902 :     for (; 0 < _Count; --_Count) {

  00055	83 ee 01	 sub	 esi, 1
  00058	75 eb		 jne	 SHORT $LL4@Uninitiali
$LN3@Uninitiali:

; 1658 :         _Destroy_range(_First, _Last, _Al);

  0005a	53		 push	 ebx
  0005b	57		 push	 edi
  0005c	57		 push	 edi
  0005d	e8 00 00 00 00	 call	 ??$_Destroy_range@V?$allocator@USTerrainTexture@@@std@@@std@@YAXPAUSTerrainTexture@@QAU1@AAV?$allocator@USTerrainTexture@@@0@@Z ; std::_Destroy_range<std::allocator<STerrainTexture> >
  00062	83 c4 0c	 add	 esp, 12			; 0000000cH

; 1903 :         _Backout._Emplace_back();
; 1904 :     }
; 1905 : 
; 1906 :     return _Backout._Release();

  00065	8b c7		 mov	 eax, edi

; 1907 : }

  00067	8b 4d f4	 mov	 ecx, DWORD PTR __$EHRec$[ebp]
  0006a	64 89 0d 00 00
	00 00		 mov	 DWORD PTR fs:0, ecx
  00071	59		 pop	 ecx
  00072	5f		 pop	 edi
  00073	5e		 pop	 esi
  00074	5b		 pop	 ebx
  00075	8b e5		 mov	 esp, ebp
  00077	5d		 pop	 ebp
  00078	c3		 ret	 0
_TEXT	ENDS
;	COMDAT text$x
text$x	SEGMENT
__unwindfunclet$??$_Uninitialized_value_construct_n@V?$allocator@USTerrainTexture@@@std@@@std@@YAPAUSTerrainTexture@@PAU1@IAAV?$allocator@USTerrainTexture@@@0@@Z$0:
  00000	8d 4d e8	 lea	 ecx, DWORD PTR __Backout$[ebp]
  00003	e9 00 00 00 00	 jmp	 ??1?$_Uninitialized_backout_al@V?$allocator@USTerrainTexture@@@std@@@std@@QAE@XZ ; std::_Uninitialized_backout_al<std::allocator<STerrainTexture> >::~_Uninitialized_backout_al<std::allocator<STerrainTexture> >
  00008	cc		 int	 3
  00009	cc		 int	 3
  0000a	cc		 int	 3
  0000b	cc		 int	 3
  0000c	cc		 int	 3
__ehhandler$??$_Uninitialized_value_construct_n@V?$allocator@USTerrainTexture@@@std@@@std@@YAPAUSTerrainTexture@@PAU1@IAAV?$allocator@USTerrainTexture@@@0@@Z:
  0000d	90		 npad	 1
  0000e	90		 npad	 1
  0000f	8b 54 24 08	 mov	 edx, DWORD PTR [esp+8]
  00013	8d 42 0c	 lea	 eax, DWORD PTR [edx+12]
  00016	8b 4a e4	 mov	 ecx, DWORD PTR [edx-28]
  00019	33 c8		 xor	 ecx, eax
  0001b	e8 00 00 00 00	 call	 @__security_check_cookie@4
  00020	b8 00 00 00 00	 mov	 eax, OFFSET __ehfuncinfo$??$_Uninitialized_value_construct_n@V?$allocator@USTerrainTexture@@@std@@@std@@YAPAUSTerrainTexture@@PAU1@IAAV?$allocator@USTerrainTexture@@@0@@Z
  00025	e9 00 00 00 00	 jmp	 ___CxxFrameHandler3
text$x	ENDS
??$_Uninitialized_value_construct_n@V?$allocator@USTerrainTexture@@@std@@@std@@YAPAUSTerrainTexture@@PAU1@IAAV?$allocator@USTerrainTexture@@@0@@Z ENDP ; std::_Uninitialized_value_construct_n<std::allocator<STerrainTexture> >
; Function compile flags: /Ogtp
; File C:\Program Files\Microsoft Visual Studio\2022\Community\VC\Tools\MSVC\14.34.31933\include\vector
; File C:\Program Files\Microsoft Visual Studio\2022\Community\VC\Tools\MSVC\14.34.31933\include\xmemory
; File C:\Program Files\Microsoft Visual Studio\2022\Community\VC\Tools\MSVC\14.34.31933\include\vector
; File C:\Program Files\Microsoft Visual Studio\2022\Community\VC\Tools\MSVC\14.34.31933\include\xmemory
; File C:\Program Files\Microsoft Visual Studio\2022\Community\VC\Tools\MSVC\14.34.31933\include\vector
; File C:\Program Files\Microsoft Visual Studio\2022\Community\VC\Tools\MSVC\14.34.31933\include\xmemory
; File C:\Program Files\Microsoft Visual Studio\2022\Community\VC\Tools\MSVC\14.34.31933\include\vector
; File C:\Program Files\Microsoft Visual Studio\2022\Community\VC\Tools\MSVC\14.34.31933\include\xmemory
; File C:\Program Files\Microsoft Visual Studio\2022\Community\VC\Tools\MSVC\14.34.31933\include\vector
; File C:\Program Files\Microsoft Visual Studio\2022\Community\VC\Tools\MSVC\14.34.31933\include\xmemory
; File C:\Program Files\Microsoft Visual Studio\2022\Community\VC\Tools\MSVC\14.34.31933\include\vector
;	COMDAT ??$_Resize_reallocate@U_Value_init_tag@std@@@?$vector@USTerrainTexture@@V?$allocator@USTerrainTexture@@@std@@@std@@AAEXIABU_Value_init_tag@1@@Z
_TEXT	SEGMENT
__Appended_first$ = -36					; size = 4
_this$ = -32						; size = 4
__Oldsize$1$ = -28					; size = 4
__Appended_last$ = -28					; size = 4
$T2 = -24						; size = 4
__Newcapacity$ = -20					; size = 4
__$EHRec$ = -16						; size = 16
__Newsize$ = 8						; size = 4
__Val$ = 12						; size = 4
??$_Resize_reallocate@U_Value_init_tag@std@@@?$vector@USTerrainTexture@@V?$allocator@USTerrainTexture@@@std@@@std@@AAEXIABU_Value_init_tag@1@@Z PROC ; std::vector<STerrainTexture,std::allocator<STerrainTexture> >::_Resize_reallocate<std::_Value_init_tag>, COMDAT
; _this$ = ecx

; 1574 :     _CONSTEXPR20 void _Resize_reallocate(const size_type _Newsize, const _Ty2& _Val) {

  00000	55		 push	 ebp
  00001	8b ec		 mov	 ebp, esp
  00003	6a ff		 push	 -1
  00005	68 00 00 00 00	 push	 __ehhandler$??$_Resize_reallocate@U_Value_init_tag@std@@@?$vector@USTerrainTexture@@V?$allocator@USTerrainTexture@@@std@@@std@@AAEXIABU_Value_init_tag@1@@Z
  0000a	64 a1 00 00 00
	00		 mov	 eax, DWORD PTR fs:0
  00010	50		 push	 eax
  00011	83 ec 18	 sub	 esp, 24			; 00000018H
  00014	53		 push	 ebx
  00015	56		 push	 esi
  00016	57		 push	 edi
  00017	a1 00 00 00 00	 mov	 eax, DWORD PTR ___security_cookie
  0001c	33 c5		 xor	 eax, ebp
  0001e	50		 push	 eax
  0001f	8d 45 f4	 lea	 eax, DWORD PTR __$EHRec$[ebp+4]
  00022	64 a3 00 00 00
	00		 mov	 DWORD PTR fs:0, eax
  00028	89 65 f0	 mov	 DWORD PTR __$EHRec$[ebp], esp
  0002b	8b d9		 mov	 ebx, ecx
  0002d	89 5d e0	 mov	 DWORD PTR _this$[ebp], ebx

; 1575 :         if (_Newsize > max_size()) {

  00030	8b 7d 08	 mov	 edi, DWORD PTR __Newsize$[ebp]
  00033	81 ff 41 1a a4
	01		 cmp	 edi, 27531841		; 01a41a41H
  00039	0f 87 2e 01 00
	00		 ja	 $LN33@Resize_rea

; 1577 :         }
; 1578 : 
; 1579 :         auto& _Al         = _Getal();
; 1580 :         auto& _My_data    = _Mypair._Myval2;
; 1581 :         pointer& _Myfirst = _My_data._Myfirst;
; 1582 :         pointer& _Mylast  = _My_data._Mylast;
; 1583 : 
; 1584 :         const auto _Oldsize          = static_cast<size_type>(_Mylast - _Myfirst);

  0003f	8b 4b 04	 mov	 ecx, DWORD PTR [ebx+4]
  00042	b8 d3 20 0d d2	 mov	 eax, -770891565		; d20d20d3H
  00047	2b 0b		 sub	 ecx, DWORD PTR [ebx]
  00049	f7 e9		 imul	 ecx
  0004b	03 d1		 add	 edx, ecx

; 1942 :         return static_cast<size_type>(_My_data._Myend - _My_data._Myfirst);

  0004d	8b 4b 08	 mov	 ecx, DWORD PTR [ebx+8]
  00050	2b 0b		 sub	 ecx, DWORD PTR [ebx]

; 1577 :         }
; 1578 : 
; 1579 :         auto& _Al         = _Getal();
; 1580 :         auto& _My_data    = _Mypair._Myval2;
; 1581 :         pointer& _Myfirst = _My_data._Myfirst;
; 1582 :         pointer& _Mylast  = _My_data._Mylast;
; 1583 : 
; 1584 :         const auto _Oldsize          = static_cast<size_type>(_Mylast - _Myfirst);

  00052	c1 fa 07	 sar	 edx, 7
  00055	8b c2		 mov	 eax, edx
  00057	c1 e8 1f	 shr	 eax, 31			; 0000001fH
  0005a	03 c2		 add	 eax, edx
  0005c	89 45 e4	 mov	 DWORD PTR __Oldsize$1$[ebp], eax

; 1942 :         return static_cast<size_type>(_My_data._Myend - _My_data._Myfirst);

  0005f	b8 d3 20 0d d2	 mov	 eax, -770891565		; d20d20d3H
  00064	f7 e9		 imul	 ecx

; 2029 :         if (_Oldcapacity > _Max - _Oldcapacity / 2) {

  00066	b8 41 1a a4 01	 mov	 eax, 27531841		; 01a41a41H

; 1942 :         return static_cast<size_type>(_My_data._Myend - _My_data._Myfirst);

  0006b	03 d1		 add	 edx, ecx
  0006d	c1 fa 07	 sar	 edx, 7
  00070	8b ca		 mov	 ecx, edx
  00072	c1 e9 1f	 shr	 ecx, 31			; 0000001fH
  00075	03 ca		 add	 ecx, edx

; 2029 :         if (_Oldcapacity > _Max - _Oldcapacity / 2) {

  00077	8b d1		 mov	 edx, ecx
  00079	d1 ea		 shr	 edx, 1
  0007b	2b c2		 sub	 eax, edx
  0007d	3b c8		 cmp	 ecx, eax
  0007f	76 1a		 jbe	 SHORT $LN10@Resize_rea

; 2030 :             return _Max; // geometric growth would overflow

  00081	b8 9c ff ff ff	 mov	 eax, -100		; ffffff9cH
  00086	be 41 1a a4 01	 mov	 esi, 27531841		; 01a41a41H
; File C:\Program Files\Microsoft Visual Studio\2022\Community\VC\Tools\MSVC\14.34.31933\include\xmemory

; 229  :             return _Allocate_manually_vector_aligned<_Traits>(_Bytes);

  0008b	50		 push	 eax
; File C:\Program Files\Microsoft Visual Studio\2022\Community\VC\Tools\MSVC\14.34.31933\include\vector

; 2030 :             return _Max; // geometric growth would overflow

  0008c	89 75 ec	 mov	 DWORD PTR __Newcapacity$[ebp], esi
; File C:\Program Files\Microsoft Visual Studio\2022\Community\VC\Tools\MSVC\14.34.31933\include\xmemory

; 229  :             return _Allocate_manually_vector_aligned<_Traits>(_Bytes);

  0008f	e8 00 00 00 00	 call	 ??$_Allocate_manually_vector_aligned@U_Default_allocate_traits@std@@@std@@YAPAXI@Z ; std::_Allocate_manually_vector_aligned<std::_Default_allocate_traits>
  00094	83 c4 04	 add	 esp, 4
  00097	8b f8		 mov	 edi, eax
  00099	eb 4d		 jmp	 SHORT $LN31@Resize_rea
$LN10@Resize_rea:
; File C:\Program Files\Microsoft Visual Studio\2022\Community\VC\Tools\MSVC\14.34.31933\include\vector

; 2033 :         const size_type _Geometric = _Oldcapacity + _Oldcapacity / 2;

  0009b	8d 34 0a	 lea	 esi, DWORD PTR [edx+ecx]

; 2034 : 
; 2035 :         if (_Geometric < _Newsize) {

  0009e	3b f7		 cmp	 esi, edi
  000a0	73 1f		 jae	 SHORT $LN11@Resize_rea

; 2036 :             return _Newsize; // geometric growth would be insufficient

  000a2	8b f7		 mov	 esi, edi
  000a4	89 75 ec	 mov	 DWORD PTR __Newcapacity$[ebp], esi
$LN18@Resize_rea:
; File C:\Program Files\Microsoft Visual Studio\2022\Community\VC\Tools\MSVC\14.34.31933\include\xmemory

; 65   :     return _Count * _Ty_size;

  000a7	69 c6 9c 00 00
	00		 imul	 eax, esi, 156

; 228  :         if (_Bytes >= _Big_allocation_threshold) { // boost the alignment of big allocations to help autovectorization

  000ad	3d 00 10 00 00	 cmp	 eax, 4096		; 00001000H
  000b2	72 1e		 jb	 SHORT $LN22@Resize_rea

; 229  :             return _Allocate_manually_vector_aligned<_Traits>(_Bytes);

  000b4	50		 push	 eax
  000b5	e8 00 00 00 00	 call	 ??$_Allocate_manually_vector_aligned@U_Default_allocate_traits@std@@@std@@YAPAXI@Z ; std::_Allocate_manually_vector_aligned<std::_Default_allocate_traits>
  000ba	83 c4 04	 add	 esp, 4
  000bd	8b f8		 mov	 edi, eax
  000bf	eb 27		 jmp	 SHORT $LN31@Resize_rea
$LN11@Resize_rea:
; File C:\Program Files\Microsoft Visual Studio\2022\Community\VC\Tools\MSVC\14.34.31933\include\vector

; 2039 :         return _Geometric; // geometric growth is sufficient

  000c1	89 75 ec	 mov	 DWORD PTR __Newcapacity$[ebp], esi
; File C:\Program Files\Microsoft Visual Studio\2022\Community\VC\Tools\MSVC\14.34.31933\include\xmemory

; 60   :         if (_Count > _Max_possible) {

  000c4	81 fe 41 1a a4
	01		 cmp	 esi, 27531841		; 01a41a41H
  000ca	0f 87 a2 00 00
	00		 ja	 $LN34@Resize_rea
  000d0	eb d5		 jmp	 SHORT $LN18@Resize_rea
$LN22@Resize_rea:

; 234  :     if (_Bytes != 0) {

  000d2	85 c0		 test	 eax, eax
  000d4	74 10		 je	 SHORT $LN23@Resize_rea

; 77   :         return ::operator new(_Bytes);

  000d6	50		 push	 eax
  000d7	e8 00 00 00 00	 call	 ??2@YAPAXI@Z		; operator new
  000dc	83 c4 04	 add	 esp, 4

; 235  :         return _Traits::_Allocate(_Bytes);

  000df	89 45 e8	 mov	 DWORD PTR $T2[ebp], eax
  000e2	8b f8		 mov	 edi, eax
  000e4	eb 05		 jmp	 SHORT $LN21@Resize_rea
$LN23@Resize_rea:

; 236  :     }
; 237  : 
; 238  :     return nullptr;

  000e6	33 ff		 xor	 edi, edi
$LN31@Resize_rea:
; File C:\Program Files\Microsoft Visual Studio\2022\Community\VC\Tools\MSVC\14.34.31933\include\vector

; 1588 :         const pointer _Appended_first = _Newvec + _Oldsize;

  000e8	89 7d e8	 mov	 DWORD PTR $T2[ebp], edi
$LN21@Resize_rea:
  000eb	8b 55 e4	 mov	 edx, DWORD PTR __Oldsize$1$[ebp]

; 1589 :         pointer _Appended_last        = _Appended_first;
; 1590 : 
; 1591 :         _TRY_BEGIN
; 1592 :         if constexpr (is_same_v<_Ty2, _Ty>) {
; 1593 :             _Appended_last = _Uninitialized_fill_n(_Appended_first, _Newsize - _Oldsize, _Val, _Al);
; 1594 :         } else {
; 1595 :             _STL_INTERNAL_STATIC_ASSERT(is_same_v<_Ty2, _Value_init_tag>);
; 1596 :             _Appended_last = _Uninitialized_value_construct_n(_Appended_first, _Newsize - _Oldsize, _Al);

  000ee	8b 45 08	 mov	 eax, DWORD PTR __Newsize$[ebp]
  000f1	69 ca 9c 00 00
	00		 imul	 ecx, edx, 156
  000f7	2b c2		 sub	 eax, edx
  000f9	53		 push	 ebx
  000fa	50		 push	 eax
  000fb	c7 45 fc 00 00
	00 00		 mov	 DWORD PTR __$EHRec$[ebp+12], 0
  00102	03 cf		 add	 ecx, edi
  00104	51		 push	 ecx
  00105	89 4d dc	 mov	 DWORD PTR __Appended_first$[ebp], ecx
  00108	89 4d e4	 mov	 DWORD PTR __Appended_last$[ebp], ecx
  0010b	e8 00 00 00 00	 call	 ??$_Uninitialized_value_construct_n@V?$allocator@USTerrainTexture@@@std@@@std@@YAPAUSTerrainTexture@@PAU1@IAAV?$allocator@USTerrainTexture@@@0@@Z ; std::_Uninitialized_value_construct_n<std::allocator<STerrainTexture> >
  00110	83 c4 0c	 add	 esp, 12			; 0000000cH
  00113	89 45 e4	 mov	 DWORD PTR __Appended_last$[ebp], eax

; 1597 :         }
; 1598 : 
; 1599 :         if constexpr (is_nothrow_move_constructible_v<_Ty> || !is_copy_constructible_v<_Ty>) {
; 1600 :             _Uninitialized_move(_Myfirst, _Mylast, _Newvec, _Al);
; 1601 :         } else {
; 1602 :             _Uninitialized_copy(_Myfirst, _Mylast, _Newvec, _Al);

  00116	53		 push	 ebx
  00117	57		 push	 edi
  00118	ff 73 04	 push	 DWORD PTR [ebx+4]
  0011b	ff 33		 push	 DWORD PTR [ebx]
  0011d	e8 00 00 00 00	 call	 ??$_Uninitialized_copy@PAUSTerrainTexture@@PAU1@V?$allocator@USTerrainTexture@@@std@@@std@@YAPAUSTerrainTexture@@PAU1@00AAV?$allocator@USTerrainTexture@@@0@@Z ; std::_Uninitialized_copy<STerrainTexture *,STerrainTexture *,std::allocator<STerrainTexture> >
  00122	83 c4 10	 add	 esp, 16			; 00000010H

; 1608 :         _CATCH_END
; 1609 : 
; 1610 :         _Change_array(_Newvec, _Newsize, _Newcapacity);

  00125	8b cb		 mov	 ecx, ebx
  00127	56		 push	 esi
  00128	ff 75 08	 push	 DWORD PTR __Newsize$[ebp]
  0012b	57		 push	 edi
  0012c	e8 00 00 00 00	 call	 ?_Change_array@?$vector@USTerrainTexture@@V?$allocator@USTerrainTexture@@@std@@@std@@AAEXQAUSTerrainTexture@@II@Z ; std::vector<STerrainTexture,std::allocator<STerrainTexture> >::_Change_array

; 1611 :     }

  00131	8b 4d f4	 mov	 ecx, DWORD PTR __$EHRec$[ebp+4]
  00134	64 89 0d 00 00
	00 00		 mov	 DWORD PTR fs:0, ecx
  0013b	59		 pop	 ecx
  0013c	5f		 pop	 edi
  0013d	5e		 pop	 esi
  0013e	5b		 pop	 ebx
  0013f	8b e5		 mov	 esp, ebp
  00141	5d		 pop	 ebp
  00142	c2 08 00	 ret	 8
__catch$??$_Resize_reallocate@U_Value_init_tag@std@@@?$vector@USTerrainTexture@@V?$allocator@USTerrainTexture@@@std@@@std@@AAEXIABU_Value_init_tag@1@@Z$0:

; 1603 :         }
; 1604 :         _CATCH_ALL
; 1605 :         _Destroy_range(_Appended_first, _Appended_last, _Al);

  00145	8b 75 e0	 mov	 esi, DWORD PTR _this$[ebp]
  00148	56		 push	 esi
  00149	ff 75 e4	 push	 DWORD PTR __Appended_last$[ebp]
  0014c	ff 75 dc	 push	 DWORD PTR __Appended_first$[ebp]
  0014f	e8 00 00 00 00	 call	 ??$_Destroy_range@V?$allocator@USTerrainTexture@@@std@@@std@@YAXPAUSTerrainTexture@@QAU1@AAV?$allocator@USTerrainTexture@@@0@@Z ; std::_Destroy_range<std::allocator<STerrainTexture> >
  00154	83 c4 0c	 add	 esp, 12			; 0000000cH

; 1606 :         _Al.deallocate(_Newvec, _Newcapacity);

  00157	8b ce		 mov	 ecx, esi
  00159	ff 75 ec	 push	 DWORD PTR __Newcapacity$[ebp]
  0015c	ff 75 e8	 push	 DWORD PTR $T2[ebp]
  0015f	e8 00 00 00 00	 call	 ?deallocate@?$allocator@USTerrainTexture@@@std@@QAEXQAUSTerrainTexture@@I@Z ; std::allocator<STerrainTexture>::deallocate

; 1607 :         _RERAISE;

  00164	6a 00		 push	 0
  00166	6a 00		 push	 0
  00168	e8 00 00 00 00	 call	 __CxxThrowException@8
$LN33@Resize_rea:

; 1576 :             _Xlength();

  0016d	e8 00 00 00 00	 call	 ?_Xlength@?$vector@USTerrainTexture@@V?$allocator@USTerrainTexture@@@std@@@std@@CAXXZ ; std::vector<STerrainTexture,std::allocator<STerrainTexture> >::_Xlength
$LN34@Resize_rea:
; File C:\Program Files\Microsoft Visual Studio\2022\Community\VC\Tools\MSVC\14.34.31933\include\xmemory

; 61   :             _Throw_bad_array_new_length(); // multiply overflow

  00172	e8 00 00 00 00	 call	 ?_Throw_bad_array_new_length@std@@YAXXZ ; std::_Throw_bad_array_new_length
$LN30@Resize_rea:
  00177	cc		 int	 3
  00178	cc		 int	 3
  00179	cc		 int	 3
  0017a	cc		 int	 3
  0017b	cc		 int	 3
  0017c	cc		 int	 3
_TEXT	ENDS
;	COMDAT text$x
text$x	SEGMENT
__ehhandler$??$_Resize_reallocate@U_Value_init_tag@std@@@?$vector@USTerrainTexture@@V?$allocator@USTerrainTexture@@@std@@@std@@AAEXIABU_Value_init_tag@1@@Z:
  00000	90		 npad	 1
  00001	90		 npad	 1
  00002	8b 54 24 08	 mov	 edx, DWORD PTR [esp+8]
  00006	8d 42 0c	 lea	 eax, DWORD PTR [edx+12]
  00009	8b 4a d8	 mov	 ecx, DWORD PTR [edx-40]
  0000c	33 c8		 xor	 ecx, eax
  0000e	e8 00 00 00 00	 call	 @__security_check_cookie@4
  00013	b8 00 00 00 00	 mov	 eax, OFFSET __ehfuncinfo$??$_Resize_reallocate@U_Value_init_tag@std@@@?$vector@USTerrainTexture@@V?$allocator@USTerrainTexture@@@std@@@std@@AAEXIABU_Value_init_tag@1@@Z
  00018	e9 00 00 00 00	 jmp	 ___CxxFrameHandler3
text$x	ENDS
??$_Resize_reallocate@U_Value_init_tag@std@@@?$vector@USTerrainTexture@@V?$allocator@USTerrainTexture@@@std@@@std@@AAEXIABU_Value_init_tag@1@@Z ENDP ; std::vector<STerrainTexture,std::allocator<STerrainTexture> >::_Resize_reallocate<std::_Value_init_tag>
; Function compile flags: /Ogtp
; File C:\Program Files\Microsoft Visual Studio\2022\Community\VC\Tools\MSVC\14.34.31933\include\xtree
; File C:\Program Files\Microsoft Visual Studio\2022\Community\VC\Tools\MSVC\14.34.31933\include\utility
; File C:\Program Files\Microsoft Visual Studio\2022\Community\VC\Tools\MSVC\14.34.31933\include\xtree
; File C:\Program Files\Microsoft Visual Studio\2022\Community\VC\Tools\MSVC\14.34.31933\include\xmemory
; File C:\Program Files\Microsoft Visual Studio\2022\Community\VC\Tools\MSVC\14.34.31933\include\xtree
; File C:\Program Files\Microsoft Visual Studio\2022\Community\VC\Tools\MSVC\14.34.31933\include\xmemory
; File C:\Program Files\Microsoft Visual Studio\2022\Community\VC\Tools\MSVC\14.34.31933\include\xtree
;	COMDAT ??$_Erase_tree@V?$allocator@U?$_Tree_node@U?$pair@$$CBV?$basic_string@DU?$char_traits@D@std@@V?$allocator@D@2@@std@@V?$vector@V?$basic_string@DU?$char_traits@D@std@@V?$allocator@D@2@@std@@V?$allocator@V?$basic_string@DU?$char_traits@D@std@@V?$allocator@D@2@@std@@@2@@2@@std@@PAX@std@@@std@@@?$_Tree_val@U?$_Tree_simple_types@U?$pair@$$CBV?$basic_string@DU?$char_traits@D@std@@V?$allocator@D@2@@std@@V?$vector@V?$basic_string@DU?$char_traits@D@std@@V?$allocator@D@2@@std@@V?$allocator@V?$basic_string@DU?$char_traits@D@std@@V?$allocator@D@2@@std@@@2@@2@@std@@@std@@@std@@QAEXAAV?$allocator@U?$_Tree_node@U?$pair@$$CBV?$basic_string@DU?$char_traits@D@std@@V?$allocator@D@2@@std@@V?$vector@V?$basic_string@DU?$char_traits@D@std@@V?$allocator@D@2@@std@@V?$allocator@V?$basic_string@DU?$char_traits@D@std@@V?$allocator@D@2@@std@@@2@@2@@std@@PAX@std@@@1@PAU?$_Tree_node@U?$pair@$$CBV?$basic_string@DU?$char_traits@D@std@@V?$allocator@D@2@@std@@V?$vector@V?$basic_string@DU?$char_traits@D@std@@V?$allocator@D@2@@std@@V?$allocator@V?$basic_string@DU?$char_traits@D@std@@V?$allocator@D@2@@std@@@2@@2@@std@@PAX@1@@Z
_TEXT	SEGMENT
_this$1$ = -4						; size = 4
__Al$ = 8						; size = 4
__Rootnode$ = 12					; size = 4
??$_Erase_tree@V?$allocator@U?$_Tree_node@U?$pair@$$CBV?$basic_string@DU?$char_traits@D@std@@V?$allocator@D@2@@std@@V?$vector@V?$basic_string@DU?$char_traits@D@std@@V?$allocator@D@2@@std@@V?$allocator@V?$basic_string@DU?$char_traits@D@std@@V?$allocator@D@2@@std@@@2@@2@@std@@PAX@std@@@std@@@?$_Tree_val@U?$_Tree_simple_types@U?$pair@$$CBV?$basic_string@DU?$char_traits@D@std@@V?$allocator@D@2@@std@@V?$vector@V?$basic_string@DU?$char_traits@D@std@@V?$allocator@D@2@@std@@V?$allocator@V?$basic_string@DU?$char_traits@D@std@@V?$allocator@D@2@@std@@@2@@2@@std@@@std@@@std@@QAEXAAV?$allocator@U?$_Tree_node@U?$pair@$$CBV?$basic_string@DU?$char_traits@D@std@@V?$allocator@D@2@@std@@V?$vector@V?$basic_string@DU?$char_traits@D@std@@V?$allocator@D@2@@std@@V?$allocator@V?$basic_string@DU?$char_traits@D@std@@V?$allocator@D@2@@std@@@2@@2@@std@@PAX@std@@@1@PAU?$_Tree_node@U?$pair@$$CBV?$basic_string@DU?$char_traits@D@std@@V?$allocator@D@2@@std@@V?$vector@V?$basic_string@DU?$char_traits@D@std@@V?$allocator@D@2@@std@@V?$allocator@V?$basic_string@DU?$char_traits@D@std@@V?$allocator@D@2@@std@@@2@@2@@std@@PAX@1@@Z PROC ; std::_Tree_val<std::_Tree_simple_types<std::pair<std::basic_string<char,std::char_traits<char>,std::allocator<char> > const ,std::vector<std::basic_string<char,std::char_traits<char>,std::allocator<char> >,std::allocator<std::basic_string<char,std::char_traits<char>,std::allocator<char> > > > > > >::_Erase_tree<std::allocator<std::_Tree_node<std::pair<std::basic_string<char,std::char_traits<char>,std::allocator<char> > const ,std::vector<std::basic_string<char,std::char_traits<char>,std::allocator<char> >,std::allocator<std::basic_string<char,std::char_traits<char>,std::allocator<char> > > > >,void *> > >, COMDAT
; _this$ = ecx

; 744  :     void _Erase_tree(_Alnode& _Al, _Nodeptr _Rootnode) noexcept {

  00000	55		 push	 ebp
  00001	8b ec		 mov	 ebp, esp
  00003	51		 push	 ecx
  00004	56		 push	 esi

; 745  :         while (!_Rootnode->_Isnil) { // free subtrees, then node

  00005	8b 75 0c	 mov	 esi, DWORD PTR __Rootnode$[ebp]
  00008	8b c1		 mov	 eax, ecx
  0000a	89 45 fc	 mov	 DWORD PTR _this$1$[ebp], eax
  0000d	80 7e 0d 00	 cmp	 BYTE PTR [esi+13], 0
  00011	75 34		 jne	 SHORT $LN3@Erase_tree
  00013	53		 push	 ebx
  00014	8b 5d 08	 mov	 ebx, DWORD PTR __Al$[ebp]
  00017	57		 push	 edi
$LL2@Erase_tree:

; 746  :             _Erase_tree(_Al, _Rootnode->_Right);

  00018	ff 76 08	 push	 DWORD PTR [esi+8]
  0001b	8b c8		 mov	 ecx, eax
  0001d	53		 push	 ebx
  0001e	e8 00 00 00 00	 call	 ??$_Erase_tree@V?$allocator@U?$_Tree_node@U?$pair@$$CBV?$basic_string@DU?$char_traits@D@std@@V?$allocator@D@2@@std@@V?$vector@V?$basic_string@DU?$char_traits@D@std@@V?$allocator@D@2@@std@@V?$allocator@V?$basic_string@DU?$char_traits@D@std@@V?$allocator@D@2@@std@@@2@@2@@std@@PAX@std@@@std@@@?$_Tree_val@U?$_Tree_simple_types@U?$pair@$$CBV?$basic_string@DU?$char_traits@D@std@@V?$allocator@D@2@@std@@V?$vector@V?$basic_string@DU?$char_traits@D@std@@V?$allocator@D@2@@std@@V?$allocator@V?$basic_string@DU?$char_traits@D@std@@V?$allocator@D@2@@std@@@2@@2@@std@@@std@@@std@@QAEXAAV?$allocator@U?$_Tree_node@U?$pair@$$CBV?$basic_string@DU?$char_traits@D@std@@V?$allocator@D@2@@std@@V?$vector@V?$basic_string@DU?$char_traits@D@std@@V?$allocator@D@2@@std@@V?$allocator@V?$basic_string@DU?$char_traits@D@std@@V?$allocator@D@2@@std@@@2@@2@@std@@PAX@std@@@1@PAU?$_Tree_node@U?$pair@$$CBV?$basic_string@DU?$char_traits@D@std@@V?$allocator@D@2@@std@@V?$vector@V?$basic_string@DU?$char_traits@D@std@@V?$allocator@D@2@@std@@V?$allocator@V?$basic_string@DU?$char_traits@D@std@@V?$allocator@D@2@@std@@@2@@2@@std@@PAX@1@@Z ; std::_Tree_val<std::_Tree_simple_types<std::pair<std::basic_string<char,std::char_traits<char>,std::allocator<char> > const ,std::vector<std::basic_string<char,std::char_traits<char>,std::allocator<char> >,std::allocator<std::basic_string<char,std::char_traits<char>,std::allocator<char> > > > > > >::_Erase_tree<std::allocator<std::_Tree_node<std::pair<std::basic_string<char,std::char_traits<char>,std::allocator<char> > const ,std::vector<std::basic_string<char,std::char_traits<char>,std::allocator<char> >,std::allocator<std::basic_string<char,std::char_traits<char>,std::allocator<char> > > > >,void *> > >
; File C:\Program Files\Microsoft Visual Studio\2022\Community\VC\Tools\MSVC\14.34.31933\include\utility

; 653  :     _Ty _Old_val = static_cast<_Ty&&>(_Val);

  00023	8b fe		 mov	 edi, esi

; 654  :     _Val         = static_cast<_Other&&>(_New_val);

  00025	8b 36		 mov	 esi, DWORD PTR [esi]
; File C:\Program Files\Microsoft Visual Studio\2022\Community\VC\Tools\MSVC\14.34.31933\include\xtree

; 382  :         allocator_traits<_Alloc>::destroy(_Al, _STD addressof(_Ptr->_Myval));

  00027	8d 47 10	 lea	 eax, DWORD PTR [edi+16]
  0002a	50		 push	 eax
  0002b	53		 push	 ebx
  0002c	e8 00 00 00 00	 call	 ??$destroy@U?$pair@$$CBV?$basic_string@DU?$char_traits@D@std@@V?$allocator@D@2@@std@@V?$vector@V?$basic_string@DU?$char_traits@D@std@@V?$allocator@D@2@@std@@V?$allocator@V?$basic_string@DU?$char_traits@D@std@@V?$allocator@D@2@@std@@@2@@2@@std@@@?$_Default_allocator_traits@V?$allocator@U?$_Tree_node@U?$pair@$$CBV?$basic_string@DU?$char_traits@D@std@@V?$allocator@D@2@@std@@V?$vector@V?$basic_string@DU?$char_traits@D@std@@V?$allocator@D@2@@std@@V?$allocator@V?$basic_string@DU?$char_traits@D@std@@V?$allocator@D@2@@std@@@2@@2@@std@@PAX@std@@@std@@@std@@SAXAAV?$allocator@U?$_Tree_node@U?$pair@$$CBV?$basic_string@DU?$char_traits@D@std@@V?$allocator@D@2@@std@@V?$vector@V?$basic_string@DU?$char_traits@D@std@@V?$allocator@D@2@@std@@V?$allocator@V?$basic_string@DU?$char_traits@D@std@@V?$allocator@D@2@@std@@@2@@2@@std@@PAX@std@@@1@QAU?$pair@$$CBV?$basic_string@DU?$char_traits@D@std@@V?$allocator@D@2@@std@@V?$vector@V?$basic_string@DU?$char_traits@D@std@@V?$allocator@D@2@@std@@V?$allocator@V?$basic_string@DU?$char_traits@D@std@@V?$allocator@D@2@@std@@@2@@2@@1@@Z ; std::_Default_allocator_traits<std::allocator<std::_Tree_node<std::pair<std::basic_string<char,std::char_traits<char>,std::allocator<char> > const ,std::vector<std::basic_string<char,std::char_traits<char>,std::allocator<char> >,std::allocator<std::basic_string<char,std::char_traits<char>,std::allocator<char> > > > >,void *> > >::destroy<std::pair<std::basic_string<char,std::char_traits<char>,std::allocator<char> > const ,std::vector<std::basic_string<char,std::char_traits<char>,std::allocator<char> >,std::allocator<std::basic_string<char,std::char_traits<char>,std::allocator<char> > > > > >
; File C:\Program Files\Microsoft Visual Studio\2022\Community\VC\Tools\MSVC\14.34.31933\include\xmemory

; 255  :         ::operator delete(_Ptr, _Bytes);

  00031	6a 34		 push	 52			; 00000034H
  00033	57		 push	 edi
  00034	e8 00 00 00 00	 call	 ??3@YAXPAXI@Z		; operator delete
; File C:\Program Files\Microsoft Visual Studio\2022\Community\VC\Tools\MSVC\14.34.31933\include\xtree

; 745  :         while (!_Rootnode->_Isnil) { // free subtrees, then node

  00039	8b 45 fc	 mov	 eax, DWORD PTR _this$1$[ebp]
; File C:\Program Files\Microsoft Visual Studio\2022\Community\VC\Tools\MSVC\14.34.31933\include\xmemory

; 255  :         ::operator delete(_Ptr, _Bytes);

  0003c	83 c4 10	 add	 esp, 16			; 00000010H
; File C:\Program Files\Microsoft Visual Studio\2022\Community\VC\Tools\MSVC\14.34.31933\include\xtree

; 745  :         while (!_Rootnode->_Isnil) { // free subtrees, then node

  0003f	80 7e 0d 00	 cmp	 BYTE PTR [esi+13], 0
  00043	74 d3		 je	 SHORT $LL2@Erase_tree
  00045	5f		 pop	 edi
  00046	5b		 pop	 ebx
$LN3@Erase_tree:
  00047	5e		 pop	 esi

; 747  :             _Alnode::value_type::_Freenode(_Al, _STD exchange(_Rootnode, _Rootnode->_Left));
; 748  :         }
; 749  :     }

  00048	8b e5		 mov	 esp, ebp
  0004a	5d		 pop	 ebp
  0004b	c2 08 00	 ret	 8
??$_Erase_tree@V?$allocator@U?$_Tree_node@U?$pair@$$CBV?$basic_string@DU?$char_traits@D@std@@V?$allocator@D@2@@std@@V?$vector@V?$basic_string@DU?$char_traits@D@std@@V?$allocator@D@2@@std@@V?$allocator@V?$basic_string@DU?$char_traits@D@std@@V?$allocator@D@2@@std@@@2@@2@@std@@PAX@std@@@std@@@?$_Tree_val@U?$_Tree_simple_types@U?$pair@$$CBV?$basic_string@DU?$char_traits@D@std@@V?$allocator@D@2@@std@@V?$vector@V?$basic_string@DU?$char_traits@D@std@@V?$allocator@D@2@@std@@V?$allocator@V?$basic_string@DU?$char_traits@D@std@@V?$allocator@D@2@@std@@@2@@2@@std@@@std@@@std@@QAEXAAV?$allocator@U?$_Tree_node@U?$pair@$$CBV?$basic_string@DU?$char_traits@D@std@@V?$allocator@D@2@@std@@V?$vector@V?$basic_string@DU?$char_traits@D@std@@V?$allocator@D@2@@std@@V?$allocator@V?$basic_string@DU?$char_traits@D@std@@V?$allocator@D@2@@std@@@2@@2@@std@@PAX@std@@@1@PAU?$_Tree_node@U?$pair@$$CBV?$basic_string@DU?$char_traits@D@std@@V?$allocator@D@2@@std@@V?$vector@V?$basic_string@DU?$char_traits@D@std@@V?$allocator@D@2@@std@@V?$allocator@V?$basic_string@DU?$char_traits@D@std@@V?$allocator@D@2@@std@@@2@@2@@std@@PAX@1@@Z ENDP ; std::_Tree_val<std::_Tree_simple_types<std::pair<std::basic_string<char,std::char_traits<char>,std::allocator<char> > const ,std::vector<std::basic_string<char,std::char_traits<char>,std::allocator<char> >,std::allocator<std::basic_string<char,std::char_traits<char>,std::allocator<char> > > > > > >::_Erase_tree<std::allocator<std::_Tree_node<std::pair<std::basic_string<char,std::char_traits<char>,std::allocator<char> > const ,std::vector<std::basic_string<char,std::char_traits<char>,std::allocator<char> >,std::allocator<std::basic_string<char,std::char_traits<char>,std::allocator<char> > > > >,void *> > >
_TEXT	ENDS
; Function compile flags: /Ogtp
; File C:\Program Files\Microsoft Visual Studio\2022\Community\VC\Tools\MSVC\14.34.31933\include\xmemory
;	COMDAT ??1?$_Alloc_construct_ptr@V?$allocator@U?$_Tree_node@U?$pair@$$CBV?$basic_string@DU?$char_traits@D@std@@V?$allocator@D@2@@std@@V?$vector@V?$basic_string@DU?$char_traits@D@std@@V?$allocator@D@2@@std@@V?$allocator@V?$basic_string@DU?$char_traits@D@std@@V?$allocator@D@2@@std@@@2@@2@@std@@PAX@std@@@std@@@std@@QAE@XZ
_TEXT	SEGMENT
??1?$_Alloc_construct_ptr@V?$allocator@U?$_Tree_node@U?$pair@$$CBV?$basic_string@DU?$char_traits@D@std@@V?$allocator@D@2@@std@@V?$vector@V?$basic_string@DU?$char_traits@D@std@@V?$allocator@D@2@@std@@V?$allocator@V?$basic_string@DU?$char_traits@D@std@@V?$allocator@D@2@@std@@@2@@2@@std@@PAX@std@@@std@@@std@@QAE@XZ PROC ; std::_Alloc_construct_ptr<std::allocator<std::_Tree_node<std::pair<std::basic_string<char,std::char_traits<char>,std::allocator<char> > const ,std::vector<std::basic_string<char,std::char_traits<char>,std::allocator<char> >,std::allocator<std::basic_string<char,std::char_traits<char>,std::allocator<char> > > > >,void *> > >::~_Alloc_construct_ptr<std::allocator<std::_Tree_node<std::pair<std::basic_string<char,std::char_traits<char>,std::allocator<char> > const ,std::vector<std::basic_string<char,std::char_traits<char>,std::allocator<char> >,std::allocator<std::basic_string<char,std::char_traits<char>,std::allocator<char> > > > >,void *> > >, COMDAT
; _this$ = ecx

; 1017 :         if (_Ptr) {

  00000	8b 41 04	 mov	 eax, DWORD PTR [ecx+4]
  00003	85 c0		 test	 eax, eax
  00005	74 0b		 je	 SHORT $LN8@Alloc_cons

; 255  :         ::operator delete(_Ptr, _Bytes);

  00007	6a 34		 push	 52			; 00000034H
  00009	50		 push	 eax
  0000a	e8 00 00 00 00	 call	 ??3@YAXPAXI@Z		; operator delete
  0000f	83 c4 08	 add	 esp, 8
$LN8@Alloc_cons:

; 1018 :             _Al.deallocate(_Ptr, 1);
; 1019 :         }
; 1020 :     }

  00012	c3		 ret	 0
??1?$_Alloc_construct_ptr@V?$allocator@U?$_Tree_node@U?$pair@$$CBV?$basic_string@DU?$char_traits@D@std@@V?$allocator@D@2@@std@@V?$vector@V?$basic_string@DU?$char_traits@D@std@@V?$allocator@D@2@@std@@V?$allocator@V?$basic_string@DU?$char_traits@D@std@@V?$allocator@D@2@@std@@@2@@2@@std@@PAX@std@@@std@@@std@@QAE@XZ ENDP ; std::_Alloc_construct_ptr<std::allocator<std::_Tree_node<std::pair<std::basic_string<char,std::char_traits<char>,std::allocator<char> > const ,std::vector<std::basic_string<char,std::char_traits<char>,std::allocator<char> >,std::allocator<std::basic_string<char,std::char_traits<char>,std::allocator<char> > > > >,void *> > >::~_Alloc_construct_ptr<std::allocator<std::_Tree_node<std::pair<std::basic_string<char,std::char_traits<char>,std::allocator<char> > const ,std::vector<std::basic_string<char,std::char_traits<char>,std::allocator<char> >,std::allocator<std::basic_string<char,std::char_traits<char>,std::allocator<char> > > > >,void *> > >
_TEXT	ENDS
; Function compile flags: /Ogtp
; File C:\Program Files\Microsoft Visual Studio\2022\Community\VC\Tools\MSVC\14.34.31933\include\xtree
; File C:\Program Files\Microsoft Visual Studio\2022\Community\VC\Tools\MSVC\14.34.31933\include\xstddef
; File C:\Program Files\Microsoft Visual Studio\2022\Community\VC\Tools\MSVC\14.34.31933\include\xtree
;	COMDAT ??$_Find_lower_bound@V?$basic_string@DU?$char_traits@D@std@@V?$allocator@D@2@@std@@@?$_Tree@V?$_Tmap_traits@V?$basic_string@DU?$char_traits@D@std@@V?$allocator@D@2@@std@@V?$vector@V?$basic_string@DU?$char_traits@D@std@@V?$allocator@D@2@@std@@V?$allocator@V?$basic_string@DU?$char_traits@D@std@@V?$allocator@D@2@@std@@@2@@2@U?$less@V?$basic_string@DU?$char_traits@D@std@@V?$allocator@D@2@@std@@@2@V?$allocator@U?$pair@$$CBV?$basic_string@DU?$char_traits@D@std@@V?$allocator@D@2@@std@@V?$vector@V?$basic_string@DU?$char_traits@D@std@@V?$allocator@D@2@@std@@V?$allocator@V?$basic_string@DU?$char_traits@D@std@@V?$allocator@D@2@@std@@@2@@2@@std@@@2@$0A@@std@@@std@@IBE?AU?$_Tree_find_result@PAU?$_Tree_node@U?$pair@$$CBV?$basic_string@DU?$char_traits@D@std@@V?$allocator@D@2@@std@@V?$vector@V?$basic_string@DU?$char_traits@D@std@@V?$allocator@D@2@@std@@V?$allocator@V?$basic_string@DU?$char_traits@D@std@@V?$allocator@D@2@@std@@@2@@2@@std@@PAX@std@@@1@ABV?$basic_string@DU?$char_traits@D@std@@V?$allocator@D@2@@1@@Z
_TEXT	SEGMENT
___$ReturnUdt$ = 8					; size = 4
__Keyval$ = 12						; size = 4
??$_Find_lower_bound@V?$basic_string@DU?$char_traits@D@std@@V?$allocator@D@2@@std@@@?$_Tree@V?$_Tmap_traits@V?$basic_string@DU?$char_traits@D@std@@V?$allocator@D@2@@std@@V?$vector@V?$basic_string@DU?$char_traits@D@std@@V?$allocator@D@2@@std@@V?$allocator@V?$basic_string@DU?$char_traits@D@std@@V?$allocator@D@2@@std@@@2@@2@U?$less@V?$basic_string@DU?$char_traits@D@std@@V?$allocator@D@2@@std@@@2@V?$allocator@U?$pair@$$CBV?$basic_string@DU?$char_traits@D@std@@V?$allocator@D@2@@std@@V?$vector@V?$basic_string@DU?$char_traits@D@std@@V?$allocator@D@2@@std@@V?$allocator@V?$basic_string@DU?$char_traits@D@std@@V?$allocator@D@2@@std@@@2@@2@@std@@@2@$0A@@std@@@std@@IBE?AU?$_Tree_find_result@PAU?$_Tree_node@U?$pair@$$CBV?$basic_string@DU?$char_traits@D@std@@V?$allocator@D@2@@std@@V?$vector@V?$basic_string@DU?$char_traits@D@std@@V?$allocator@D@2@@std@@V?$allocator@V?$basic_string@DU?$char_traits@D@std@@V?$allocator@D@2@@std@@@2@@2@@std@@PAX@std@@@1@ABV?$basic_string@DU?$char_traits@D@std@@V?$allocator@D@2@@1@@Z PROC ; std::_Tree<std::_Tmap_traits<std::basic_string<char,std::char_traits<char>,std::allocator<char> >,std::vector<std::basic_string<char,std::char_traits<char>,std::allocator<char> >,std::allocator<std::basic_string<char,std::char_traits<char>,std::allocator<char> > > >,std::less<std::basic_string<char,std::char_traits<char>,std::allocator<char> > >,std::allocator<std::pair<std::basic_string<char,std::char_traits<char>,std::allocator<char> > const ,std::vector<std::basic_string<char,std::char_traits<char>,std::allocator<char> >,std::allocator<std::basic_string<char,std::char_traits<char>,std::allocator<char> > > > > >,0> >::_Find_lower_bound<std::basic_string<char,std::char_traits<char>,std::allocator<char> > >, COMDAT
; _this$ = ecx

; 1609 :     _Tree_find_result<_Nodeptr> _Find_lower_bound(const _Keyty& _Keyval) const {

  00000	55		 push	 ebp
  00001	8b ec		 mov	 ebp, esp

; 1610 :         const auto _Scary = _Get_scary();
; 1611 :         _Tree_find_result<_Nodeptr> _Result{{_Scary->_Myhead->_Parent, _Tree_child::_Right}, _Scary->_Myhead};

  00003	8b 01		 mov	 eax, DWORD PTR [ecx]
  00005	56		 push	 esi
  00006	57		 push	 edi
  00007	8b 7d 08	 mov	 edi, DWORD PTR ___$ReturnUdt$[ebp]
  0000a	8b 70 04	 mov	 esi, DWORD PTR [eax+4]
  0000d	89 37		 mov	 DWORD PTR [edi], esi

; 1612 :         _Nodeptr _Trynode = _Result._Location._Parent;
; 1613 :         while (!_Trynode->_Isnil) {

  0000f	80 7e 0d 00	 cmp	 BYTE PTR [esi+13], 0
  00013	c7 47 04 00 00
	00 00		 mov	 DWORD PTR [edi+4], 0
  0001a	89 47 08	 mov	 DWORD PTR [edi+8], eax
  0001d	75 32		 jne	 SHORT $LN12@Find_lower
  0001f	53		 push	 ebx
  00020	8b 5d 0c	 mov	 ebx, DWORD PTR __Keyval$[ebp]
$LL2@Find_lower:

; 1615 :             if (_DEBUG_LT_PRED(_Getcomp(), _Traits::_Kfn(_Trynode->_Myval), _Keyval)) {

  00023	8d 46 10	 lea	 eax, DWORD PTR [esi+16]
  00026	89 37		 mov	 DWORD PTR [edi], esi
; File C:\Program Files\Microsoft Visual Studio\2022\Community\VC\Tools\MSVC\14.34.31933\include\xstddef

; 143  :         return _Left < _Right;

  00028	53		 push	 ebx
  00029	50		 push	 eax
  0002a	e8 00 00 00 00	 call	 ??$?MDU?$char_traits@D@std@@V?$allocator@D@1@@std@@YA_NABV?$basic_string@DU?$char_traits@D@std@@V?$allocator@D@2@@0@0@Z ; std::operator<<char,std::char_traits<char>,std::allocator<char> >
  0002f	83 c4 08	 add	 esp, 8
; File C:\Program Files\Microsoft Visual Studio\2022\Community\VC\Tools\MSVC\14.34.31933\include\xtree

; 1615 :             if (_DEBUG_LT_PRED(_Getcomp(), _Traits::_Kfn(_Trynode->_Myval), _Keyval)) {

  00032	84 c0		 test	 al, al
  00034	74 07		 je	 SHORT $LN4@Find_lower

; 1616 :                 _Result._Location._Child = _Tree_child::_Right;
; 1617 :                 _Trynode                 = _Trynode->_Right;

  00036	8b 76 08	 mov	 esi, DWORD PTR [esi+8]
  00039	33 c0		 xor	 eax, eax

; 1618 :             } else {

  0003b	eb 0a		 jmp	 SHORT $LN5@Find_lower
$LN4@Find_lower:

; 1619 :                 _Result._Location._Child = _Tree_child::_Left;
; 1620 :                 _Result._Bound           = _Trynode;

  0003d	89 77 08	 mov	 DWORD PTR [edi+8], esi

; 1621 :                 _Trynode                 = _Trynode->_Left;

  00040	b8 01 00 00 00	 mov	 eax, 1
  00045	8b 36		 mov	 esi, DWORD PTR [esi]
$LN5@Find_lower:

; 1612 :         _Nodeptr _Trynode = _Result._Location._Parent;
; 1613 :         while (!_Trynode->_Isnil) {

  00047	89 47 04	 mov	 DWORD PTR [edi+4], eax
  0004a	80 7e 0d 00	 cmp	 BYTE PTR [esi+13], 0
  0004e	74 d3		 je	 SHORT $LL2@Find_lower

; 1622 :             }
; 1623 :         }
; 1624 : 
; 1625 :         return _Result;

  00050	5b		 pop	 ebx
$LN12@Find_lower:

; 1626 :     }

  00051	8b c7		 mov	 eax, edi
  00053	5f		 pop	 edi
  00054	5e		 pop	 esi
  00055	5d		 pop	 ebp
  00056	c2 08 00	 ret	 8
??$_Find_lower_bound@V?$basic_string@DU?$char_traits@D@std@@V?$allocator@D@2@@std@@@?$_Tree@V?$_Tmap_traits@V?$basic_string@DU?$char_traits@D@std@@V?$allocator@D@2@@std@@V?$vector@V?$basic_string@DU?$char_traits@D@std@@V?$allocator@D@2@@std@@V?$allocator@V?$basic_string@DU?$char_traits@D@std@@V?$allocator@D@2@@std@@@2@@2@U?$less@V?$basic_string@DU?$char_traits@D@std@@V?$allocator@D@2@@std@@@2@V?$allocator@U?$pair@$$CBV?$basic_string@DU?$char_traits@D@std@@V?$allocator@D@2@@std@@V?$vector@V?$basic_string@DU?$char_traits@D@std@@V?$allocator@D@2@@std@@V?$allocator@V?$basic_string@DU?$char_traits@D@std@@V?$allocator@D@2@@std@@@2@@2@@std@@@2@$0A@@std@@@std@@IBE?AU?$_Tree_find_result@PAU?$_Tree_node@U?$pair@$$CBV?$basic_string@DU?$char_traits@D@std@@V?$allocator@D@2@@std@@V?$vector@V?$basic_string@DU?$char_traits@D@std@@V?$allocator@D@2@@std@@V?$allocator@V?$basic_string@DU?$char_traits@D@std@@V?$allocator@D@2@@std@@@2@@2@@std@@PAX@std@@@1@ABV?$basic_string@DU?$char_traits@D@std@@V?$allocator@D@2@@1@@Z ENDP ; std::_Tree<std::_Tmap_traits<std::basic_string<char,std::char_traits<char>,std::allocator<char> >,std::vector<std::basic_string<char,std::char_traits<char>,std::allocator<char> >,std::allocator<std::basic_string<char,std::char_traits<char>,std::allocator<char> > > >,std::less<std::basic_string<char,std::char_traits<char>,std::allocator<char> > >,std::allocator<std::pair<std::basic_string<char,std::char_traits<char>,std::allocator<char> > const ,std::vector<std::basic_string<char,std::char_traits<char>,std::allocator<char> >,std::allocator<std::basic_string<char,std::char_traits<char>,std::allocator<char> > > > > >,0> >::_Find_lower_bound<std::basic_string<char,std::char_traits<char>,std::allocator<char> > >
_TEXT	ENDS
; Function compile flags: /Ogtp
; File C:\Program Files\Microsoft Visual Studio\2022\Community\VC\Tools\MSVC\14.34.31933\include\xmemory
;	COMDAT ??$_Uninitialized_copy@PAUSTerrainTexture@@PAU1@V?$allocator@USTerrainTexture@@@std@@@std@@YAPAUSTerrainTexture@@PAU1@00AAV?$allocator@USTerrainTexture@@@0@@Z
_TEXT	SEGMENT
__Backout$ = -24					; size = 12
__$EHRec$ = -12						; size = 12
__First$ = 8						; size = 4
__Last$ = 12						; size = 4
__Dest$ = 16						; size = 4
__Al$ = 20						; size = 4
??$_Uninitialized_copy@PAUSTerrainTexture@@PAU1@V?$allocator@USTerrainTexture@@@std@@@std@@YAPAUSTerrainTexture@@PAU1@00AAV?$allocator@USTerrainTexture@@@0@@Z PROC ; std::_Uninitialized_copy<STerrainTexture *,STerrainTexture *,std::allocator<STerrainTexture> >, COMDAT

; 1680 :     _InIt _First, _Se _Last, _Alloc_ptr_t<_Alloc> _Dest, _Alloc& _Al) {

  00000	55		 push	 ebp
  00001	8b ec		 mov	 ebp, esp
  00003	6a ff		 push	 -1
  00005	68 00 00 00 00	 push	 __ehhandler$??$_Uninitialized_copy@PAUSTerrainTexture@@PAU1@V?$allocator@USTerrainTexture@@@std@@@std@@YAPAUSTerrainTexture@@PAU1@00AAV?$allocator@USTerrainTexture@@@0@@Z
  0000a	64 a1 00 00 00
	00		 mov	 eax, DWORD PTR fs:0
  00010	50		 push	 eax
  00011	83 ec 0c	 sub	 esp, 12			; 0000000cH
  00014	53		 push	 ebx
  00015	56		 push	 esi
  00016	57		 push	 edi
  00017	a1 00 00 00 00	 mov	 eax, DWORD PTR ___security_cookie
  0001c	33 c5		 xor	 eax, ebp
  0001e	50		 push	 eax
  0001f	8d 45 f4	 lea	 eax, DWORD PTR __$EHRec$[ebp]
  00022	64 a3 00 00 00
	00		 mov	 DWORD PTR fs:0, eax

; 1652 :     _CONSTEXPR20 _Uninitialized_backout_al(pointer _Dest, _Alloc& _Al_) : _First(_Dest), _Last(_Dest), _Al(_Al_) {}

  00028	8b 7d 10	 mov	 edi, DWORD PTR __Dest$[ebp]
  0002b	8b 45 14	 mov	 eax, DWORD PTR __Al$[ebp]

; 1681 :     // copy [_First, _Last) to raw _Dest, using _Al
; 1682 :     // note: only called internally from elsewhere in the STL
; 1683 :     using _Ptrval = typename _Alloc::value_type*;
; 1684 : 
; 1685 : #ifdef __cpp_lib_concepts
; 1686 :     auto _UFirst = _RANGES _Unwrap_iter<_Se>(_STD move(_First));
; 1687 :     auto _ULast  = _RANGES _Unwrap_sent<_InIt>(_STD move(_Last));
; 1688 : #else // ^^^ __cpp_lib_concepts / !__cpp_lib_concepts vvv
; 1689 :     // In pre-concepts world, _Uninitialized_copy should only ever be called with an iterator
; 1690 :     // and sentinel of the same type, so `_Get_unwrapped` is fine to call.
; 1691 :     auto _UFirst = _Get_unwrapped(_STD move(_First));

  0002e	8b 75 08	 mov	 esi, DWORD PTR __First$[ebp]

; 1652 :     _CONSTEXPR20 _Uninitialized_backout_al(pointer _Dest, _Alloc& _Al_) : _First(_Dest), _Last(_Dest), _Al(_Al_) {}

  00031	89 7d e8	 mov	 DWORD PTR __Backout$[ebp], edi
  00034	89 7d ec	 mov	 DWORD PTR __Backout$[ebp+4], edi
  00037	89 45 f0	 mov	 DWORD PTR __Backout$[ebp+8], eax

; 1692 :     auto _ULast = _Get_unwrapped(_STD move(_Last));
; 1693 : #endif // ^^^ !__cpp_lib_concepts ^^^
; 1694 : 
; 1695 :     constexpr bool _Can_memmove = _Sent_copy_cat<decltype(_UFirst), decltype(_ULast), _Ptrval>::_Bitcopy_constructible
; 1696 :                                && _Uses_default_construct<_Alloc, _Ptrval, decltype(*_UFirst)>::value;
; 1697 : 
; 1698 :     if constexpr (_Can_memmove) {
; 1699 : #if _HAS_CXX20
; 1700 :         if (!_STD is_constant_evaluated())
; 1701 : #endif // _HAS_CXX20
; 1702 :         {
; 1703 :             if constexpr (is_same_v<decltype(_UFirst), decltype(_ULast)>) {
; 1704 :                 _Copy_memmove(_To_address(_UFirst), _To_address(_ULast), _Unfancy(_Dest));
; 1705 :                 _Dest += _ULast - _UFirst;
; 1706 :             } else {
; 1707 :                 const auto _Count = static_cast<size_t>(_ULast - _UFirst);
; 1708 :                 _Copy_memmove_n(_To_address(_UFirst), _Count, _Unfancy(_Dest));
; 1709 :                 _Dest += _Count;
; 1710 :             }
; 1711 :             return _Dest;
; 1712 :         }
; 1713 :     }
; 1714 : 
; 1715 :     _Uninitialized_backout_al<_Alloc> _Backout{_Dest, _Al};
; 1716 :     for (; _UFirst != _ULast; ++_UFirst) {

  0003a	8b 5d 0c	 mov	 ebx, DWORD PTR __Last$[ebp]
  0003d	c7 45 fc 00 00
	00 00		 mov	 DWORD PTR __$EHRec$[ebp+8], 0
  00044	3b f3		 cmp	 esi, ebx
  00046	74 1e		 je	 SHORT $LN3@Uninitiali
$LL4@Uninitiali:

; 680  :             ::new (_Voidify_iter(_Ptr)) _Objty(_STD forward<_Types>(_Args)...);

  00048	56		 push	 esi
  00049	8b cf		 mov	 ecx, edi
  0004b	e8 00 00 00 00	 call	 ??0STerrainTexture@@QAE@ABU0@@Z

; 1664 :         ++_Last;

  00050	81 c7 9c 00 00
	00		 add	 edi, 156		; 0000009cH

; 1692 :     auto _ULast = _Get_unwrapped(_STD move(_Last));
; 1693 : #endif // ^^^ !__cpp_lib_concepts ^^^
; 1694 : 
; 1695 :     constexpr bool _Can_memmove = _Sent_copy_cat<decltype(_UFirst), decltype(_ULast), _Ptrval>::_Bitcopy_constructible
; 1696 :                                && _Uses_default_construct<_Alloc, _Ptrval, decltype(*_UFirst)>::value;
; 1697 : 
; 1698 :     if constexpr (_Can_memmove) {
; 1699 : #if _HAS_CXX20
; 1700 :         if (!_STD is_constant_evaluated())
; 1701 : #endif // _HAS_CXX20
; 1702 :         {
; 1703 :             if constexpr (is_same_v<decltype(_UFirst), decltype(_ULast)>) {
; 1704 :                 _Copy_memmove(_To_address(_UFirst), _To_address(_ULast), _Unfancy(_Dest));
; 1705 :                 _Dest += _ULast - _UFirst;
; 1706 :             } else {
; 1707 :                 const auto _Count = static_cast<size_t>(_ULast - _UFirst);
; 1708 :                 _Copy_memmove_n(_To_address(_UFirst), _Count, _Unfancy(_Dest));
; 1709 :                 _Dest += _Count;
; 1710 :             }
; 1711 :             return _Dest;
; 1712 :         }
; 1713 :     }
; 1714 : 
; 1715 :     _Uninitialized_backout_al<_Alloc> _Backout{_Dest, _Al};
; 1716 :     for (; _UFirst != _ULast; ++_UFirst) {

  00056	81 c6 9c 00 00
	00		 add	 esi, 156		; 0000009cH

; 1664 :         ++_Last;

  0005c	89 7d ec	 mov	 DWORD PTR __Backout$[ebp+4], edi

; 1692 :     auto _ULast = _Get_unwrapped(_STD move(_Last));
; 1693 : #endif // ^^^ !__cpp_lib_concepts ^^^
; 1694 : 
; 1695 :     constexpr bool _Can_memmove = _Sent_copy_cat<decltype(_UFirst), decltype(_ULast), _Ptrval>::_Bitcopy_constructible
; 1696 :                                && _Uses_default_construct<_Alloc, _Ptrval, decltype(*_UFirst)>::value;
; 1697 : 
; 1698 :     if constexpr (_Can_memmove) {
; 1699 : #if _HAS_CXX20
; 1700 :         if (!_STD is_constant_evaluated())
; 1701 : #endif // _HAS_CXX20
; 1702 :         {
; 1703 :             if constexpr (is_same_v<decltype(_UFirst), decltype(_ULast)>) {
; 1704 :                 _Copy_memmove(_To_address(_UFirst), _To_address(_ULast), _Unfancy(_Dest));
; 1705 :                 _Dest += _ULast - _UFirst;
; 1706 :             } else {
; 1707 :                 const auto _Count = static_cast<size_t>(_ULast - _UFirst);
; 1708 :                 _Copy_memmove_n(_To_address(_UFirst), _Count, _Unfancy(_Dest));
; 1709 :                 _Dest += _Count;
; 1710 :             }
; 1711 :             return _Dest;
; 1712 :         }
; 1713 :     }
; 1714 : 
; 1715 :     _Uninitialized_backout_al<_Alloc> _Backout{_Dest, _Al};
; 1716 :     for (; _UFirst != _ULast; ++_UFirst) {

  0005f	3b f3		 cmp	 esi, ebx
  00061	75 e5		 jne	 SHORT $LL4@Uninitiali
  00063	8b 45 14	 mov	 eax, DWORD PTR __Al$[ebp]
$LN3@Uninitiali:

; 1658 :         _Destroy_range(_First, _Last, _Al);

  00066	50		 push	 eax
  00067	57		 push	 edi
  00068	57		 push	 edi
  00069	e8 00 00 00 00	 call	 ??$_Destroy_range@V?$allocator@USTerrainTexture@@@std@@@std@@YAXPAUSTerrainTexture@@QAU1@AAV?$allocator@USTerrainTexture@@@0@@Z ; std::_Destroy_range<std::allocator<STerrainTexture> >
  0006e	83 c4 0c	 add	 esp, 12			; 0000000cH

; 1717 :         _Backout._Emplace_back(*_UFirst);
; 1718 :     }
; 1719 : 
; 1720 :     return _Backout._Release();

  00071	8b c7		 mov	 eax, edi

; 1721 : }

  00073	8b 4d f4	 mov	 ecx, DWORD PTR __$EHRec$[ebp]
  00076	64 89 0d 00 00
	00 00		 mov	 DWORD PTR fs:0, ecx
  0007d	59		 pop	 ecx
  0007e	5f		 pop	 edi
  0007f	5e		 pop	 esi
  00080	5b		 pop	 ebx
  00081	8b e5		 mov	 esp, ebp
  00083	5d		 pop	 ebp
  00084	c3		 ret	 0
_TEXT	ENDS
;	COMDAT text$x
text$x	SEGMENT
__unwindfunclet$??$_Uninitialized_copy@PAUSTerrainTexture@@PAU1@V?$allocator@USTerrainTexture@@@std@@@std@@YAPAUSTerrainTexture@@PAU1@00AAV?$allocator@USTerrainTexture@@@0@@Z$0:
  00000	8d 4d e8	 lea	 ecx, DWORD PTR __Backout$[ebp]
  00003	e9 00 00 00 00	 jmp	 ??1?$_Uninitialized_backout_al@V?$allocator@USTerrainTexture@@@std@@@std@@QAE@XZ ; std::_Uninitialized_backout_al<std::allocator<STerrainTexture> >::~_Uninitialized_backout_al<std::allocator<STerrainTexture> >
  00008	cc		 int	 3
  00009	cc		 int	 3
  0000a	cc		 int	 3
  0000b	cc		 int	 3
  0000c	cc		 int	 3
__ehhandler$??$_Uninitialized_copy@PAUSTerrainTexture@@PAU1@V?$allocator@USTerrainTexture@@@std@@@std@@YAPAUSTerrainTexture@@PAU1@00AAV?$allocator@USTerrainTexture@@@0@@Z:
  0000d	90		 npad	 1
  0000e	90		 npad	 1
  0000f	8b 54 24 08	 mov	 edx, DWORD PTR [esp+8]
  00013	8d 42 0c	 lea	 eax, DWORD PTR [edx+12]
  00016	8b 4a e4	 mov	 ecx, DWORD PTR [edx-28]
  00019	33 c8		 xor	 ecx, eax
  0001b	e8 00 00 00 00	 call	 @__security_check_cookie@4
  00020	b8 00 00 00 00	 mov	 eax, OFFSET __ehfuncinfo$??$_Uninitialized_copy@PAUSTerrainTexture@@PAU1@V?$allocator@USTerrainTexture@@@std@@@std@@YAPAUSTerrainTexture@@PAU1@00AAV?$allocator@USTerrainTexture@@@0@@Z
  00025	e9 00 00 00 00	 jmp	 ___CxxFrameHandler3
text$x	ENDS
??$_Uninitialized_copy@PAUSTerrainTexture@@PAU1@V?$allocator@USTerrainTexture@@@std@@@std@@YAPAUSTerrainTexture@@PAU1@00AAV?$allocator@USTerrainTexture@@@0@@Z ENDP ; std::_Uninitialized_copy<STerrainTexture *,STerrainTexture *,std::allocator<STerrainTexture> >
; Function compile flags: /Ogtp
; File C:\Program Files\Microsoft Visual Studio\2022\Community\VC\Tools\MSVC\14.34.31933\include\xstring
; File C:\Program Files\Microsoft Visual Studio\2022\Community\VC\Tools\MSVC\14.34.31933\include\xmemory
; File C:\Program Files\Microsoft Visual Studio\2022\Community\VC\Tools\MSVC\14.34.31933\include\utility
; File C:\Program Files\Microsoft Visual Studio\2022\Community\VC\Tools\MSVC\14.34.31933\include\xstring
; File C:\Program Files\Microsoft Visual Studio\2022\Community\VC\Tools\MSVC\14.34.31933\include\xmemory
; File C:\Program Files\Microsoft Visual Studio\2022\Community\VC\Tools\MSVC\14.34.31933\include\xstring
;	COMDAT ??$_Construct@$00PBD@?$basic_string@DU?$char_traits@D@std@@V?$allocator@D@2@@std@@AAEXQBDI@Z
_TEXT	SEGMENT
__Arg$ = 8						; size = 4
$T1 = 12						; size = 4
__Count$ = 12						; size = 4
??$_Construct@$00PBD@?$basic_string@DU?$char_traits@D@std@@V?$allocator@D@2@@std@@AAEXQBDI@Z PROC ; std::basic_string<char,std::char_traits<char>,std::allocator<char> >::_Construct<1,char const *>, COMDAT
; _this$ = ecx

; 2730 :     _CONSTEXPR20 void _Construct(const _Char_or_ptr _Arg, _CRT_GUARDOVERFLOW const size_type _Count) {

  00000	55		 push	 ebp
  00001	8b ec		 mov	 ebp, esp
  00003	53		 push	 ebx
  00004	57		 push	 edi

; 2731 :         auto& _My_data = _Mypair._Myval2;
; 2732 :         _STL_INTERNAL_CHECK(!_My_data._Large_string_engaged());
; 2733 : 
; 2734 :         if constexpr (_Strat == _Construct_strategy::_From_char) {
; 2735 :             _STL_INTERNAL_STATIC_ASSERT(is_same_v<_Char_or_ptr, _Elem>);
; 2736 :         } else {
; 2737 :             _STL_INTERNAL_STATIC_ASSERT(_Is_elem_cptr<_Char_or_ptr>::value);
; 2738 :         }
; 2739 : 
; 2740 :         if (_Count > max_size()) {

  00005	8b 7d 0c	 mov	 edi, DWORD PTR __Count$[ebp]
  00008	8b d9		 mov	 ebx, ecx
  0000a	81 ff ff ff ff
	7f		 cmp	 edi, 2147483647		; 7fffffffH
  00010	0f 87 9f 00 00
	00		 ja	 $LN29@Construct

; 2742 :         }
; 2743 : 
; 2744 :         auto& _Al       = _Getal();
; 2745 :         auto&& _Alproxy = _GET_PROXY_ALLOCATOR(_Alty, _Al);
; 2746 :         _Container_proxy_ptr<_Alty> _Proxy(_Alproxy, _My_data);
; 2747 : 
; 2748 :         if (_Count < _BUF_SIZE) {

  00016	c7 43 14 0f 00
	00 00		 mov	 DWORD PTR [ebx+20], 15	; 0000000fH
  0001d	83 ff 10	 cmp	 edi, 16			; 00000010H
  00020	73 1a		 jae	 SHORT $LN3@Construct

; 117  :         _CSTD memmove(_First1, _First2, _Count * sizeof(_Elem));

  00022	57		 push	 edi
  00023	ff 75 08	 push	 DWORD PTR __Arg$[ebp]

; 2749 :             _My_data._Mysize = _Count;

  00026	89 7b 10	 mov	 DWORD PTR [ebx+16], edi

; 117  :         _CSTD memmove(_First1, _First2, _Count * sizeof(_Elem));

  00029	53		 push	 ebx
  0002a	e8 00 00 00 00	 call	 _memmove
  0002f	83 c4 0c	 add	 esp, 12			; 0000000cH

; 2750 :             _My_data._Myres  = _BUF_SIZE - 1;
; 2751 :             if constexpr (_Strat == _Construct_strategy::_From_char) {
; 2752 :                 _Traits::assign(_My_data._Bx._Buf, _Count, _Arg);
; 2753 :                 _Traits::assign(_My_data._Bx._Buf[_Count], _Elem());
; 2754 :             } else if constexpr (_Strat == _Construct_strategy::_From_ptr) {
; 2755 :                 _Traits::move(_My_data._Bx._Buf, _Arg, _Count);
; 2756 :                 _Traits::assign(_My_data._Bx._Buf[_Count], _Elem());

  00032	c6 04 1f 00	 mov	 BYTE PTR [edi+ebx], 0
  00036	5f		 pop	 edi

; 2789 :         } else { // _Strat == _Construct_strategy::_From_string
; 2790 :             _Traits::copy(_Unfancy(_New_ptr), _Arg, _Count + 1);
; 2791 :         }
; 2792 : 
; 2793 :         _ASAN_STRING_CREATE(*this);
; 2794 :         _Proxy._Release();
; 2795 :     }

  00037	5b		 pop	 ebx
  00038	5d		 pop	 ebp
  00039	c2 08 00	 ret	 8
$LN3@Construct:
  0003c	56		 push	 esi

; 4883 :         const size_type _Masked = _Requested | _ALLOC_MASK;

  0003d	8b f7		 mov	 esi, edi
  0003f	83 ce 0f	 or	 esi, 15			; 0000000fH
  00042	81 fe ff ff ff
	7f		 cmp	 esi, 2147483647		; 7fffffffH

; 4884 :         if (_Masked > _Max) { // the mask overflows, settle for max_size()

  00048	76 15		 jbe	 SHORT $LN10@Construct

; 4885 :             return _Max;

  0004a	b8 00 00 00 80	 mov	 eax, -2147483648	; 80000000H
  0004f	be ff ff ff 7f	 mov	 esi, 2147483647		; 7fffffffH
; File C:\Program Files\Microsoft Visual Studio\2022\Community\VC\Tools\MSVC\14.34.31933\include\xmemory

; 229  :             return _Allocate_manually_vector_aligned<_Traits>(_Bytes);

  00054	50		 push	 eax
  00055	e8 00 00 00 00	 call	 ??$_Allocate_manually_vector_aligned@U_Default_allocate_traits@std@@@std@@YAPAXI@Z ; std::_Allocate_manually_vector_aligned<std::_Default_allocate_traits>
  0005a	83 c4 04	 add	 esp, 4
  0005d	eb 30		 jmp	 SHORT $LN27@Construct
$LN10@Construct:
; File C:\Program Files\Microsoft Visual Studio\2022\Community\VC\Tools\MSVC\14.34.31933\include\utility

; 43   :     return _Left < _Right ? _Right : _Left;

  0005f	b8 16 00 00 00	 mov	 eax, 22			; 00000016H
  00064	3b f0		 cmp	 esi, eax
  00066	0f 42 f0	 cmovb	 esi, eax
; File C:\Program Files\Microsoft Visual Studio\2022\Community\VC\Tools\MSVC\14.34.31933\include\xstring

; 2772 :         const pointer _New_ptr        = _Al.allocate(_New_capacity + 1); // throws

  00069	8d 46 01	 lea	 eax, DWORD PTR [esi+1]
; File C:\Program Files\Microsoft Visual Studio\2022\Community\VC\Tools\MSVC\14.34.31933\include\xmemory

; 228  :         if (_Bytes >= _Big_allocation_threshold) { // boost the alignment of big allocations to help autovectorization

  0006c	3d 00 10 00 00	 cmp	 eax, 4096		; 00001000H
  00071	72 0b		 jb	 SHORT $LN18@Construct

; 229  :             return _Allocate_manually_vector_aligned<_Traits>(_Bytes);

  00073	50		 push	 eax
  00074	e8 00 00 00 00	 call	 ??$_Allocate_manually_vector_aligned@U_Default_allocate_traits@std@@@std@@YAPAXI@Z ; std::_Allocate_manually_vector_aligned<std::_Default_allocate_traits>
  00079	83 c4 04	 add	 esp, 4
  0007c	eb 11		 jmp	 SHORT $LN27@Construct
$LN18@Construct:

; 230  :         }
; 231  :     }
; 232  : #endif // defined(_M_IX86) || defined(_M_X64)
; 233  : 
; 234  :     if (_Bytes != 0) {

  0007e	85 c0		 test	 eax, eax
  00080	74 0b		 je	 SHORT $LN19@Construct

; 77   :         return ::operator new(_Bytes);

  00082	50		 push	 eax
  00083	e8 00 00 00 00	 call	 ??2@YAPAXI@Z		; operator new
  00088	83 c4 04	 add	 esp, 4

; 235  :         return _Traits::_Allocate(_Bytes);

  0008b	eb 02		 jmp	 SHORT $LN27@Construct
$LN19@Construct:

; 236  :     }
; 237  : 
; 238  :     return nullptr;

  0008d	33 c0		 xor	 eax, eax
$LN27@Construct:
; File C:\Program Files\Microsoft Visual Studio\2022\Community\VC\Tools\MSVC\14.34.31933\include\xstring

; 64   :         _CSTD memcpy(_First1, _First2, _Count * sizeof(_Elem));

  0008f	57		 push	 edi
  00090	ff 75 08	 push	 DWORD PTR __Arg$[ebp]

; 2773 :         _Construct_in_place(_My_data._Bx._Ptr, _New_ptr);

  00093	89 45 0c	 mov	 DWORD PTR $T1[ebp], eax

; 64   :         _CSTD memcpy(_First1, _First2, _Count * sizeof(_Elem));

  00096	50		 push	 eax

; 2773 :         _Construct_in_place(_My_data._Bx._Ptr, _New_ptr);

  00097	89 03		 mov	 DWORD PTR [ebx], eax

; 2774 : 
; 2775 : #if _HAS_CXX20
; 2776 :         if (_STD is_constant_evaluated()) { // Begin the lifetimes of the objects before copying to avoid UB
; 2777 :             _Traits::assign(_Unfancy(_New_ptr), _New_capacity + 1, _Elem());
; 2778 :         }
; 2779 : #endif // _HAS_CXX20
; 2780 : 
; 2781 :         _My_data._Mysize = _Count;

  00099	89 7b 10	 mov	 DWORD PTR [ebx+16], edi

; 2782 :         _My_data._Myres  = _New_capacity;

  0009c	89 73 14	 mov	 DWORD PTR [ebx+20], esi

; 64   :         _CSTD memcpy(_First1, _First2, _Count * sizeof(_Elem));

  0009f	e8 00 00 00 00	 call	 _memcpy

; 2783 :         if constexpr (_Strat == _Construct_strategy::_From_char) {
; 2784 :             _Traits::assign(_Unfancy(_New_ptr), _Count, _Arg);
; 2785 :             _Traits::assign(_Unfancy(_New_ptr)[_Count], _Elem());
; 2786 :         } else if constexpr (_Strat == _Construct_strategy::_From_ptr) {
; 2787 :             _Traits::copy(_Unfancy(_New_ptr), _Arg, _Count);
; 2788 :             _Traits::assign(_Unfancy(_New_ptr)[_Count], _Elem());

  000a4	8b 45 0c	 mov	 eax, DWORD PTR $T1[ebp]

; 64   :         _CSTD memcpy(_First1, _First2, _Count * sizeof(_Elem));

  000a7	83 c4 0c	 add	 esp, 12			; 0000000cH

; 2783 :         if constexpr (_Strat == _Construct_strategy::_From_char) {
; 2784 :             _Traits::assign(_Unfancy(_New_ptr), _Count, _Arg);
; 2785 :             _Traits::assign(_Unfancy(_New_ptr)[_Count], _Elem());
; 2786 :         } else if constexpr (_Strat == _Construct_strategy::_From_ptr) {
; 2787 :             _Traits::copy(_Unfancy(_New_ptr), _Arg, _Count);
; 2788 :             _Traits::assign(_Unfancy(_New_ptr)[_Count], _Elem());

  000aa	5e		 pop	 esi
  000ab	c6 04 38 00	 mov	 BYTE PTR [eax+edi], 0
  000af	5f		 pop	 edi

; 2789 :         } else { // _Strat == _Construct_strategy::_From_string
; 2790 :             _Traits::copy(_Unfancy(_New_ptr), _Arg, _Count + 1);
; 2791 :         }
; 2792 : 
; 2793 :         _ASAN_STRING_CREATE(*this);
; 2794 :         _Proxy._Release();
; 2795 :     }

  000b0	5b		 pop	 ebx
  000b1	5d		 pop	 ebp
  000b2	c2 08 00	 ret	 8
$LN29@Construct:

; 2741 :             _Xlen_string(); // result too long

  000b5	e8 00 00 00 00	 call	 ?_Xlen_string@std@@YAXXZ ; std::_Xlen_string
$LN26@Construct:
  000ba	cc		 int	 3
??$_Construct@$00PBD@?$basic_string@DU?$char_traits@D@std@@V?$allocator@D@2@@std@@AAEXQBDI@Z ENDP ; std::basic_string<char,std::char_traits<char>,std::allocator<char> >::_Construct<1,char const *>
_TEXT	ENDS
; Function compile flags: /Ogtp
; File C:\Program Files\Microsoft Visual Studio\2022\Community\VC\Tools\MSVC\14.34.31933\include\xstring
; File C:\Program Files\Microsoft Visual Studio\2022\Community\VC\Tools\MSVC\14.34.31933\include\utility
; File C:\Program Files\Microsoft Visual Studio\2022\Community\VC\Tools\MSVC\14.34.31933\include\xstring
; File C:\Program Files\Microsoft Visual Studio\2022\Community\VC\Tools\MSVC\14.34.31933\include\utility
; File C:\Program Files\Microsoft Visual Studio\2022\Community\VC\Tools\MSVC\14.34.31933\include\xstring
;	COMDAT ??$_Traits_compare@U?$char_traits@D@std@@@std@@YAHQBDI0I@Z
_TEXT	SEGMENT
__Left$ = 8						; size = 4
__Left_size$ = 12					; size = 4
__Right$ = 16						; size = 4
__Right_size$ = 20					; size = 4
??$_Traits_compare@U?$char_traits@D@std@@@std@@YAHQBDI0I@Z PROC ; std::_Traits_compare<std::char_traits<char> >, COMDAT

; 600  :     _In_reads_(_Right_size) const _Traits_ptr_t<_Traits> _Right, const size_t _Right_size) noexcept {

  00000	55		 push	 ebp
  00001	8b ec		 mov	 ebp, esp

; 398  :         return _CSTD memcmp(_First1, _First2, _Count);

  00003	8b 55 08	 mov	 edx, DWORD PTR __Left$[ebp]

; 600  :     _In_reads_(_Right_size) const _Traits_ptr_t<_Traits> _Right, const size_t _Right_size) noexcept {

  00006	53		 push	 ebx
; File C:\Program Files\Microsoft Visual Studio\2022\Community\VC\Tools\MSVC\14.34.31933\include\utility

; 66   :     return _Right < _Left ? _Right : _Left;

  00007	8b 5d 14	 mov	 ebx, DWORD PTR __Right_size$[ebp]
; File C:\Program Files\Microsoft Visual Studio\2022\Community\VC\Tools\MSVC\14.34.31933\include\xstring

; 600  :     _In_reads_(_Right_size) const _Traits_ptr_t<_Traits> _Right, const size_t _Right_size) noexcept {

  0000a	56		 push	 esi

; 398  :         return _CSTD memcmp(_First1, _First2, _Count);

  0000b	8b 75 10	 mov	 esi, DWORD PTR __Right$[ebp]

; 600  :     _In_reads_(_Right_size) const _Traits_ptr_t<_Traits> _Right, const size_t _Right_size) noexcept {

  0000e	57		 push	 edi
; File C:\Program Files\Microsoft Visual Studio\2022\Community\VC\Tools\MSVC\14.34.31933\include\utility

; 66   :     return _Right < _Left ? _Right : _Left;

  0000f	8b 7d 0c	 mov	 edi, DWORD PTR __Left_size$[ebp]
  00012	3b df		 cmp	 ebx, edi
  00014	8b cf		 mov	 ecx, edi
  00016	0f 42 cb	 cmovb	 ecx, ebx
; File C:\Program Files\Microsoft Visual Studio\2022\Community\VC\Tools\MSVC\14.34.31933\include\xstring

; 398  :         return _CSTD memcmp(_First1, _First2, _Count);

  00019	83 e9 04	 sub	 ecx, 4
  0001c	72 13		 jb	 SHORT $LN12@Traits_com
  0001e	66 90		 npad	 2
$LL13@Traits_com:
  00020	8b 02		 mov	 eax, DWORD PTR [edx]
  00022	3b 06		 cmp	 eax, DWORD PTR [esi]
  00024	75 10		 jne	 SHORT $LN11@Traits_com
  00026	83 c2 04	 add	 edx, 4
  00029	83 c6 04	 add	 esi, 4
  0002c	83 e9 04	 sub	 ecx, 4
  0002f	73 ef		 jae	 SHORT $LL13@Traits_com
$LN12@Traits_com:
  00031	83 f9 fc	 cmp	 ecx, -4			; fffffffcH
  00034	74 34		 je	 SHORT $LN10@Traits_com
$LN11@Traits_com:
  00036	8a 02		 mov	 al, BYTE PTR [edx]
  00038	3a 06		 cmp	 al, BYTE PTR [esi]
  0003a	75 27		 jne	 SHORT $LN14@Traits_com
  0003c	83 f9 fd	 cmp	 ecx, -3			; fffffffdH
  0003f	74 29		 je	 SHORT $LN10@Traits_com
  00041	8a 42 01	 mov	 al, BYTE PTR [edx+1]
  00044	3a 46 01	 cmp	 al, BYTE PTR [esi+1]
  00047	75 1a		 jne	 SHORT $LN14@Traits_com
  00049	83 f9 fe	 cmp	 ecx, -2			; fffffffeH
  0004c	74 1c		 je	 SHORT $LN10@Traits_com
  0004e	8a 42 02	 mov	 al, BYTE PTR [edx+2]
  00051	3a 46 02	 cmp	 al, BYTE PTR [esi+2]
  00054	75 0d		 jne	 SHORT $LN14@Traits_com
  00056	83 f9 ff	 cmp	 ecx, -1
  00059	74 0f		 je	 SHORT $LN10@Traits_com
  0005b	8a 42 03	 mov	 al, BYTE PTR [edx+3]
  0005e	3a 46 03	 cmp	 al, BYTE PTR [esi+3]
  00061	74 07		 je	 SHORT $LN10@Traits_com
$LN14@Traits_com:
  00063	1b c0		 sbb	 eax, eax
  00065	83 c8 01	 or	 eax, 1
  00068	eb 02		 jmp	 SHORT $LN15@Traits_com
$LN10@Traits_com:
  0006a	33 c0		 xor	 eax, eax
$LN15@Traits_com:

; 601  :     // compare [_Left, _Left + _Left_size) to [_Right, _Right + _Right_size) using _Traits
; 602  :     const int _Ans = _Traits::compare(_Left, _Right, (_STD min)(_Left_size, _Right_size));
; 603  : 
; 604  :     if (_Ans != 0) {

  0006c	85 c0		 test	 eax, eax
  0006e	75 10		 jne	 SHORT $LN1@Traits_com

; 605  :         return _Ans;
; 606  :     }
; 607  : 
; 608  :     if (_Left_size < _Right_size) {

  00070	3b df		 cmp	 ebx, edi
  00072	76 08		 jbe	 SHORT $LN16@Traits_com

; 613  :         return 1;
; 614  :     }
; 615  : 
; 616  :     return 0;
; 617  : }

  00074	5f		 pop	 edi
  00075	5e		 pop	 esi
  00076	83 c8 ff	 or	 eax, -1
  00079	5b		 pop	 ebx
  0007a	5d		 pop	 ebp
  0007b	c3		 ret	 0
$LN16@Traits_com:

; 609  :         return -1;
; 610  :     }
; 611  : 
; 612  :     if (_Left_size > _Right_size) {

  0007c	1b c0		 sbb	 eax, eax
  0007e	f7 d8		 neg	 eax
$LN1@Traits_com:

; 613  :         return 1;
; 614  :     }
; 615  : 
; 616  :     return 0;
; 617  : }

  00080	5f		 pop	 edi
  00081	5e		 pop	 esi
  00082	5b		 pop	 ebx
  00083	5d		 pop	 ebp
  00084	c3		 ret	 0
??$_Traits_compare@U?$char_traits@D@std@@@std@@YAHQBDI0I@Z ENDP ; std::_Traits_compare<std::char_traits<char> >
_TEXT	ENDS
; Function compile flags: /Ogtp
; File C:\Program Files\Microsoft Visual Studio\2022\Community\VC\Tools\MSVC\14.34.31933\include\xmemory
; File C:\Users\Marian\Desktop\Aeldra\ProjectA-main\Binary\Client\PRTerrainLib\TextureSet.h
; File C:\Program Files\Microsoft Visual Studio\2022\Community\VC\Tools\MSVC\14.34.31933\include\xstring
; File C:\Program Files\Microsoft Visual Studio\2022\Community\VC\Tools\MSVC\14.34.31933\include\xmemory
; File C:\Program Files\Microsoft Visual Studio\2022\Community\VC\Tools\MSVC\14.34.31933\include\xstring
; File C:\Program Files\Microsoft Visual Studio\2022\Community\VC\Tools\MSVC\14.34.31933\include\xmemory
; File C:\Program Files\Microsoft Visual Studio\2022\Community\VC\Tools\MSVC\14.34.31933\include\xstring
; File C:\Program Files\Microsoft Visual Studio\2022\Community\VC\Tools\MSVC\14.34.31933\include\xmemory
;	COMDAT ??$destroy@USTerrainTexture@@@?$_Default_allocator_traits@V?$allocator@USTerrainTexture@@@std@@@std@@SAXAAV?$allocator@USTerrainTexture@@@1@QAUSTerrainTexture@@@Z
_TEXT	SEGMENT
___formal$ = 8						; size = 4
__Ptr$ = 12						; size = 4
??$destroy@USTerrainTexture@@@?$_Default_allocator_traits@V?$allocator@USTerrainTexture@@@std@@@std@@SAXAAV?$allocator@USTerrainTexture@@@1@QAUSTerrainTexture@@@Z PROC ; std::_Default_allocator_traits<std::allocator<STerrainTexture> >::destroy<STerrainTexture>, COMDAT

; 685  :     static _CONSTEXPR20 void destroy(_Alloc&, _Uty* const _Ptr) {

  00000	55		 push	 ebp
  00001	8b ec		 mov	 ebp, esp
  00003	56		 push	 esi
; File C:\Users\Marian\Desktop\Aeldra\ProjectA-main\Binary\Client\PRTerrainLib\TextureSet.h

; 21   : 	}

  00004	8b 75 0c	 mov	 esi, DWORD PTR __Ptr$[ebp]
  00007	8d 4e 1c	 lea	 ecx, DWORD PTR [esi+28]
  0000a	e8 00 00 00 00	 call	 ??1CGraphicImageInstance@@UAE@XZ ; CGraphicImageInstance::~CGraphicImageInstance
; File C:\Program Files\Microsoft Visual Studio\2022\Community\VC\Tools\MSVC\14.34.31933\include\xstring

; 2301 :         return _BUF_SIZE <= _Myres;

  0000f	8b 4e 14	 mov	 ecx, DWORD PTR [esi+20]
  00012	83 f9 10	 cmp	 ecx, 16			; 00000010H

; 5011 :         if (_My_data._Large_string_engaged()) {

  00015	72 27		 jb	 SHORT $LN21@destroy
; File C:\Program Files\Microsoft Visual Studio\2022\Community\VC\Tools\MSVC\14.34.31933\include\xmemory

; 830  :         _Deallocate<_New_alignof<_Ty>>(_Ptr, sizeof(_Ty) * _Count);

  00017	8b 06		 mov	 eax, DWORD PTR [esi]
; File C:\Program Files\Microsoft Visual Studio\2022\Community\VC\Tools\MSVC\14.34.31933\include\xstring

; 5016 :             _Al.deallocate(_Ptr, _My_data._Myres + 1);

  00019	41		 inc	 ecx
; File C:\Program Files\Microsoft Visual Studio\2022\Community\VC\Tools\MSVC\14.34.31933\include\xmemory

; 251  :         if (_Bytes >= _Big_allocation_threshold) { // boost the alignment of big allocations to help autovectorization

  0001a	81 f9 00 10 00
	00		 cmp	 ecx, 4096		; 00001000H
  00020	72 12		 jb	 SHORT $LN31@destroy

; 150  :     const uintptr_t _Ptr_container   = _Ptr_user[-1];

  00022	8b 50 fc	 mov	 edx, DWORD PTR [eax-4]
  00025	83 c1 23	 add	 ecx, 35			; 00000023H

; 151  : 
; 152  :     // If the following asserts, it likely means that we are performing
; 153  :     // an aligned delete on memory coming from an unaligned allocation.
; 154  :     _STL_ASSERT(_Ptr_user[-2] == _Big_allocation_sentinel, "invalid argument");
; 155  : 
; 156  :     // Extra paranoia on aligned allocation/deallocation; ensure _Ptr_container is
; 157  :     // in range [_Min_back_shift, _Non_user_size]
; 158  : #ifdef _DEBUG
; 159  :     constexpr uintptr_t _Min_back_shift = 2 * sizeof(void*);
; 160  : #else // ^^^ _DEBUG ^^^ // vvv !_DEBUG vvv
; 161  :     constexpr uintptr_t _Min_back_shift = sizeof(void*);
; 162  : #endif // _DEBUG
; 163  :     const uintptr_t _Back_shift = reinterpret_cast<uintptr_t>(_Ptr) - _Ptr_container;

  00028	2b c2		 sub	 eax, edx

; 164  :     _STL_VERIFY(_Back_shift >= _Min_back_shift && _Back_shift <= _Non_user_size, "invalid argument");

  0002a	83 c0 fc	 add	 eax, -4			; fffffffcH
  0002d	83 f8 1f	 cmp	 eax, 31			; 0000001fH
  00030	77 20		 ja	 SHORT $LN28@destroy

; 165  :     _Ptr = reinterpret_cast<void*>(_Ptr_container);

  00032	8b c2		 mov	 eax, edx
$LN31@destroy:

; 255  :         ::operator delete(_Ptr, _Bytes);

  00034	51		 push	 ecx
  00035	50		 push	 eax
  00036	e8 00 00 00 00	 call	 ??3@YAXPAXI@Z		; operator delete
  0003b	83 c4 08	 add	 esp, 8
$LN21@destroy:
; File C:\Program Files\Microsoft Visual Studio\2022\Community\VC\Tools\MSVC\14.34.31933\include\xstring

; 5019 :         _My_data._Mysize = 0;

  0003e	c7 46 10 00 00
	00 00		 mov	 DWORD PTR [esi+16], 0

; 5020 :         _My_data._Myres  = _BUF_SIZE - 1;

  00045	c7 46 14 0f 00
	00 00		 mov	 DWORD PTR [esi+20], 15	; 0000000fH

; 5021 :         // the _Traits::assign is last so the codegen doesn't think the char write can alias this
; 5022 :         _Traits::assign(_My_data._Bx._Buf[0], _Elem());

  0004c	c6 06 00	 mov	 BYTE PTR [esi], 0
  0004f	5e		 pop	 esi
; File C:\Program Files\Microsoft Visual Studio\2022\Community\VC\Tools\MSVC\14.34.31933\include\xmemory

; 691  :     }

  00050	5d		 pop	 ebp
  00051	c3		 ret	 0
$LN28@destroy:

; 164  :     _STL_VERIFY(_Back_shift >= _Min_back_shift && _Back_shift <= _Non_user_size, "invalid argument");

  00052	e8 00 00 00 00	 call	 __invalid_parameter_noinfo_noreturn
$LN39@destroy:
  00057	cc		 int	 3
??$destroy@USTerrainTexture@@@?$_Default_allocator_traits@V?$allocator@USTerrainTexture@@@std@@@std@@SAXAAV?$allocator@USTerrainTexture@@@1@QAUSTerrainTexture@@@Z ENDP ; std::_Default_allocator_traits<std::allocator<STerrainTexture> >::destroy<STerrainTexture>
_TEXT	ENDS
; Function compile flags: /Ogtp
; File C:\Program Files\Microsoft Visual Studio\2022\Community\VC\Tools\MSVC\14.34.31933\include\xmemory
; File C:\Users\Marian\Desktop\Aeldra\ProjectA-main\Binary\Client\PRTerrainLib\TextureSet.h
; File C:\Program Files\Microsoft Visual Studio\2022\Community\VC\Tools\MSVC\14.34.31933\include\xstring
; File C:\Program Files\Microsoft Visual Studio\2022\Community\VC\Tools\MSVC\14.34.31933\include\xmemory
; File C:\Program Files\Microsoft Visual Studio\2022\Community\VC\Tools\MSVC\14.34.31933\include\xstring
; File C:\Program Files\Microsoft Visual Studio\2022\Community\VC\Tools\MSVC\14.34.31933\include\xmemory
; File C:\Program Files\Microsoft Visual Studio\2022\Community\VC\Tools\MSVC\14.34.31933\include\xstring
; File C:\Program Files\Microsoft Visual Studio\2022\Community\VC\Tools\MSVC\14.34.31933\include\xmemory
;	COMDAT ??$_Destroy_range@V?$allocator@USTerrainTexture@@@std@@@std@@YAXPAUSTerrainTexture@@QAU1@AAV?$allocator@USTerrainTexture@@@0@@Z
_TEXT	SEGMENT
__First$ = 8						; size = 4
__Last$ = 12						; size = 4
__Al$ = 16						; size = 4
??$_Destroy_range@V?$allocator@USTerrainTexture@@@std@@@std@@YAXPAUSTerrainTexture@@QAU1@AAV?$allocator@USTerrainTexture@@@0@@Z PROC ; std::_Destroy_range<std::allocator<STerrainTexture> >, COMDAT

; 943  : _CONSTEXPR20 void _Destroy_range(_Alloc_ptr_t<_Alloc> _First, const _Alloc_ptr_t<_Alloc> _Last, _Alloc& _Al) noexcept {

  00000	55		 push	 ebp
  00001	8b ec		 mov	 ebp, esp
  00003	56		 push	 esi

; 947  :         for (; _First != _Last; ++_First) {

  00004	8b 75 08	 mov	 esi, DWORD PTR __First$[ebp]
  00007	57		 push	 edi
  00008	8b 7d 0c	 mov	 edi, DWORD PTR __Last$[ebp]
  0000b	3b f7		 cmp	 esi, edi
  0000d	74 58		 je	 SHORT $LN50@Destroy_ra
  0000f	83 c6 14	 add	 esi, 20			; 00000014H
$LL4@Destroy_ra:
; File C:\Users\Marian\Desktop\Aeldra\ProjectA-main\Binary\Client\PRTerrainLib\TextureSet.h

; 21   : 	}

  00012	8d 4e 08	 lea	 ecx, DWORD PTR [esi+8]
  00015	e8 00 00 00 00	 call	 ??1CGraphicImageInstance@@UAE@XZ ; CGraphicImageInstance::~CGraphicImageInstance
; File C:\Program Files\Microsoft Visual Studio\2022\Community\VC\Tools\MSVC\14.34.31933\include\xstring

; 2301 :         return _BUF_SIZE <= _Myres;

  0001a	8b 0e		 mov	 ecx, DWORD PTR [esi]
  0001c	83 f9 10	 cmp	 ecx, 16			; 00000010H

; 5011 :         if (_My_data._Large_string_engaged()) {

  0001f	72 28		 jb	 SHORT $LN49@Destroy_ra
; File C:\Program Files\Microsoft Visual Studio\2022\Community\VC\Tools\MSVC\14.34.31933\include\xmemory

; 830  :         _Deallocate<_New_alignof<_Ty>>(_Ptr, sizeof(_Ty) * _Count);

  00021	8b 46 ec	 mov	 eax, DWORD PTR [esi-20]
; File C:\Program Files\Microsoft Visual Studio\2022\Community\VC\Tools\MSVC\14.34.31933\include\xstring

; 5016 :             _Al.deallocate(_Ptr, _My_data._Myres + 1);

  00024	41		 inc	 ecx
; File C:\Program Files\Microsoft Visual Studio\2022\Community\VC\Tools\MSVC\14.34.31933\include\xmemory

; 251  :         if (_Bytes >= _Big_allocation_threshold) { // boost the alignment of big allocations to help autovectorization

  00025	81 f9 00 10 00
	00		 cmp	 ecx, 4096		; 00001000H
  0002b	72 12		 jb	 SHORT $LN36@Destroy_ra

; 150  :     const uintptr_t _Ptr_container   = _Ptr_user[-1];

  0002d	8b 50 fc	 mov	 edx, DWORD PTR [eax-4]
  00030	83 c1 23	 add	 ecx, 35			; 00000023H

; 151  : 
; 152  :     // If the following asserts, it likely means that we are performing
; 153  :     // an aligned delete on memory coming from an unaligned allocation.
; 154  :     _STL_ASSERT(_Ptr_user[-2] == _Big_allocation_sentinel, "invalid argument");
; 155  : 
; 156  :     // Extra paranoia on aligned allocation/deallocation; ensure _Ptr_container is
; 157  :     // in range [_Min_back_shift, _Non_user_size]
; 158  : #ifdef _DEBUG
; 159  :     constexpr uintptr_t _Min_back_shift = 2 * sizeof(void*);
; 160  : #else // ^^^ _DEBUG ^^^ // vvv !_DEBUG vvv
; 161  :     constexpr uintptr_t _Min_back_shift = sizeof(void*);
; 162  : #endif // _DEBUG
; 163  :     const uintptr_t _Back_shift = reinterpret_cast<uintptr_t>(_Ptr) - _Ptr_container;

  00033	2b c2		 sub	 eax, edx

; 164  :     _STL_VERIFY(_Back_shift >= _Min_back_shift && _Back_shift <= _Non_user_size, "invalid argument");

  00035	83 c0 fc	 add	 eax, -4			; fffffffcH
  00038	83 f8 1f	 cmp	 eax, 31			; 0000001fH
  0003b	77 2e		 ja	 SHORT $LN33@Destroy_ra

; 165  :     _Ptr = reinterpret_cast<void*>(_Ptr_container);

  0003d	8b c2		 mov	 eax, edx
$LN36@Destroy_ra:

; 255  :         ::operator delete(_Ptr, _Bytes);

  0003f	51		 push	 ecx
  00040	50		 push	 eax
  00041	e8 00 00 00 00	 call	 ??3@YAXPAXI@Z		; operator delete
  00046	83 c4 08	 add	 esp, 8
$LN49@Destroy_ra:
; File C:\Program Files\Microsoft Visual Studio\2022\Community\VC\Tools\MSVC\14.34.31933\include\xstring

; 5019 :         _My_data._Mysize = 0;

  00049	c7 46 fc 00 00
	00 00		 mov	 DWORD PTR [esi-4], 0

; 5020 :         _My_data._Myres  = _BUF_SIZE - 1;

  00050	c7 06 0f 00 00
	00		 mov	 DWORD PTR [esi], 15	; 0000000fH

; 5021 :         // the _Traits::assign is last so the codegen doesn't think the char write can alias this
; 5022 :         _Traits::assign(_My_data._Bx._Buf[0], _Elem());

  00056	c6 46 ec 00	 mov	 BYTE PTR [esi-20], 0
; File C:\Program Files\Microsoft Visual Studio\2022\Community\VC\Tools\MSVC\14.34.31933\include\xmemory

; 947  :         for (; _First != _Last; ++_First) {

  0005a	81 c6 9c 00 00
	00		 add	 esi, 156		; 0000009cH
  00060	8d 46 ec	 lea	 eax, DWORD PTR [esi-20]
  00063	3b c7		 cmp	 eax, edi
  00065	75 ab		 jne	 SHORT $LL4@Destroy_ra
$LN50@Destroy_ra:
  00067	5f		 pop	 edi

; 948  :             allocator_traits<_Alloc>::destroy(_Al, _Unfancy(_First));
; 949  :         }
; 950  :     }
; 951  : }

  00068	5e		 pop	 esi
  00069	5d		 pop	 ebp
  0006a	c3		 ret	 0
$LN33@Destroy_ra:

; 164  :     _STL_VERIFY(_Back_shift >= _Min_back_shift && _Back_shift <= _Non_user_size, "invalid argument");

  0006b	e8 00 00 00 00	 call	 __invalid_parameter_noinfo_noreturn
$LN51@Destroy_ra:
  00070	cc		 int	 3
??$_Destroy_range@V?$allocator@USTerrainTexture@@@std@@@std@@YAXPAUSTerrainTexture@@QAU1@AAV?$allocator@USTerrainTexture@@@0@@Z ENDP ; std::_Destroy_range<std::allocator<STerrainTexture> >
_TEXT	ENDS
; Function compile flags: /Ogtp
; File C:\Program Files\Microsoft Visual Studio\2022\Community\VC\Tools\MSVC\14.34.31933\include\xtree
; File C:\Program Files\Microsoft Visual Studio\2022\Community\VC\Tools\MSVC\14.34.31933\include\xmemory
;	COMDAT ??1?$map@V?$basic_string@DU?$char_traits@D@std@@V?$allocator@D@2@@std@@V?$vector@V?$basic_string@DU?$char_traits@D@std@@V?$allocator@D@2@@std@@V?$allocator@V?$basic_string@DU?$char_traits@D@std@@V?$allocator@D@2@@std@@@2@@2@U?$less@V?$basic_string@DU?$char_traits@D@std@@V?$allocator@D@2@@std@@@2@V?$allocator@U?$pair@$$CBV?$basic_string@DU?$char_traits@D@std@@V?$allocator@D@2@@std@@V?$vector@V?$basic_string@DU?$char_traits@D@std@@V?$allocator@D@2@@std@@V?$allocator@V?$basic_string@DU?$char_traits@D@std@@V?$allocator@D@2@@std@@@2@@2@@std@@@2@@std@@QAE@XZ
_TEXT	SEGMENT
??1?$map@V?$basic_string@DU?$char_traits@D@std@@V?$allocator@D@2@@std@@V?$vector@V?$basic_string@DU?$char_traits@D@std@@V?$allocator@D@2@@std@@V?$allocator@V?$basic_string@DU?$char_traits@D@std@@V?$allocator@D@2@@std@@@2@@2@U?$less@V?$basic_string@DU?$char_traits@D@std@@V?$allocator@D@2@@std@@@2@V?$allocator@U?$pair@$$CBV?$basic_string@DU?$char_traits@D@std@@V?$allocator@D@2@@std@@V?$vector@V?$basic_string@DU?$char_traits@D@std@@V?$allocator@D@2@@std@@V?$allocator@V?$basic_string@DU?$char_traits@D@std@@V?$allocator@D@2@@std@@@2@@2@@std@@@2@@std@@QAE@XZ PROC ; std::map<std::basic_string<char,std::char_traits<char>,std::allocator<char> >,std::vector<std::basic_string<char,std::char_traits<char>,std::allocator<char> >,std::allocator<std::basic_string<char,std::char_traits<char>,std::allocator<char> > > >,std::less<std::basic_string<char,std::char_traits<char>,std::allocator<char> > >,std::allocator<std::pair<std::basic_string<char,std::char_traits<char>,std::allocator<char> > const ,std::vector<std::basic_string<char,std::char_traits<char>,std::allocator<char> >,std::allocator<std::basic_string<char,std::char_traits<char>,std::allocator<char> > > > > > >::~map<std::basic_string<char,std::char_traits<char>,std::allocator<char> >,std::vector<std::basic_string<char,std::char_traits<char>,std::allocator<char> >,std::allocator<std::basic_string<char,std::char_traits<char>,std::allocator<char> > > >,std::less<std::basic_string<char,std::char_traits<char>,std::allocator<char> > >,std::allocator<std::pair<std::basic_string<char,std::char_traits<char>,std::allocator<char> > const ,std::vector<std::basic_string<char,std::char_traits<char>,std::allocator<char> >,std::allocator<std::basic_string<char,std::char_traits<char>,std::allocator<char> > > > > > >, COMDAT
; _this$ = ecx
; File C:\Program Files\Microsoft Visual Studio\2022\Community\VC\Tools\MSVC\14.34.31933\include\xtree

; 754  :         _Erase_tree(_Al, _Myhead->_Parent);

  00000	56		 push	 esi
  00001	8b f1		 mov	 esi, ecx
  00003	8b 06		 mov	 eax, DWORD PTR [esi]
  00005	ff 70 04	 push	 DWORD PTR [eax+4]
  00008	56		 push	 esi
  00009	e8 00 00 00 00	 call	 ??$_Erase_tree@V?$allocator@U?$_Tree_node@U?$pair@$$CBV?$basic_string@DU?$char_traits@D@std@@V?$allocator@D@2@@std@@V?$vector@V?$basic_string@DU?$char_traits@D@std@@V?$allocator@D@2@@std@@V?$allocator@V?$basic_string@DU?$char_traits@D@std@@V?$allocator@D@2@@std@@@2@@2@@std@@PAX@std@@@std@@@?$_Tree_val@U?$_Tree_simple_types@U?$pair@$$CBV?$basic_string@DU?$char_traits@D@std@@V?$allocator@D@2@@std@@V?$vector@V?$basic_string@DU?$char_traits@D@std@@V?$allocator@D@2@@std@@V?$allocator@V?$basic_string@DU?$char_traits@D@std@@V?$allocator@D@2@@std@@@2@@2@@std@@@std@@@std@@QAEXAAV?$allocator@U?$_Tree_node@U?$pair@$$CBV?$basic_string@DU?$char_traits@D@std@@V?$allocator@D@2@@std@@V?$vector@V?$basic_string@DU?$char_traits@D@std@@V?$allocator@D@2@@std@@V?$allocator@V?$basic_string@DU?$char_traits@D@std@@V?$allocator@D@2@@std@@@2@@2@@std@@PAX@std@@@1@PAU?$_Tree_node@U?$pair@$$CBV?$basic_string@DU?$char_traits@D@std@@V?$allocator@D@2@@std@@V?$vector@V?$basic_string@DU?$char_traits@D@std@@V?$allocator@D@2@@std@@V?$allocator@V?$basic_string@DU?$char_traits@D@std@@V?$allocator@D@2@@std@@@2@@2@@std@@PAX@1@@Z ; std::_Tree_val<std::_Tree_simple_types<std::pair<std::basic_string<char,std::char_traits<char>,std::allocator<char> > const ,std::vector<std::basic_string<char,std::char_traits<char>,std::allocator<char> >,std::allocator<std::basic_string<char,std::char_traits<char>,std::allocator<char> > > > > > >::_Erase_tree<std::allocator<std::_Tree_node<std::pair<std::basic_string<char,std::char_traits<char>,std::allocator<char> > const ,std::vector<std::basic_string<char,std::char_traits<char>,std::allocator<char> >,std::allocator<std::basic_string<char,std::char_traits<char>,std::allocator<char> > > > >,void *> > >
; File C:\Program Files\Microsoft Visual Studio\2022\Community\VC\Tools\MSVC\14.34.31933\include\xmemory

; 255  :         ::operator delete(_Ptr, _Bytes);

  0000e	6a 34		 push	 52			; 00000034H
  00010	ff 36		 push	 DWORD PTR [esi]
  00012	e8 00 00 00 00	 call	 ??3@YAXPAXI@Z		; operator delete
  00017	83 c4 08	 add	 esp, 8
  0001a	5e		 pop	 esi
  0001b	c3		 ret	 0
??1?$map@V?$basic_string@DU?$char_traits@D@std@@V?$allocator@D@2@@std@@V?$vector@V?$basic_string@DU?$char_traits@D@std@@V?$allocator@D@2@@std@@V?$allocator@V?$basic_string@DU?$char_traits@D@std@@V?$allocator@D@2@@std@@@2@@2@U?$less@V?$basic_string@DU?$char_traits@D@std@@V?$allocator@D@2@@std@@@2@V?$allocator@U?$pair@$$CBV?$basic_string@DU?$char_traits@D@std@@V?$allocator@D@2@@std@@V?$vector@V?$basic_string@DU?$char_traits@D@std@@V?$allocator@D@2@@std@@V?$allocator@V?$basic_string@DU?$char_traits@D@std@@V?$allocator@D@2@@std@@@2@@2@@std@@@2@@std@@QAE@XZ ENDP ; std::map<std::basic_string<char,std::char_traits<char>,std::allocator<char> >,std::vector<std::basic_string<char,std::char_traits<char>,std::allocator<char> >,std::allocator<std::basic_string<char,std::char_traits<char>,std::allocator<char> > > >,std::less<std::basic_string<char,std::char_traits<char>,std::allocator<char> > >,std::allocator<std::pair<std::basic_string<char,std::char_traits<char>,std::allocator<char> > const ,std::vector<std::basic_string<char,std::char_traits<char>,std::allocator<char> >,std::allocator<std::basic_string<char,std::char_traits<char>,std::allocator<char> > > > > > >::~map<std::basic_string<char,std::char_traits<char>,std::allocator<char> >,std::vector<std::basic_string<char,std::char_traits<char>,std::allocator<char> >,std::allocator<std::basic_string<char,std::char_traits<char>,std::allocator<char> > > >,std::less<std::basic_string<char,std::char_traits<char>,std::allocator<char> > >,std::allocator<std::pair<std::basic_string<char,std::char_traits<char>,std::allocator<char> > const ,std::vector<std::basic_string<char,std::char_traits<char>,std::allocator<char> >,std::allocator<std::basic_string<char,std::char_traits<char>,std::allocator<char> > > > > > >
_TEXT	ENDS
; Function compile flags: /Ogtp
; File C:\Program Files\Microsoft Visual Studio\2022\Community\VC\Tools\MSVC\14.34.31933\include\xtree
;	COMDAT ?_Insert_node@?$_Tree_val@U?$_Tree_simple_types@U?$pair@$$CBV?$basic_string@DU?$char_traits@D@std@@V?$allocator@D@2@@std@@V?$vector@V?$basic_string@DU?$char_traits@D@std@@V?$allocator@D@2@@std@@V?$allocator@V?$basic_string@DU?$char_traits@D@std@@V?$allocator@D@2@@std@@@2@@2@@std@@@std@@@std@@QAEPAU?$_Tree_node@U?$pair@$$CBV?$basic_string@DU?$char_traits@D@std@@V?$allocator@D@2@@std@@V?$vector@V?$basic_string@DU?$char_traits@D@std@@V?$allocator@D@2@@std@@V?$allocator@V?$basic_string@DU?$char_traits@D@std@@V?$allocator@D@2@@std@@@2@@2@@std@@PAX@2@U?$_Tree_id@PAU?$_Tree_node@U?$pair@$$CBV?$basic_string@DU?$char_traits@D@std@@V?$allocator@D@2@@std@@V?$vector@V?$basic_string@DU?$char_traits@D@std@@V?$allocator@D@2@@std@@V?$allocator@V?$basic_string@DU?$char_traits@D@std@@V?$allocator@D@2@@std@@@2@@2@@std@@PAX@std@@@2@QAU32@@Z
_TEXT	SEGMENT
__Head$1$ = -4						; size = 4
__Loc$ = 8						; size = 8
__Newnode$ = 16						; size = 4
?_Insert_node@?$_Tree_val@U?$_Tree_simple_types@U?$pair@$$CBV?$basic_string@DU?$char_traits@D@std@@V?$allocator@D@2@@std@@V?$vector@V?$basic_string@DU?$char_traits@D@std@@V?$allocator@D@2@@std@@V?$allocator@V?$basic_string@DU?$char_traits@D@std@@V?$allocator@D@2@@std@@@2@@2@@std@@@std@@@std@@QAEPAU?$_Tree_node@U?$pair@$$CBV?$basic_string@DU?$char_traits@D@std@@V?$allocator@D@2@@std@@V?$vector@V?$basic_string@DU?$char_traits@D@std@@V?$allocator@D@2@@std@@V?$allocator@V?$basic_string@DU?$char_traits@D@std@@V?$allocator@D@2@@std@@@2@@2@@std@@PAX@2@U?$_Tree_id@PAU?$_Tree_node@U?$pair@$$CBV?$basic_string@DU?$char_traits@D@std@@V?$allocator@D@2@@std@@V?$vector@V?$basic_string@DU?$char_traits@D@std@@V?$allocator@D@2@@std@@V?$allocator@V?$basic_string@DU?$char_traits@D@std@@V?$allocator@D@2@@std@@@2@@2@@std@@PAX@std@@@2@QAU32@@Z PROC ; std::_Tree_val<std::_Tree_simple_types<std::pair<std::basic_string<char,std::char_traits<char>,std::allocator<char> > const ,std::vector<std::basic_string<char,std::char_traits<char>,std::allocator<char> >,std::allocator<std::basic_string<char,std::char_traits<char>,std::allocator<char> > > > > > >::_Insert_node, COMDAT
; _this$ = ecx

; 646  :     _Nodeptr _Insert_node(const _Tree_id<_Nodeptr> _Loc, const _Nodeptr _Newnode) noexcept {

  00000	55		 push	 ebp
  00001	8b ec		 mov	 ebp, esp
  00003	51		 push	 ecx

; 647  :         ++_Mysize;
; 648  :         const auto _Head  = _Myhead;
; 649  :         _Newnode->_Parent = _Loc._Parent;

  00004	8b 55 08	 mov	 edx, DWORD PTR __Loc$[ebp]
  00007	53		 push	 ebx
  00008	8b d9		 mov	 ebx, ecx
  0000a	57		 push	 edi
  0000b	8b 7d 10	 mov	 edi, DWORD PTR __Newnode$[ebp]
  0000e	8b 03		 mov	 eax, DWORD PTR [ebx]
  00010	ff 43 04	 inc	 DWORD PTR [ebx+4]
  00013	89 45 fc	 mov	 DWORD PTR __Head$1$[ebp], eax
  00016	89 57 04	 mov	 DWORD PTR [edi+4], edx

; 650  :         if (_Loc._Parent == _Head) { // first node in tree, just set head values

  00019	3b d0		 cmp	 edx, eax
  0001b	75 16		 jne	 SHORT $LN5@Insert_nod

; 651  :             _Head->_Left     = _Newnode;

  0001d	89 38		 mov	 DWORD PTR [eax], edi

; 652  :             _Head->_Parent   = _Newnode;

  0001f	89 78 04	 mov	 DWORD PTR [eax+4], edi

; 653  :             _Head->_Right    = _Newnode;

  00022	89 78 08	 mov	 DWORD PTR [eax+8], edi

; 712  :         return _Newnode;
; 713  :     }

  00025	8b c7		 mov	 eax, edi
  00027	c6 47 0c 01	 mov	 BYTE PTR [edi+12], 1
  0002b	5f		 pop	 edi
  0002c	5b		 pop	 ebx
  0002d	8b e5		 mov	 esp, ebp
  0002f	5d		 pop	 ebp
  00030	c2 0c 00	 ret	 12			; 0000000cH
$LN5@Insert_nod:

; 654  :             _Newnode->_Color = _Black; // the root is black
; 655  :             return _Newnode;
; 656  :         }
; 657  : 
; 658  :         _STL_INTERNAL_CHECK(_Loc._Child != _Tree_child::_Unused);
; 659  :         if (_Loc._Child == _Tree_child::_Right) { // add to right of _Loc._Parent

  00033	83 7d 0c 00	 cmp	 DWORD PTR __Loc$[ebp+4], 0
  00037	75 0d		 jne	 SHORT $LN6@Insert_nod

; 660  :             _STL_INTERNAL_CHECK(_Loc._Parent->_Right->_Isnil);
; 661  :             _Loc._Parent->_Right = _Newnode;

  00039	89 7a 08	 mov	 DWORD PTR [edx+8], edi

; 662  :             if (_Loc._Parent == _Head->_Right) { // remember rightmost node

  0003c	3b 50 08	 cmp	 edx, DWORD PTR [eax+8]
  0003f	75 0d		 jne	 SHORT $LN9@Insert_nod

; 663  :                 _Head->_Right = _Newnode;

  00041	89 78 08	 mov	 DWORD PTR [eax+8], edi

; 664  :             }
; 665  :         } else { // add to left of _Loc._Parent

  00044	eb 08		 jmp	 SHORT $LN9@Insert_nod
$LN6@Insert_nod:

; 666  :             _STL_INTERNAL_CHECK(_Loc._Parent->_Left->_Isnil);
; 667  :             _Loc._Parent->_Left = _Newnode;

  00046	89 3a		 mov	 DWORD PTR [edx], edi

; 668  :             if (_Loc._Parent == _Head->_Left) { // remember leftmost node

  00048	3b 10		 cmp	 edx, DWORD PTR [eax]
  0004a	75 02		 jne	 SHORT $LN9@Insert_nod

; 669  :                 _Head->_Left = _Newnode;

  0004c	89 38		 mov	 DWORD PTR [eax], edi
$LN9@Insert_nod:

; 670  :             }
; 671  :         }
; 672  : 
; 673  :         for (_Nodeptr _Pnode = _Newnode; _Pnode->_Parent->_Color == _Red;) {

  0004e	8b 4f 04	 mov	 ecx, DWORD PTR [edi+4]
  00051	8b c7		 mov	 eax, edi
  00053	80 79 0c 00	 cmp	 BYTE PTR [ecx+12], 0
  00057	0f 85 7d 01 00
	00		 jne	 $LN3@Insert_nod
  0005d	56		 push	 esi
  0005e	66 90		 npad	 2
$LL2@Insert_nod:

; 674  :             if (_Pnode->_Parent == _Pnode->_Parent->_Parent->_Left) { // fixup red-red in left subtree

  00060	8b 50 04	 mov	 edx, DWORD PTR [eax+4]
  00063	8b 72 04	 mov	 esi, DWORD PTR [edx+4]
  00066	8b 0e		 mov	 ecx, DWORD PTR [esi]
  00068	3b d1		 cmp	 edx, ecx
  0006a	0f 85 aa 00 00
	00		 jne	 $LN10@Insert_nod

; 675  :                 const auto _Parent_sibling = _Pnode->_Parent->_Parent->_Right;

  00070	8b 4e 08	 mov	 ecx, DWORD PTR [esi+8]

; 676  :                 if (_Parent_sibling->_Color == _Red) { // parent's sibling has two red children, blacken both

  00073	80 79 0c 00	 cmp	 BYTE PTR [ecx+12], 0
  00077	0f 84 a3 00 00
	00		 je	 $LN54@Insert_nod

; 677  :                     _Pnode->_Parent->_Color          = _Black;
; 678  :                     _Parent_sibling->_Color          = _Black;
; 679  :                     _Pnode->_Parent->_Parent->_Color = _Red;
; 680  :                     _Pnode                           = _Pnode->_Parent->_Parent;
; 681  :                 } else { // parent's sibling has red and black children
; 682  :                     if (_Pnode == _Pnode->_Parent->_Right) { // rotate right child to left

  0007d	8b 72 08	 mov	 esi, DWORD PTR [edx+8]
  00080	3b c6		 cmp	 eax, esi
  00082	75 37		 jne	 SHORT $LN51@Insert_nod

; 462  :         _Wherenode->_Right = _Pnode->_Left;

  00084	8b 0e		 mov	 ecx, DWORD PTR [esi]

; 683  :                         _Pnode = _Pnode->_Parent;

  00086	8b c2		 mov	 eax, edx

; 462  :         _Wherenode->_Right = _Pnode->_Left;

  00088	89 4a 08	 mov	 DWORD PTR [edx+8], ecx

; 463  : 
; 464  :         if (!_Pnode->_Left->_Isnil) {

  0008b	8b 0e		 mov	 ecx, DWORD PTR [esi]
  0008d	80 79 0d 00	 cmp	 BYTE PTR [ecx+13], 0
  00091	75 03		 jne	 SHORT $LN34@Insert_nod

; 465  :             _Pnode->_Left->_Parent = _Wherenode;

  00093	89 41 04	 mov	 DWORD PTR [ecx+4], eax
$LN34@Insert_nod:

; 466  :         }
; 467  : 
; 468  :         _Pnode->_Parent = _Wherenode->_Parent;

  00096	8b 4a 04	 mov	 ecx, DWORD PTR [edx+4]
  00099	89 4e 04	 mov	 DWORD PTR [esi+4], ecx

; 469  : 
; 470  :         if (_Wherenode == _Myhead->_Parent) {

  0009c	8b 0b		 mov	 ecx, DWORD PTR [ebx]
  0009e	3b 41 04	 cmp	 eax, DWORD PTR [ecx+4]
  000a1	75 05		 jne	 SHORT $LN35@Insert_nod

; 471  :             _Myhead->_Parent = _Pnode;

  000a3	89 71 04	 mov	 DWORD PTR [ecx+4], esi
  000a6	eb 0e		 jmp	 SHORT $LN38@Insert_nod
$LN35@Insert_nod:

; 472  :         } else if (_Wherenode == _Wherenode->_Parent->_Left) {

  000a8	8b 4a 04	 mov	 ecx, DWORD PTR [edx+4]
  000ab	3b 01		 cmp	 eax, DWORD PTR [ecx]
  000ad	75 04		 jne	 SHORT $LN37@Insert_nod

; 473  :             _Wherenode->_Parent->_Left = _Pnode;

  000af	89 31		 mov	 DWORD PTR [ecx], esi

; 474  :         } else {

  000b1	eb 03		 jmp	 SHORT $LN38@Insert_nod
$LN37@Insert_nod:

; 475  :             _Wherenode->_Parent->_Right = _Pnode;

  000b3	89 71 08	 mov	 DWORD PTR [ecx+8], esi
$LN38@Insert_nod:

; 476  :         }
; 477  : 
; 478  :         _Pnode->_Left       = _Wherenode;

  000b6	89 06		 mov	 DWORD PTR [esi], eax

; 479  :         _Wherenode->_Parent = _Pnode;

  000b8	89 72 04	 mov	 DWORD PTR [edx+4], esi
$LN51@Insert_nod:

; 684  :                         _Lrotate(_Pnode);
; 685  :                     }
; 686  : 
; 687  :                     _Pnode->_Parent->_Color          = _Black; // propagate red up

  000bb	8b 48 04	 mov	 ecx, DWORD PTR [eax+4]
  000be	c6 41 0c 01	 mov	 BYTE PTR [ecx+12], 1

; 688  :                     _Pnode->_Parent->_Parent->_Color = _Red;

  000c2	8b 48 04	 mov	 ecx, DWORD PTR [eax+4]
  000c5	8b 49 04	 mov	 ecx, DWORD PTR [ecx+4]
  000c8	c6 41 0c 00	 mov	 BYTE PTR [ecx+12], 0

; 689  :                     _Rrotate(_Pnode->_Parent->_Parent);

  000cc	8b 48 04	 mov	 ecx, DWORD PTR [eax+4]
  000cf	8b 51 04	 mov	 edx, DWORD PTR [ecx+4]

; 483  :         _Nodeptr _Pnode   = _Wherenode->_Left;

  000d2	8b 32		 mov	 esi, DWORD PTR [edx]

; 484  :         _Wherenode->_Left = _Pnode->_Right;

  000d4	8b 4e 08	 mov	 ecx, DWORD PTR [esi+8]
  000d7	89 0a		 mov	 DWORD PTR [edx], ecx

; 485  : 
; 486  :         if (!_Pnode->_Right->_Isnil) {

  000d9	8b 4e 08	 mov	 ecx, DWORD PTR [esi+8]
  000dc	80 79 0d 00	 cmp	 BYTE PTR [ecx+13], 0
  000e0	75 03		 jne	 SHORT $LN20@Insert_nod

; 487  :             _Pnode->_Right->_Parent = _Wherenode;

  000e2	89 51 04	 mov	 DWORD PTR [ecx+4], edx
$LN20@Insert_nod:

; 488  :         }
; 489  : 
; 490  :         _Pnode->_Parent = _Wherenode->_Parent;

  000e5	8b 4a 04	 mov	 ecx, DWORD PTR [edx+4]
  000e8	89 4e 04	 mov	 DWORD PTR [esi+4], ecx

; 491  : 
; 492  :         if (_Wherenode == _Myhead->_Parent) {

  000eb	8b 0b		 mov	 ecx, DWORD PTR [ebx]
  000ed	3b 51 04	 cmp	 edx, DWORD PTR [ecx+4]
  000f0	75 0b		 jne	 SHORT $LN21@Insert_nod

; 493  :             _Myhead->_Parent = _Pnode;

  000f2	89 71 04	 mov	 DWORD PTR [ecx+4], esi

; 498  :         }
; 499  : 
; 500  :         _Pnode->_Right      = _Wherenode;

  000f5	89 56 08	 mov	 DWORD PTR [esi+8], edx

; 690  :                 }
; 691  :             } else { // fixup red-red in right subtree

  000f8	e9 cc 00 00 00	 jmp	 $LN53@Insert_nod
$LN21@Insert_nod:

; 494  :         } else if (_Wherenode == _Wherenode->_Parent->_Right) {

  000fd	8b 4a 04	 mov	 ecx, DWORD PTR [edx+4]
  00100	3b 51 08	 cmp	 edx, DWORD PTR [ecx+8]
  00103	75 0b		 jne	 SHORT $LN23@Insert_nod

; 495  :             _Wherenode->_Parent->_Right = _Pnode;

  00105	89 71 08	 mov	 DWORD PTR [ecx+8], esi

; 498  :         }
; 499  : 
; 500  :         _Pnode->_Right      = _Wherenode;

  00108	89 56 08	 mov	 DWORD PTR [esi+8], edx

; 690  :                 }
; 691  :             } else { // fixup red-red in right subtree

  0010b	e9 b9 00 00 00	 jmp	 $LN53@Insert_nod
$LN23@Insert_nod:

; 497  :             _Wherenode->_Parent->_Left = _Pnode;

  00110	89 31		 mov	 DWORD PTR [ecx], esi

; 498  :         }
; 499  : 
; 500  :         _Pnode->_Right      = _Wherenode;

  00112	89 56 08	 mov	 DWORD PTR [esi+8], edx

; 690  :                 }
; 691  :             } else { // fixup red-red in right subtree

  00115	e9 af 00 00 00	 jmp	 $LN53@Insert_nod
$LN10@Insert_nod:

; 692  :                 const auto _Parent_sibling = _Pnode->_Parent->_Parent->_Left;
; 693  :                 if (_Parent_sibling->_Color == _Red) { // parent's sibling has two red children, blacken both

  0011a	80 79 0c 00	 cmp	 BYTE PTR [ecx+12], 0
  0011e	75 1d		 jne	 SHORT $LN15@Insert_nod
$LN54@Insert_nod:

; 670  :             }
; 671  :         }
; 672  : 
; 673  :         for (_Nodeptr _Pnode = _Newnode; _Pnode->_Parent->_Color == _Red;) {

  00120	c6 42 0c 01	 mov	 BYTE PTR [edx+12], 1
  00124	c6 41 0c 01	 mov	 BYTE PTR [ecx+12], 1
  00128	8b 48 04	 mov	 ecx, DWORD PTR [eax+4]
  0012b	8b 49 04	 mov	 ecx, DWORD PTR [ecx+4]
  0012e	c6 41 0c 00	 mov	 BYTE PTR [ecx+12], 0
  00132	8b 48 04	 mov	 ecx, DWORD PTR [eax+4]
  00135	8b 41 04	 mov	 eax, DWORD PTR [ecx+4]
  00138	e9 8f 00 00 00	 jmp	 $LN32@Insert_nod
$LN15@Insert_nod:

; 694  :                     _Pnode->_Parent->_Color          = _Black;
; 695  :                     _Parent_sibling->_Color          = _Black;
; 696  :                     _Pnode->_Parent->_Parent->_Color = _Red;
; 697  :                     _Pnode                           = _Pnode->_Parent->_Parent;
; 698  :                 } else { // parent's sibling has red and black children
; 699  :                     if (_Pnode == _Pnode->_Parent->_Left) { // rotate left child to right

  0013d	8b 32		 mov	 esi, DWORD PTR [edx]
  0013f	3b c6		 cmp	 eax, esi
  00141	75 3a		 jne	 SHORT $LN46@Insert_nod

; 484  :         _Wherenode->_Left = _Pnode->_Right;

  00143	8b 4e 08	 mov	 ecx, DWORD PTR [esi+8]

; 700  :                         _Pnode = _Pnode->_Parent;

  00146	8b c2		 mov	 eax, edx

; 484  :         _Wherenode->_Left = _Pnode->_Right;

  00148	89 08		 mov	 DWORD PTR [eax], ecx

; 485  : 
; 486  :         if (!_Pnode->_Right->_Isnil) {

  0014a	8b 4e 08	 mov	 ecx, DWORD PTR [esi+8]
  0014d	80 79 0d 00	 cmp	 BYTE PTR [ecx+13], 0
  00151	75 03		 jne	 SHORT $LN41@Insert_nod

; 487  :             _Pnode->_Right->_Parent = _Wherenode;

  00153	89 41 04	 mov	 DWORD PTR [ecx+4], eax
$LN41@Insert_nod:

; 488  :         }
; 489  : 
; 490  :         _Pnode->_Parent = _Wherenode->_Parent;

  00156	8b 4a 04	 mov	 ecx, DWORD PTR [edx+4]
  00159	89 4e 04	 mov	 DWORD PTR [esi+4], ecx

; 491  : 
; 492  :         if (_Wherenode == _Myhead->_Parent) {

  0015c	8b 0b		 mov	 ecx, DWORD PTR [ebx]
  0015e	3b 41 04	 cmp	 eax, DWORD PTR [ecx+4]
  00161	75 05		 jne	 SHORT $LN42@Insert_nod

; 493  :             _Myhead->_Parent = _Pnode;

  00163	89 71 04	 mov	 DWORD PTR [ecx+4], esi
  00166	eb 0f		 jmp	 SHORT $LN45@Insert_nod
$LN42@Insert_nod:

; 494  :         } else if (_Wherenode == _Wherenode->_Parent->_Right) {

  00168	8b 4a 04	 mov	 ecx, DWORD PTR [edx+4]
  0016b	3b 41 08	 cmp	 eax, DWORD PTR [ecx+8]
  0016e	75 05		 jne	 SHORT $LN44@Insert_nod

; 495  :             _Wherenode->_Parent->_Right = _Pnode;

  00170	89 71 08	 mov	 DWORD PTR [ecx+8], esi

; 496  :         } else {

  00173	eb 02		 jmp	 SHORT $LN45@Insert_nod
$LN44@Insert_nod:

; 497  :             _Wherenode->_Parent->_Left = _Pnode;

  00175	89 31		 mov	 DWORD PTR [ecx], esi
$LN45@Insert_nod:

; 498  :         }
; 499  : 
; 500  :         _Pnode->_Right      = _Wherenode;

  00177	89 46 08	 mov	 DWORD PTR [esi+8], eax

; 501  :         _Wherenode->_Parent = _Pnode;

  0017a	89 72 04	 mov	 DWORD PTR [edx+4], esi
$LN46@Insert_nod:

; 701  :                         _Rrotate(_Pnode);
; 702  :                     }
; 703  : 
; 704  :                     _Pnode->_Parent->_Color          = _Black; // propagate red up

  0017d	8b 48 04	 mov	 ecx, DWORD PTR [eax+4]
  00180	c6 41 0c 01	 mov	 BYTE PTR [ecx+12], 1

; 705  :                     _Pnode->_Parent->_Parent->_Color = _Red;

  00184	8b 48 04	 mov	 ecx, DWORD PTR [eax+4]
  00187	8b 49 04	 mov	 ecx, DWORD PTR [ecx+4]
  0018a	c6 41 0c 00	 mov	 BYTE PTR [ecx+12], 0

; 706  :                     _Lrotate(_Pnode->_Parent->_Parent);

  0018e	8b 48 04	 mov	 ecx, DWORD PTR [eax+4]
  00191	8b 51 04	 mov	 edx, DWORD PTR [ecx+4]

; 461  :         _Nodeptr _Pnode    = _Wherenode->_Right;

  00194	8b 72 08	 mov	 esi, DWORD PTR [edx+8]

; 462  :         _Wherenode->_Right = _Pnode->_Left;

  00197	8b 0e		 mov	 ecx, DWORD PTR [esi]
  00199	89 4a 08	 mov	 DWORD PTR [edx+8], ecx

; 463  : 
; 464  :         if (!_Pnode->_Left->_Isnil) {

  0019c	8b 0e		 mov	 ecx, DWORD PTR [esi]
  0019e	80 79 0d 00	 cmp	 BYTE PTR [ecx+13], 0
  001a2	75 03		 jne	 SHORT $LN27@Insert_nod

; 465  :             _Pnode->_Left->_Parent = _Wherenode;

  001a4	89 51 04	 mov	 DWORD PTR [ecx+4], edx
$LN27@Insert_nod:

; 466  :         }
; 467  : 
; 468  :         _Pnode->_Parent = _Wherenode->_Parent;

  001a7	8b 4a 04	 mov	 ecx, DWORD PTR [edx+4]
  001aa	89 4e 04	 mov	 DWORD PTR [esi+4], ecx

; 469  : 
; 470  :         if (_Wherenode == _Myhead->_Parent) {

  001ad	8b 0b		 mov	 ecx, DWORD PTR [ebx]
  001af	3b 51 04	 cmp	 edx, DWORD PTR [ecx+4]
  001b2	75 05		 jne	 SHORT $LN28@Insert_nod

; 471  :             _Myhead->_Parent = _Pnode;

  001b4	89 71 04	 mov	 DWORD PTR [ecx+4], esi
  001b7	eb 0e		 jmp	 SHORT $LN31@Insert_nod
$LN28@Insert_nod:

; 472  :         } else if (_Wherenode == _Wherenode->_Parent->_Left) {

  001b9	8b 4a 04	 mov	 ecx, DWORD PTR [edx+4]
  001bc	3b 11		 cmp	 edx, DWORD PTR [ecx]
  001be	75 04		 jne	 SHORT $LN30@Insert_nod

; 473  :             _Wherenode->_Parent->_Left = _Pnode;

  001c0	89 31		 mov	 DWORD PTR [ecx], esi

; 474  :         } else {

  001c2	eb 03		 jmp	 SHORT $LN31@Insert_nod
$LN30@Insert_nod:

; 475  :             _Wherenode->_Parent->_Right = _Pnode;

  001c4	89 71 08	 mov	 DWORD PTR [ecx+8], esi
$LN31@Insert_nod:

; 476  :         }
; 477  : 
; 478  :         _Pnode->_Left       = _Wherenode;

  001c7	89 16		 mov	 DWORD PTR [esi], edx
$LN53@Insert_nod:

; 670  :             }
; 671  :         }
; 672  : 
; 673  :         for (_Nodeptr _Pnode = _Newnode; _Pnode->_Parent->_Color == _Red;) {

  001c9	89 72 04	 mov	 DWORD PTR [edx+4], esi
$LN32@Insert_nod:
  001cc	8b 48 04	 mov	 ecx, DWORD PTR [eax+4]
  001cf	80 79 0c 00	 cmp	 BYTE PTR [ecx+12], 0
  001d3	0f 84 87 fe ff
	ff		 je	 $LL2@Insert_nod
  001d9	5e		 pop	 esi
$LN3@Insert_nod:

; 707  :                 }
; 708  :             }
; 709  :         }
; 710  : 
; 711  :         _Head->_Parent->_Color = _Black; // root is always black

  001da	8b 45 fc	 mov	 eax, DWORD PTR __Head$1$[ebp]
  001dd	8b 40 04	 mov	 eax, DWORD PTR [eax+4]
  001e0	c6 40 0c 01	 mov	 BYTE PTR [eax+12], 1

; 712  :         return _Newnode;
; 713  :     }

  001e4	8b c7		 mov	 eax, edi
  001e6	5f		 pop	 edi
  001e7	5b		 pop	 ebx
  001e8	8b e5		 mov	 esp, ebp
  001ea	5d		 pop	 ebp
  001eb	c2 0c 00	 ret	 12			; 0000000cH
?_Insert_node@?$_Tree_val@U?$_Tree_simple_types@U?$pair@$$CBV?$basic_string@DU?$char_traits@D@std@@V?$allocator@D@2@@std@@V?$vector@V?$basic_string@DU?$char_traits@D@std@@V?$allocator@D@2@@std@@V?$allocator@V?$basic_string@DU?$char_traits@D@std@@V?$allocator@D@2@@std@@@2@@2@@std@@@std@@@std@@QAEPAU?$_Tree_node@U?$pair@$$CBV?$basic_string@DU?$char_traits@D@std@@V?$allocator@D@2@@std@@V?$vector@V?$basic_string@DU?$char_traits@D@std@@V?$allocator@D@2@@std@@V?$allocator@V?$basic_string@DU?$char_traits@D@std@@V?$allocator@D@2@@std@@@2@@2@@std@@PAX@2@U?$_Tree_id@PAU?$_Tree_node@U?$pair@$$CBV?$basic_string@DU?$char_traits@D@std@@V?$allocator@D@2@@std@@V?$vector@V?$basic_string@DU?$char_traits@D@std@@V?$allocator@D@2@@std@@V?$allocator@V?$basic_string@DU?$char_traits@D@std@@V?$allocator@D@2@@std@@@2@@2@@std@@PAX@std@@@2@QAU32@@Z ENDP ; std::_Tree_val<std::_Tree_simple_types<std::pair<std::basic_string<char,std::char_traits<char>,std::allocator<char> > const ,std::vector<std::basic_string<char,std::char_traits<char>,std::allocator<char> >,std::allocator<std::basic_string<char,std::char_traits<char>,std::allocator<char> > > > > > >::_Insert_node
_TEXT	ENDS
; Function compile flags: /Ogtp
;	COMDAT ??_GCTextureSet@@UAEPAXI@Z
_TEXT	SEGMENT
___flags$ = 8						; size = 4
??_GCTextureSet@@UAEPAXI@Z PROC				; CTextureSet::`scalar deleting destructor', COMDAT
; _this$ = ecx
  00000	55		 push	 ebp
  00001	8b ec		 mov	 ebp, esp
  00003	56		 push	 esi
  00004	8b f1		 mov	 esi, ecx
  00006	e8 00 00 00 00	 call	 ??1CTextureSet@@UAE@XZ	; CTextureSet::~CTextureSet
  0000b	f6 45 08 01	 test	 BYTE PTR ___flags$[ebp], 1
  0000f	74 0e		 je	 SHORT $LN4@scalar
  00011	68 c4 00 00 00	 push	 196			; 000000c4H
  00016	56		 push	 esi
  00017	e8 00 00 00 00	 call	 ??3@YAXPAXI@Z		; operator delete
  0001c	83 c4 08	 add	 esp, 8
$LN4@scalar:
  0001f	8b c6		 mov	 eax, esi
  00021	5e		 pop	 esi
  00022	5d		 pop	 ebp
  00023	c2 04 00	 ret	 4
??_GCTextureSet@@UAEPAXI@Z ENDP				; CTextureSet::`scalar deleting destructor'
_TEXT	ENDS
; Function compile flags: /Ogtp
; File C:\Program Files\Microsoft Visual Studio\2022\Community\VC\Tools\MSVC\14.34.31933\include\vector
;	COMDAT ?_Xlength@?$vector@USTerrainTexture@@V?$allocator@USTerrainTexture@@@std@@@std@@CAXXZ
_TEXT	SEGMENT
?_Xlength@?$vector@USTerrainTexture@@V?$allocator@USTerrainTexture@@@std@@@std@@CAXXZ PROC ; std::vector<STerrainTexture,std::allocator<STerrainTexture> >::_Xlength, COMDAT

; 2201 :         _Xlength_error("vector too long");

  00000	68 00 00 00 00	 push	 OFFSET ??_C@_0BA@FOIKENOD@vector?5too?5long@
  00005	e8 00 00 00 00	 call	 ?_Xlength_error@std@@YAXPBD@Z ; std::_Xlength_error
$LN3@Xlength:
  0000a	cc		 int	 3
?_Xlength@?$vector@USTerrainTexture@@V?$allocator@USTerrainTexture@@@std@@@std@@CAXXZ ENDP ; std::vector<STerrainTexture,std::allocator<STerrainTexture> >::_Xlength
_TEXT	ENDS
; Function compile flags: /Ogtp
; File C:\Program Files\Microsoft Visual Studio\2022\Community\VC\Tools\MSVC\14.34.31933\include\vector
; File C:\Program Files\Microsoft Visual Studio\2022\Community\VC\Tools\MSVC\14.34.31933\include\xmemory
; File C:\Program Files\Microsoft Visual Studio\2022\Community\VC\Tools\MSVC\14.34.31933\include\vector
; File C:\Program Files\Microsoft Visual Studio\2022\Community\VC\Tools\MSVC\14.34.31933\include\xmemory
; File C:\Program Files\Microsoft Visual Studio\2022\Community\VC\Tools\MSVC\14.34.31933\include\vector
;	COMDAT ?_Change_array@?$vector@USTerrainTexture@@V?$allocator@USTerrainTexture@@@std@@@std@@AAEXQAUSTerrainTexture@@II@Z
_TEXT	SEGMENT
__Newvec$ = 8						; size = 4
__Newsize$ = 12						; size = 4
__Newcapacity$ = 16					; size = 4
?_Change_array@?$vector@USTerrainTexture@@V?$allocator@USTerrainTexture@@@std@@@std@@AAEXQAUSTerrainTexture@@II@Z PROC ; std::vector<STerrainTexture,std::allocator<STerrainTexture> >::_Change_array, COMDAT
; _this$ = ecx

; 2076 :     _CONSTEXPR20 void _Change_array(const pointer _Newvec, const size_type _Newsize, const size_type _Newcapacity) {

  00000	55		 push	 ebp
  00001	8b ec		 mov	 ebp, esp
  00003	56		 push	 esi
  00004	8b f1		 mov	 esi, ecx

; 2077 :         // orphan all iterators, discard old array, acquire new array
; 2078 :         auto& _Al         = _Getal();
; 2079 :         auto& _My_data    = _Mypair._Myval2;
; 2080 :         pointer& _Myfirst = _My_data._Myfirst;
; 2081 :         pointer& _Mylast  = _My_data._Mylast;
; 2082 :         pointer& _Myend   = _My_data._Myend;
; 2083 : 
; 2084 :         _My_data._Orphan_all();
; 2085 : 
; 2086 :         if (_Myfirst) { // destroy and deallocate old array

  00006	8b 06		 mov	 eax, DWORD PTR [esi]
  00008	85 c0		 test	 eax, eax
  0000a	74 53		 je	 SHORT $LN8@Change_arr

; 2087 :             _Destroy_range(_Myfirst, _Mylast, _Al);

  0000c	57		 push	 edi
  0000d	56		 push	 esi
  0000e	ff 76 04	 push	 DWORD PTR [esi+4]
  00011	50		 push	 eax
  00012	e8 00 00 00 00	 call	 ??$_Destroy_range@V?$allocator@USTerrainTexture@@@std@@@std@@YAXPAUSTerrainTexture@@QAU1@AAV?$allocator@USTerrainTexture@@@0@@Z ; std::_Destroy_range<std::allocator<STerrainTexture> >

; 2088 :             _ASAN_VECTOR_REMOVE;
; 2089 :             _Al.deallocate(_Myfirst, static_cast<size_type>(_Myend - _Myfirst));

  00017	8b 4e 08	 mov	 ecx, DWORD PTR [esi+8]
  0001a	b8 d3 20 0d d2	 mov	 eax, -770891565		; d20d20d3H
  0001f	8b 3e		 mov	 edi, DWORD PTR [esi]
  00021	83 c4 0c	 add	 esp, 12			; 0000000cH
  00024	2b cf		 sub	 ecx, edi
  00026	f7 e9		 imul	 ecx
  00028	03 d1		 add	 edx, ecx
  0002a	c1 fa 07	 sar	 edx, 7
  0002d	8b c2		 mov	 eax, edx
  0002f	c1 e8 1f	 shr	 eax, 31			; 0000001fH
  00032	03 c2		 add	 eax, edx
; File C:\Program Files\Microsoft Visual Studio\2022\Community\VC\Tools\MSVC\14.34.31933\include\xmemory

; 830  :         _Deallocate<_New_alignof<_Ty>>(_Ptr, sizeof(_Ty) * _Count);

  00034	69 c8 9c 00 00
	00		 imul	 ecx, eax, 156

; 251  :         if (_Bytes >= _Big_allocation_threshold) { // boost the alignment of big allocations to help autovectorization

  0003a	81 f9 00 10 00
	00		 cmp	 ecx, 4096		; 00001000H
  00040	72 12		 jb	 SHORT $LN18@Change_arr

; 150  :     const uintptr_t _Ptr_container   = _Ptr_user[-1];

  00042	8b 57 fc	 mov	 edx, DWORD PTR [edi-4]
  00045	83 c1 23	 add	 ecx, 35			; 00000023H

; 151  : 
; 152  :     // If the following asserts, it likely means that we are performing
; 153  :     // an aligned delete on memory coming from an unaligned allocation.
; 154  :     _STL_ASSERT(_Ptr_user[-2] == _Big_allocation_sentinel, "invalid argument");
; 155  : 
; 156  :     // Extra paranoia on aligned allocation/deallocation; ensure _Ptr_container is
; 157  :     // in range [_Min_back_shift, _Non_user_size]
; 158  : #ifdef _DEBUG
; 159  :     constexpr uintptr_t _Min_back_shift = 2 * sizeof(void*);
; 160  : #else // ^^^ _DEBUG ^^^ // vvv !_DEBUG vvv
; 161  :     constexpr uintptr_t _Min_back_shift = sizeof(void*);
; 162  : #endif // _DEBUG
; 163  :     const uintptr_t _Back_shift = reinterpret_cast<uintptr_t>(_Ptr) - _Ptr_container;

  00048	2b fa		 sub	 edi, edx

; 164  :     _STL_VERIFY(_Back_shift >= _Min_back_shift && _Back_shift <= _Non_user_size, "invalid argument");

  0004a	8d 47 fc	 lea	 eax, DWORD PTR [edi-4]
  0004d	83 f8 1f	 cmp	 eax, 31			; 0000001fH
  00050	77 2f		 ja	 SHORT $LN15@Change_arr

; 165  :     _Ptr = reinterpret_cast<void*>(_Ptr_container);

  00052	8b fa		 mov	 edi, edx
$LN18@Change_arr:

; 255  :         ::operator delete(_Ptr, _Bytes);

  00054	51		 push	 ecx
  00055	57		 push	 edi
  00056	e8 00 00 00 00	 call	 ??3@YAXPAXI@Z		; operator delete
  0005b	83 c4 08	 add	 esp, 8
  0005e	5f		 pop	 edi
$LN8@Change_arr:
; File C:\Program Files\Microsoft Visual Studio\2022\Community\VC\Tools\MSVC\14.34.31933\include\vector

; 2093 :         _Mylast  = _Newvec + _Newsize;

  0005f	69 45 0c 9c 00
	00 00		 imul	 eax, DWORD PTR __Newsize$[ebp], 156
  00066	8b 4d 08	 mov	 ecx, DWORD PTR __Newvec$[ebp]
  00069	89 0e		 mov	 DWORD PTR [esi], ecx
  0006b	03 c1		 add	 eax, ecx
  0006d	89 46 04	 mov	 DWORD PTR [esi+4], eax

; 2094 :         _Myend   = _Newvec + _Newcapacity;

  00070	69 45 10 9c 00
	00 00		 imul	 eax, DWORD PTR __Newcapacity$[ebp], 156
  00077	03 c1		 add	 eax, ecx
  00079	89 46 08	 mov	 DWORD PTR [esi+8], eax
  0007c	5e		 pop	 esi

; 2096 :     }

  0007d	5d		 pop	 ebp
  0007e	c2 0c 00	 ret	 12			; 0000000cH
$LN15@Change_arr:
; File C:\Program Files\Microsoft Visual Studio\2022\Community\VC\Tools\MSVC\14.34.31933\include\xmemory

; 164  :     _STL_VERIFY(_Back_shift >= _Min_back_shift && _Back_shift <= _Non_user_size, "invalid argument");

  00081	e8 00 00 00 00	 call	 __invalid_parameter_noinfo_noreturn
$LN22@Change_arr:
  00086	cc		 int	 3
?_Change_array@?$vector@USTerrainTexture@@V?$allocator@USTerrainTexture@@@std@@@std@@AAEXQAUSTerrainTexture@@II@Z ENDP ; std::vector<STerrainTexture,std::allocator<STerrainTexture> >::_Change_array
_TEXT	ENDS
; Function compile flags: /Ogtp
; File C:\Program Files\Microsoft Visual Studio\2022\Community\VC\Tools\MSVC\14.34.31933\include\vector
; File C:\Program Files\Microsoft Visual Studio\2022\Community\VC\Tools\MSVC\14.34.31933\include\xmemory
; File C:\Program Files\Microsoft Visual Studio\2022\Community\VC\Tools\MSVC\14.34.31933\include\vector
; File C:\Program Files\Microsoft Visual Studio\2022\Community\VC\Tools\MSVC\14.34.31933\include\xmemory
; File C:\Program Files\Microsoft Visual Studio\2022\Community\VC\Tools\MSVC\14.34.31933\include\vector
; File C:\Program Files\Microsoft Visual Studio\2022\Community\VC\Tools\MSVC\14.34.31933\include\xmemory
; File C:\Program Files\Microsoft Visual Studio\2022\Community\VC\Tools\MSVC\14.34.31933\include\vector
;	COMDAT ?_Reallocate_exactly@?$vector@USTerrainTexture@@V?$allocator@USTerrainTexture@@@std@@@std@@AAEXI@Z
_TEXT	SEGMENT
_this$ = -28						; size = 4
__Size$1$ = -24						; size = 4
$T2 = -20						; size = 4
__$EHRec$ = -16						; size = 16
__Newcapacity$ = 8					; size = 4
?_Reallocate_exactly@?$vector@USTerrainTexture@@V?$allocator@USTerrainTexture@@@std@@@std@@AAEXI@Z PROC ; std::vector<STerrainTexture,std::allocator<STerrainTexture> >::_Reallocate_exactly, COMDAT
; _this$ = ecx

; 1664 :     _CONSTEXPR20 void _Reallocate_exactly(const size_type _Newcapacity) {

  00000	55		 push	 ebp
  00001	8b ec		 mov	 ebp, esp
  00003	6a ff		 push	 -1
  00005	68 00 00 00 00	 push	 __ehhandler$?_Reallocate_exactly@?$vector@USTerrainTexture@@V?$allocator@USTerrainTexture@@@std@@@std@@AAEXI@Z
  0000a	64 a1 00 00 00
	00		 mov	 eax, DWORD PTR fs:0
  00010	50		 push	 eax
  00011	83 ec 10	 sub	 esp, 16			; 00000010H
  00014	53		 push	 ebx
  00015	56		 push	 esi
  00016	57		 push	 edi
  00017	a1 00 00 00 00	 mov	 eax, DWORD PTR ___security_cookie
  0001c	33 c5		 xor	 eax, ebp
  0001e	50		 push	 eax
  0001f	8d 45 f4	 lea	 eax, DWORD PTR __$EHRec$[ebp+4]
  00022	64 a3 00 00 00
	00		 mov	 DWORD PTR fs:0, eax
  00028	89 65 f0	 mov	 DWORD PTR __$EHRec$[ebp], esp
  0002b	8b f9		 mov	 edi, ecx
  0002d	89 7d e4	 mov	 DWORD PTR _this$[ebp], edi

; 1671 :         const auto _Size = static_cast<size_type>(_Mylast - _Myfirst);

  00030	8b 77 04	 mov	 esi, DWORD PTR [edi+4]
  00033	b8 d3 20 0d d2	 mov	 eax, -770891565		; d20d20d3H
  00038	2b 37		 sub	 esi, DWORD PTR [edi]
; File C:\Program Files\Microsoft Visual Studio\2022\Community\VC\Tools\MSVC\14.34.31933\include\xmemory

; 60   :         if (_Count > _Max_possible) {

  0003a	8b 5d 08	 mov	 ebx, DWORD PTR __Newcapacity$[ebp]
; File C:\Program Files\Microsoft Visual Studio\2022\Community\VC\Tools\MSVC\14.34.31933\include\vector

; 1671 :         const auto _Size = static_cast<size_type>(_Mylast - _Myfirst);

  0003d	f7 ee		 imul	 esi
  0003f	03 d6		 add	 edx, esi
  00041	c1 fa 07	 sar	 edx, 7
  00044	8b c2		 mov	 eax, edx
  00046	c1 e8 1f	 shr	 eax, 31			; 0000001fH
  00049	03 c2		 add	 eax, edx
  0004b	89 45 e8	 mov	 DWORD PTR __Size$1$[ebp], eax
; File C:\Program Files\Microsoft Visual Studio\2022\Community\VC\Tools\MSVC\14.34.31933\include\xmemory

; 60   :         if (_Count > _Max_possible) {

  0004e	81 fb 41 1a a4
	01		 cmp	 ebx, 27531841		; 01a41a41H
  00054	0f 87 80 00 00
	00		 ja	 $LN25@Reallocate

; 62   :         }
; 63   :     }
; 64   : 
; 65   :     return _Count * _Ty_size;

  0005a	69 c3 9c 00 00
	00		 imul	 eax, ebx, 156

; 228  :         if (_Bytes >= _Big_allocation_threshold) { // boost the alignment of big allocations to help autovectorization

  00060	3d 00 10 00 00	 cmp	 eax, 4096		; 00001000H
  00065	72 0d		 jb	 SHORT $LN15@Reallocate

; 229  :             return _Allocate_manually_vector_aligned<_Traits>(_Bytes);

  00067	50		 push	 eax
  00068	e8 00 00 00 00	 call	 ??$_Allocate_manually_vector_aligned@U_Default_allocate_traits@std@@@std@@YAPAXI@Z ; std::_Allocate_manually_vector_aligned<std::_Default_allocate_traits>
  0006d	83 c4 04	 add	 esp, 4
  00070	8b f0		 mov	 esi, eax
  00072	eb 16		 jmp	 SHORT $LN23@Reallocate
$LN15@Reallocate:

; 230  :         }
; 231  :     }
; 232  : #endif // defined(_M_IX86) || defined(_M_X64)
; 233  : 
; 234  :     if (_Bytes != 0) {

  00074	85 c0		 test	 eax, eax
  00076	74 10		 je	 SHORT $LN16@Reallocate

; 77   :         return ::operator new(_Bytes);

  00078	50		 push	 eax
  00079	e8 00 00 00 00	 call	 ??2@YAPAXI@Z		; operator new
  0007e	83 c4 04	 add	 esp, 4

; 235  :         return _Traits::_Allocate(_Bytes);

  00081	89 45 ec	 mov	 DWORD PTR $T2[ebp], eax
  00084	8b f0		 mov	 esi, eax
  00086	eb 05		 jmp	 SHORT $LN14@Reallocate
$LN16@Reallocate:

; 236  :     }
; 237  : 
; 238  :     return nullptr;

  00088	33 f6		 xor	 esi, esi
$LN23@Reallocate:
; File C:\Program Files\Microsoft Visual Studio\2022\Community\VC\Tools\MSVC\14.34.31933\include\vector

; 1675 :         _TRY_BEGIN

  0008a	89 75 ec	 mov	 DWORD PTR $T2[ebp], esi
$LN14@Reallocate:

; 1676 :         if constexpr (is_nothrow_move_constructible_v<_Ty> || !is_copy_constructible_v<_Ty>) {
; 1677 :             _Uninitialized_move(_Myfirst, _Mylast, _Newvec, _Al);
; 1678 :         } else {
; 1679 :             _Uninitialized_copy(_Myfirst, _Mylast, _Newvec, _Al);

  0008d	57		 push	 edi
  0008e	56		 push	 esi
  0008f	ff 77 04	 push	 DWORD PTR [edi+4]
  00092	c7 45 fc 00 00
	00 00		 mov	 DWORD PTR __$EHRec$[ebp+12], 0
  00099	ff 37		 push	 DWORD PTR [edi]
  0009b	e8 00 00 00 00	 call	 ??$_Uninitialized_copy@PAUSTerrainTexture@@PAU1@V?$allocator@USTerrainTexture@@@std@@@std@@YAPAUSTerrainTexture@@PAU1@00AAV?$allocator@USTerrainTexture@@@0@@Z ; std::_Uninitialized_copy<STerrainTexture *,STerrainTexture *,std::allocator<STerrainTexture> >
  000a0	83 c4 10	 add	 esp, 16			; 00000010H

; 1684 :         _CATCH_END
; 1685 : 
; 1686 :         _Change_array(_Newvec, _Size, _Newcapacity);

  000a3	8b cf		 mov	 ecx, edi
  000a5	53		 push	 ebx
  000a6	ff 75 e8	 push	 DWORD PTR __Size$1$[ebp]
  000a9	56		 push	 esi
  000aa	e8 00 00 00 00	 call	 ?_Change_array@?$vector@USTerrainTexture@@V?$allocator@USTerrainTexture@@@std@@@std@@AAEXQAUSTerrainTexture@@II@Z ; std::vector<STerrainTexture,std::allocator<STerrainTexture> >::_Change_array

; 1687 :     }

  000af	8b 4d f4	 mov	 ecx, DWORD PTR __$EHRec$[ebp+4]
  000b2	64 89 0d 00 00
	00 00		 mov	 DWORD PTR fs:0, ecx
  000b9	59		 pop	 ecx
  000ba	5f		 pop	 edi
  000bb	5e		 pop	 esi
  000bc	5b		 pop	 ebx
  000bd	8b e5		 mov	 esp, ebp
  000bf	5d		 pop	 ebp
  000c0	c2 04 00	 ret	 4
__catch$?_Reallocate_exactly@?$vector@USTerrainTexture@@V?$allocator@USTerrainTexture@@@std@@@std@@AAEXI@Z$0:

; 1680 :         }
; 1681 :         _CATCH_ALL
; 1682 :         _Al.deallocate(_Newvec, _Newcapacity);

  000c3	ff 75 08	 push	 DWORD PTR __Newcapacity$[ebp]
  000c6	8b 4d e4	 mov	 ecx, DWORD PTR _this$[ebp]
  000c9	ff 75 ec	 push	 DWORD PTR $T2[ebp]
  000cc	e8 00 00 00 00	 call	 ?deallocate@?$allocator@USTerrainTexture@@@std@@QAEXQAUSTerrainTexture@@I@Z ; std::allocator<STerrainTexture>::deallocate

; 1683 :         _RERAISE;

  000d1	6a 00		 push	 0
  000d3	6a 00		 push	 0
  000d5	e8 00 00 00 00	 call	 __CxxThrowException@8
$LN25@Reallocate:
; File C:\Program Files\Microsoft Visual Studio\2022\Community\VC\Tools\MSVC\14.34.31933\include\xmemory

; 61   :             _Throw_bad_array_new_length(); // multiply overflow

  000da	e8 00 00 00 00	 call	 ?_Throw_bad_array_new_length@std@@YAXXZ ; std::_Throw_bad_array_new_length
$LN22@Reallocate:
  000df	cc		 int	 3
  000e0	cc		 int	 3
  000e1	cc		 int	 3
  000e2	cc		 int	 3
  000e3	cc		 int	 3
  000e4	cc		 int	 3
_TEXT	ENDS
;	COMDAT text$x
text$x	SEGMENT
__ehhandler$?_Reallocate_exactly@?$vector@USTerrainTexture@@V?$allocator@USTerrainTexture@@@std@@@std@@AAEXI@Z:
  00000	90		 npad	 1
  00001	90		 npad	 1
  00002	8b 54 24 08	 mov	 edx, DWORD PTR [esp+8]
  00006	8d 42 0c	 lea	 eax, DWORD PTR [edx+12]
  00009	8b 4a e0	 mov	 ecx, DWORD PTR [edx-32]
  0000c	33 c8		 xor	 ecx, eax
  0000e	e8 00 00 00 00	 call	 @__security_check_cookie@4
  00013	b8 00 00 00 00	 mov	 eax, OFFSET __ehfuncinfo$?_Reallocate_exactly@?$vector@USTerrainTexture@@V?$allocator@USTerrainTexture@@@std@@@std@@AAEXI@Z
  00018	e9 00 00 00 00	 jmp	 ___CxxFrameHandler3
text$x	ENDS
?_Reallocate_exactly@?$vector@USTerrainTexture@@V?$allocator@USTerrainTexture@@@std@@@std@@AAEXI@Z ENDP ; std::vector<STerrainTexture,std::allocator<STerrainTexture> >::_Reallocate_exactly
; Function compile flags: /Ogtp
; File C:\Program Files\Microsoft Visual Studio\2022\Community\VC\Tools\MSVC\14.34.31933\include\vector
; File C:\Program Files\Microsoft Visual Studio\2022\Community\VC\Tools\MSVC\14.34.31933\include\xmemory
; File C:\Program Files\Microsoft Visual Studio\2022\Community\VC\Tools\MSVC\14.34.31933\include\vector
; File C:\Program Files\Microsoft Visual Studio\2022\Community\VC\Tools\MSVC\14.34.31933\include\xmemory
; File C:\Program Files\Microsoft Visual Studio\2022\Community\VC\Tools\MSVC\14.34.31933\include\vector
;	COMDAT ??1?$vector@USTerrainTexture@@V?$allocator@USTerrainTexture@@@std@@@std@@QAE@XZ
_TEXT	SEGMENT
??1?$vector@USTerrainTexture@@V?$allocator@USTerrainTexture@@@std@@@std@@QAE@XZ PROC ; std::vector<STerrainTexture,std::allocator<STerrainTexture> >::~vector<STerrainTexture,std::allocator<STerrainTexture> >, COMDAT
; _this$ = ecx

; 829  :     _CONSTEXPR20 ~vector() noexcept {

  00000	56		 push	 esi
  00001	8b f1		 mov	 esi, ecx

; 2107 :         if (_Myfirst) { // destroy and deallocate old array

  00003	8b 06		 mov	 eax, DWORD PTR [esi]
  00005	85 c0		 test	 eax, eax
  00007	74 67		 je	 SHORT $LN4@vector

; 2108 :             _Destroy_range(_Myfirst, _Mylast, _Al);

  00009	57		 push	 edi
  0000a	56		 push	 esi
  0000b	ff 76 04	 push	 DWORD PTR [esi+4]
  0000e	50		 push	 eax
  0000f	e8 00 00 00 00	 call	 ??$_Destroy_range@V?$allocator@USTerrainTexture@@@std@@@std@@YAXPAUSTerrainTexture@@QAU1@AAV?$allocator@USTerrainTexture@@@0@@Z ; std::_Destroy_range<std::allocator<STerrainTexture> >

; 2109 :             _ASAN_VECTOR_REMOVE;
; 2110 :             _Al.deallocate(_Myfirst, static_cast<size_type>(_Myend - _Myfirst));

  00014	8b 4e 08	 mov	 ecx, DWORD PTR [esi+8]
  00017	b8 d3 20 0d d2	 mov	 eax, -770891565		; d20d20d3H
  0001c	8b 3e		 mov	 edi, DWORD PTR [esi]
  0001e	83 c4 0c	 add	 esp, 12			; 0000000cH
  00021	2b cf		 sub	 ecx, edi
  00023	f7 e9		 imul	 ecx
  00025	03 d1		 add	 edx, ecx
  00027	c1 fa 07	 sar	 edx, 7
  0002a	8b c2		 mov	 eax, edx
  0002c	c1 e8 1f	 shr	 eax, 31			; 0000001fH
  0002f	03 c2		 add	 eax, edx
; File C:\Program Files\Microsoft Visual Studio\2022\Community\VC\Tools\MSVC\14.34.31933\include\xmemory

; 830  :         _Deallocate<_New_alignof<_Ty>>(_Ptr, sizeof(_Ty) * _Count);

  00031	69 c8 9c 00 00
	00		 imul	 ecx, eax, 156

; 251  :         if (_Bytes >= _Big_allocation_threshold) { // boost the alignment of big allocations to help autovectorization

  00037	81 f9 00 10 00
	00		 cmp	 ecx, 4096		; 00001000H
  0003d	72 12		 jb	 SHORT $LN20@vector

; 150  :     const uintptr_t _Ptr_container   = _Ptr_user[-1];

  0003f	8b 57 fc	 mov	 edx, DWORD PTR [edi-4]
  00042	83 c1 23	 add	 ecx, 35			; 00000023H

; 151  : 
; 152  :     // If the following asserts, it likely means that we are performing
; 153  :     // an aligned delete on memory coming from an unaligned allocation.
; 154  :     _STL_ASSERT(_Ptr_user[-2] == _Big_allocation_sentinel, "invalid argument");
; 155  : 
; 156  :     // Extra paranoia on aligned allocation/deallocation; ensure _Ptr_container is
; 157  :     // in range [_Min_back_shift, _Non_user_size]
; 158  : #ifdef _DEBUG
; 159  :     constexpr uintptr_t _Min_back_shift = 2 * sizeof(void*);
; 160  : #else // ^^^ _DEBUG ^^^ // vvv !_DEBUG vvv
; 161  :     constexpr uintptr_t _Min_back_shift = sizeof(void*);
; 162  : #endif // _DEBUG
; 163  :     const uintptr_t _Back_shift = reinterpret_cast<uintptr_t>(_Ptr) - _Ptr_container;

  00045	2b fa		 sub	 edi, edx

; 164  :     _STL_VERIFY(_Back_shift >= _Min_back_shift && _Back_shift <= _Non_user_size, "invalid argument");

  00047	8d 47 fc	 lea	 eax, DWORD PTR [edi-4]
  0004a	83 f8 1f	 cmp	 eax, 31			; 0000001fH
  0004d	77 23		 ja	 SHORT $LN17@vector

; 165  :     _Ptr = reinterpret_cast<void*>(_Ptr_container);

  0004f	8b fa		 mov	 edi, edx
$LN20@vector:

; 255  :         ::operator delete(_Ptr, _Bytes);

  00051	51		 push	 ecx
  00052	57		 push	 edi
  00053	e8 00 00 00 00	 call	 ??3@YAXPAXI@Z		; operator delete
  00058	83 c4 08	 add	 esp, 8
; File C:\Program Files\Microsoft Visual Studio\2022\Community\VC\Tools\MSVC\14.34.31933\include\vector

; 2112 :             _Myfirst = nullptr;

  0005b	c7 06 00 00 00
	00		 mov	 DWORD PTR [esi], 0

; 2113 :             _Mylast  = nullptr;

  00061	c7 46 04 00 00
	00 00		 mov	 DWORD PTR [esi+4], 0

; 2114 :             _Myend   = nullptr;

  00068	c7 46 08 00 00
	00 00		 mov	 DWORD PTR [esi+8], 0
  0006f	5f		 pop	 edi
$LN4@vector:
  00070	5e		 pop	 esi

; 835  :     }

  00071	c3		 ret	 0
$LN17@vector:
; File C:\Program Files\Microsoft Visual Studio\2022\Community\VC\Tools\MSVC\14.34.31933\include\xmemory

; 164  :     _STL_VERIFY(_Back_shift >= _Min_back_shift && _Back_shift <= _Non_user_size, "invalid argument");

  00072	e8 00 00 00 00	 call	 __invalid_parameter_noinfo_noreturn
$LN25@vector:
  00077	cc		 int	 3
??1?$vector@USTerrainTexture@@V?$allocator@USTerrainTexture@@@std@@@std@@QAE@XZ ENDP ; std::vector<STerrainTexture,std::allocator<STerrainTexture> >::~vector<STerrainTexture,std::allocator<STerrainTexture> >
_TEXT	ENDS
; Function compile flags: /Ogtp
; File C:\Program Files\Microsoft Visual Studio\2022\Community\VC\Tools\MSVC\14.34.31933\include\xmemory
;	COMDAT ?deallocate@?$allocator@USTerrainTexture@@@std@@QAEXQAUSTerrainTexture@@I@Z
_TEXT	SEGMENT
__Ptr$ = 8						; size = 4
__Count$ = 12						; size = 4
?deallocate@?$allocator@USTerrainTexture@@@std@@QAEXQAUSTerrainTexture@@I@Z PROC ; std::allocator<STerrainTexture>::deallocate, COMDAT
; _this$ = ecx

; 827  :     _CONSTEXPR20 void deallocate(_Ty* const _Ptr, const size_t _Count) {

  00000	55		 push	 ebp
  00001	8b ec		 mov	 ebp, esp

; 828  :         _STL_ASSERT(_Ptr != nullptr || _Count == 0, "null pointer cannot point to a block of non-zero size");
; 829  :         // no overflow check on the following multiply; we assume _Allocate did that check
; 830  :         _Deallocate<_New_alignof<_Ty>>(_Ptr, sizeof(_Ty) * _Count);

  00003	69 4d 0c 9c 00
	00 00		 imul	 ecx, DWORD PTR __Count$[ebp], 156
  0000a	8b 45 08	 mov	 eax, DWORD PTR __Ptr$[ebp]

; 251  :         if (_Bytes >= _Big_allocation_threshold) { // boost the alignment of big allocations to help autovectorization

  0000d	81 f9 00 10 00
	00		 cmp	 ecx, 4096		; 00001000H
  00013	72 12		 jb	 SHORT $LN15@deallocate

; 150  :     const uintptr_t _Ptr_container   = _Ptr_user[-1];

  00015	8b 50 fc	 mov	 edx, DWORD PTR [eax-4]
  00018	83 c1 23	 add	 ecx, 35			; 00000023H

; 151  : 
; 152  :     // If the following asserts, it likely means that we are performing
; 153  :     // an aligned delete on memory coming from an unaligned allocation.
; 154  :     _STL_ASSERT(_Ptr_user[-2] == _Big_allocation_sentinel, "invalid argument");
; 155  : 
; 156  :     // Extra paranoia on aligned allocation/deallocation; ensure _Ptr_container is
; 157  :     // in range [_Min_back_shift, _Non_user_size]
; 158  : #ifdef _DEBUG
; 159  :     constexpr uintptr_t _Min_back_shift = 2 * sizeof(void*);
; 160  : #else // ^^^ _DEBUG ^^^ // vvv !_DEBUG vvv
; 161  :     constexpr uintptr_t _Min_back_shift = sizeof(void*);
; 162  : #endif // _DEBUG
; 163  :     const uintptr_t _Back_shift = reinterpret_cast<uintptr_t>(_Ptr) - _Ptr_container;

  0001b	2b c2		 sub	 eax, edx

; 164  :     _STL_VERIFY(_Back_shift >= _Min_back_shift && _Back_shift <= _Non_user_size, "invalid argument");

  0001d	83 c0 fc	 add	 eax, -4			; fffffffcH
  00020	83 f8 1f	 cmp	 eax, 31			; 0000001fH
  00023	77 10		 ja	 SHORT $LN12@deallocate

; 165  :     _Ptr = reinterpret_cast<void*>(_Ptr_container);

  00025	8b c2		 mov	 eax, edx
$LN15@deallocate:

; 255  :         ::operator delete(_Ptr, _Bytes);

  00027	51		 push	 ecx
  00028	50		 push	 eax
  00029	e8 00 00 00 00	 call	 ??3@YAXPAXI@Z		; operator delete
  0002e	83 c4 08	 add	 esp, 8

; 831  :     }

  00031	5d		 pop	 ebp
  00032	c2 08 00	 ret	 8
$LN12@deallocate:

; 164  :     _STL_VERIFY(_Back_shift >= _Min_back_shift && _Back_shift <= _Non_user_size, "invalid argument");

  00035	e8 00 00 00 00	 call	 __invalid_parameter_noinfo_noreturn
$LN18@deallocate:
  0003a	cc		 int	 3
?deallocate@?$allocator@USTerrainTexture@@@std@@QAEXQAUSTerrainTexture@@I@Z ENDP ; std::allocator<STerrainTexture>::deallocate
_TEXT	ENDS
; Function compile flags: /Ogtp
; File C:\Users\Marian\Desktop\Aeldra\ProjectA-main\Binary\Client\PRTerrainLib\TextureSet.cpp
; File C:\Program Files\Microsoft Visual Studio\2022\Community\VC\Tools\MSVC\14.34.31933\include\vector
; File C:\Users\Marian\Desktop\Aeldra\ProjectA-main\Binary\Client\PRTerrainLib\TextureSet.cpp
; File C:\Program Files\Microsoft Visual Studio\2022\Community\VC\Tools\MSVC\14.34.31933\include\vector
; File C:\Program Files\Microsoft Visual Studio\2022\Community\VC\Tools\MSVC\14.34.31933\include\xmemory
; File C:\Program Files\Microsoft Visual Studio\2022\Community\VC\Tools\MSVC\14.34.31933\include\vector
; File C:\Users\Marian\Desktop\Aeldra\ProjectA-main\Binary\Client\PRTerrainLib\TextureSet.h
; File C:\Program Files\Microsoft Visual Studio\2022\Community\VC\Tools\MSVC\14.34.31933\include\xstring
; File C:\Program Files\Microsoft Visual Studio\2022\Community\VC\Tools\MSVC\14.34.31933\include\xmemory
; File C:\Program Files\Microsoft Visual Studio\2022\Community\VC\Tools\MSVC\14.34.31933\include\xstring
; File C:\Program Files\Microsoft Visual Studio\2022\Community\VC\Tools\MSVC\14.34.31933\include\xmemory
; File C:\Users\Marian\Desktop\Aeldra\ProjectA-main\Binary\Client\PRTerrainLib\TextureSet.cpp
; File C:\Program Files\Microsoft Visual Studio\2022\Community\VC\Tools\MSVC\14.34.31933\include\xmemory
; File C:\Users\Marian\Desktop\Aeldra\ProjectA-main\Binary\Client\PRTerrainLib\TextureSet.cpp
;	COMDAT ?AddEmptyTexture@CTextureSet@@IAEXXZ
_TEXT	SEGMENT
_eraser$ = -172						; size = 156
__$ArrayPad$ = -16					; size = 4
__$EHRec$ = -12						; size = 12
?AddEmptyTexture@CTextureSet@@IAEXXZ PROC		; CTextureSet::AddEmptyTexture, COMDAT
; _this$ = ecx

; 106  : {

  00000	55		 push	 ebp
  00001	8b ec		 mov	 ebp, esp
  00003	6a ff		 push	 -1
  00005	68 00 00 00 00	 push	 __ehhandler$?AddEmptyTexture@CTextureSet@@IAEXXZ
  0000a	64 a1 00 00 00
	00		 mov	 eax, DWORD PTR fs:0
  00010	50		 push	 eax
  00011	81 ec a0 00 00
	00		 sub	 esp, 160		; 000000a0H
  00017	a1 00 00 00 00	 mov	 eax, DWORD PTR ___security_cookie
  0001c	33 c5		 xor	 eax, ebp
  0001e	89 45 f0	 mov	 DWORD PTR __$ArrayPad$[ebp], eax
  00021	56		 push	 esi
  00022	50		 push	 eax
  00023	8d 45 f4	 lea	 eax, DWORD PTR __$EHRec$[ebp]
  00026	64 a3 00 00 00
	00		 mov	 DWORD PTR fs:0, eax
  0002c	8b f1		 mov	 esi, ecx

; 107  : 	TTerrainTexture eraser;

  0002e	8d 8d 54 ff ff
	ff		 lea	 ecx, DWORD PTR _eraser$[ebp]
  00034	e8 00 00 00 00	 call	 ??0STerrainTexture@@QAE@XZ ; STerrainTexture::STerrainTexture
; File C:\Program Files\Microsoft Visual Studio\2022\Community\VC\Tools\MSVC\14.34.31933\include\vector

; 844  :         if (_Mylast != _My_data._Myend) {

  00039	8b 46 08	 mov	 eax, DWORD PTR [esi+8]
  0003c	8d 8d 54 ff ff
	ff		 lea	 ecx, DWORD PTR _eraser$[ebp]
; File C:\Users\Marian\Desktop\Aeldra\ProjectA-main\Binary\Client\PRTerrainLib\TextureSet.cpp

; 107  : 	TTerrainTexture eraser;

  00042	c7 45 fc 00 00
	00 00		 mov	 DWORD PTR __$EHRec$[ebp+8], 0
; File C:\Program Files\Microsoft Visual Studio\2022\Community\VC\Tools\MSVC\14.34.31933\include\vector

; 844  :         if (_Mylast != _My_data._Myend) {

  00049	51		 push	 ecx
  0004a	3b 46 0c	 cmp	 eax, DWORD PTR [esi+12]
  0004d	74 10		 je	 SHORT $LN7@AddEmptyTe
; File C:\Program Files\Microsoft Visual Studio\2022\Community\VC\Tools\MSVC\14.34.31933\include\xmemory

; 680  :             ::new (_Voidify_iter(_Ptr)) _Objty(_STD forward<_Types>(_Args)...);

  0004f	8b c8		 mov	 ecx, eax
  00051	e8 00 00 00 00	 call	 ??0STerrainTexture@@QAE@ABU0@@Z
; File C:\Program Files\Microsoft Visual Studio\2022\Community\VC\Tools\MSVC\14.34.31933\include\vector

; 869  :         ++_Mylast;

  00056	81 46 08 9c 00
	00 00		 add	 DWORD PTR [esi+8], 156	; 0000009cH

; 845  :             return _Emplace_back_with_unused_capacity(_STD forward<_Valty>(_Val)...);

  0005d	eb 09		 jmp	 SHORT $LN6@AddEmptyTe
$LN7@AddEmptyTe:

; 846  :         }
; 847  : 
; 848  :         return *_Emplace_reallocate(_Mylast, _STD forward<_Valty>(_Val)...);

  0005f	50		 push	 eax
  00060	8d 4e 04	 lea	 ecx, DWORD PTR [esi+4]
  00063	e8 00 00 00 00	 call	 ??$_Emplace_reallocate@ABUSTerrainTexture@@@?$vector@USTerrainTexture@@V?$allocator@USTerrainTexture@@@std@@@std@@AAEPAUSTerrainTexture@@QAU2@ABU2@@Z ; std::vector<STerrainTexture,std::allocator<STerrainTexture> >::_Emplace_reallocate<STerrainTexture const &>
$LN6@AddEmptyTe:
; File C:\Users\Marian\Desktop\Aeldra\ProjectA-main\Binary\Client\PRTerrainLib\TextureSet.h

; 21   : 	}

  00068	8d 8d 70 ff ff
	ff		 lea	 ecx, DWORD PTR _eraser$[ebp+28]
  0006e	e8 00 00 00 00	 call	 ??1CGraphicImageInstance@@UAE@XZ ; CGraphicImageInstance::~CGraphicImageInstance
; File C:\Program Files\Microsoft Visual Studio\2022\Community\VC\Tools\MSVC\14.34.31933\include\xstring

; 2301 :         return _BUF_SIZE <= _Myres;

  00073	8b 8d 68 ff ff
	ff		 mov	 ecx, DWORD PTR _eraser$[ebp+20]
  00079	83 f9 10	 cmp	 ecx, 16			; 00000010H

; 5011 :         if (_My_data._Large_string_engaged()) {

  0007c	72 2b		 jb	 SHORT $LN28@AddEmptyTe
; File C:\Program Files\Microsoft Visual Studio\2022\Community\VC\Tools\MSVC\14.34.31933\include\xmemory

; 830  :         _Deallocate<_New_alignof<_Ty>>(_Ptr, sizeof(_Ty) * _Count);

  0007e	8b 95 54 ff ff
	ff		 mov	 edx, DWORD PTR _eraser$[ebp]
; File C:\Program Files\Microsoft Visual Studio\2022\Community\VC\Tools\MSVC\14.34.31933\include\xstring

; 5016 :             _Al.deallocate(_Ptr, _My_data._Myres + 1);

  00084	41		 inc	 ecx
; File C:\Program Files\Microsoft Visual Studio\2022\Community\VC\Tools\MSVC\14.34.31933\include\xmemory

; 830  :         _Deallocate<_New_alignof<_Ty>>(_Ptr, sizeof(_Ty) * _Count);

  00085	8b c2		 mov	 eax, edx

; 251  :         if (_Bytes >= _Big_allocation_threshold) { // boost the alignment of big allocations to help autovectorization

  00087	81 f9 00 10 00
	00		 cmp	 ecx, 4096		; 00001000H
  0008d	72 10		 jb	 SHORT $LN38@AddEmptyTe

; 150  :     const uintptr_t _Ptr_container   = _Ptr_user[-1];

  0008f	8b 50 fc	 mov	 edx, DWORD PTR [eax-4]
  00092	83 c1 23	 add	 ecx, 35			; 00000023H
  00095	2b c2		 sub	 eax, edx

; 164  :     _STL_VERIFY(_Back_shift >= _Min_back_shift && _Back_shift <= _Non_user_size, "invalid argument");

  00097	83 c0 fc	 add	 eax, -4			; fffffffcH
  0009a	83 f8 1f	 cmp	 eax, 31			; 0000001fH
  0009d	77 24		 ja	 SHORT $LN48@AddEmptyTe
$LN38@AddEmptyTe:

; 255  :         ::operator delete(_Ptr, _Bytes);

  0009f	51		 push	 ecx
  000a0	52		 push	 edx
  000a1	e8 00 00 00 00	 call	 ??3@YAXPAXI@Z		; operator delete
  000a6	83 c4 08	 add	 esp, 8
$LN28@AddEmptyTe:
; File C:\Users\Marian\Desktop\Aeldra\ProjectA-main\Binary\Client\PRTerrainLib\TextureSet.cpp

; 109  : }

  000a9	8b 4d f4	 mov	 ecx, DWORD PTR __$EHRec$[ebp]
  000ac	64 89 0d 00 00
	00 00		 mov	 DWORD PTR fs:0, ecx
  000b3	59		 pop	 ecx
  000b4	5e		 pop	 esi
  000b5	8b 4d f0	 mov	 ecx, DWORD PTR __$ArrayPad$[ebp]
  000b8	33 cd		 xor	 ecx, ebp
  000ba	e8 00 00 00 00	 call	 @__security_check_cookie@4
  000bf	8b e5		 mov	 esp, ebp
  000c1	5d		 pop	 ebp
  000c2	c3		 ret	 0
$LN48@AddEmptyTe:
; File C:\Program Files\Microsoft Visual Studio\2022\Community\VC\Tools\MSVC\14.34.31933\include\xmemory

; 164  :     _STL_VERIFY(_Back_shift >= _Min_back_shift && _Back_shift <= _Non_user_size, "invalid argument");

  000c3	e8 00 00 00 00	 call	 __invalid_parameter_noinfo_noreturn
$LN46@AddEmptyTe:
  000c8	cc		 int	 3
_TEXT	ENDS
;	COMDAT text$x
text$x	SEGMENT
__unwindfunclet$?AddEmptyTexture@CTextureSet@@IAEXXZ$0:
  00000	8d 8d 54 ff ff
	ff		 lea	 ecx, DWORD PTR _eraser$[ebp]
  00006	e9 00 00 00 00	 jmp	 ??1STerrainTexture@@QAE@XZ ; STerrainTexture::~STerrainTexture
  0000b	cc		 int	 3
  0000c	cc		 int	 3
  0000d	cc		 int	 3
  0000e	cc		 int	 3
  0000f	cc		 int	 3
__ehhandler$?AddEmptyTexture@CTextureSet@@IAEXXZ:
  00010	90		 npad	 1
  00011	90		 npad	 1
  00012	8b 54 24 08	 mov	 edx, DWORD PTR [esp+8]
  00016	8d 42 0c	 lea	 eax, DWORD PTR [edx+12]
  00019	8b 8a 58 ff ff
	ff		 mov	 ecx, DWORD PTR [edx-168]
  0001f	33 c8		 xor	 ecx, eax
  00021	e8 00 00 00 00	 call	 @__security_check_cookie@4
  00026	8b 4a fc	 mov	 ecx, DWORD PTR [edx-4]
  00029	33 c8		 xor	 ecx, eax
  0002b	e8 00 00 00 00	 call	 @__security_check_cookie@4
  00030	b8 00 00 00 00	 mov	 eax, OFFSET __ehfuncinfo$?AddEmptyTexture@CTextureSet@@IAEXXZ
  00035	e9 00 00 00 00	 jmp	 ___CxxFrameHandler3
text$x	ENDS
?AddEmptyTexture@CTextureSet@@IAEXXZ ENDP		; CTextureSet::AddEmptyTexture
; Function compile flags: /Ogtp
; File C:\Users\Marian\Desktop\Aeldra\ProjectA-main\Binary\Client\PRTerrainLib\TextureSet.cpp
; File C:\Program Files\Microsoft Visual Studio\2022\Community\VC\Tools\MSVC\14.34.31933\include\vector
; File C:\Program Files\Microsoft Visual Studio\2022\Community\VC\Tools\MSVC\14.34.31933\include\xstring
; File C:\Users\Marian\Desktop\Aeldra\ProjectA-main\Binary\Client\PRTerrainLib\TextureSet.cpp
; File C:\Program Files\Microsoft Visual Studio\2022\Community\VC\Tools\MSVC\14.34.31933\include\xstring
; File C:\Users\Marian\Desktop\Aeldra\ProjectA-main\Binary\Client\PRTerrainLib\TextureSet.cpp
; File C:\Program Files\Microsoft Visual Studio\2022\Community\VC\Tools\MSVC\14.34.31933\include\vector
; File C:\Users\Marian\Desktop\Aeldra\ProjectA-main\Binary\Client\PRTerrainLib\TextureSet.cpp
; File C:\Program Files\Microsoft Visual Studio\2022\Community\VC\Tools\MSVC\14.34.31933\include\vector
; File C:\Users\Marian\Desktop\Aeldra\ProjectA-main\Binary\Client\PRTerrainLib\TextureSet.cpp
; File C:\Program Files\Microsoft Visual Studio\2022\Community\VC\Tools\MSVC\14.34.31933\include\vector
; File C:\Users\Marian\Desktop\Aeldra\ProjectA-main\Binary\Client\PRTerrainLib\TextureSet.cpp
; File C:\Program Files\Microsoft Visual Studio\2022\Community\VC\Tools\MSVC\14.34.31933\include\vector
; File C:\Users\Marian\Desktop\Aeldra\ProjectA-main\Binary\Client\PRTerrainLib\TextureSet.cpp
; File C:\Program Files\Microsoft Visual Studio\2022\Community\VC\Tools\MSVC\14.34.31933\include\vector
; File C:\Users\Marian\Desktop\Aeldra\ProjectA-main\Binary\Client\PRTerrainLib\TextureSet.cpp
; File C:\Program Files\Microsoft Visual Studio\2022\Community\VC\Tools\MSVC\14.34.31933\include\vector
; File C:\Users\Marian\Desktop\Aeldra\ProjectA-main\Binary\Client\PRTerrainLib\TextureSet.cpp
; File C:\Program Files\Microsoft Visual Studio\2022\Community\VC\Tools\MSVC\14.34.31933\include\vector
; File C:\Users\Marian\Desktop\Aeldra\ProjectA-main\Binary\Client\PRTerrainLib\TextureSet.cpp
; File C:\Program Files\Microsoft Visual Studio\2022\Community\VC\Tools\MSVC\14.34.31933\include\vector
; File C:\Users\Marian\Desktop\Aeldra\ProjectA-main\Binary\Client\PRTerrainLib\TextureSet.cpp
; File C:\Program Files\Microsoft Visual Studio\2022\Community\VC\Tools\MSVC\14.34.31933\include\vector
; File C:\Users\Marian\Desktop\Aeldra\ProjectA-main\Binary\Client\PRTerrainLib\TextureSet.cpp
; File C:\Program Files\Microsoft Visual Studio\2022\Community\VC\Tools\MSVC\14.34.31933\include\vector
; File C:\Users\Marian\Desktop\Aeldra\ProjectA-main\Binary\Client\PRTerrainLib\TextureSet.cpp
;	COMDAT ?AddTexture@CTextureSet@@QAE_NPBDMMMM_NGGM@Z
_TEXT	SEGMENT
_this$1$ = -12						; size = 4
$T1 = -8						; size = 4
__My_data$1$ = -4					; size = 4
__Newcapacity$1$ = 8					; size = 4
_c_szFileName$ = 8					; size = 4
_fuScale$ = 12						; size = 4
_fvScale$ = 16						; size = 4
_fuOffset$ = 20						; size = 4
_fvOffset$ = 24						; size = 4
_bSplat$ = 28						; size = 1
_usBegin$ = 32						; size = 2
_usEnd$ = 36						; size = 2
_fTerrainTexCoordBase$ = 40				; size = 4
?AddTexture@CTextureSet@@QAE_NPBDMMMM_NGGM@Z PROC	; CTextureSet::AddTexture, COMDAT
; _this$ = ecx

; 196  : {

  00000	55		 push	 ebp
  00001	8b ec		 mov	 ebp, esp
  00003	83 ec 0c	 sub	 esp, 12			; 0000000cH
  00006	53		 push	 ebx
  00007	8b d9		 mov	 ebx, ecx
  00009	89 5d f4	 mov	 DWORD PTR _this$1$[ebp], ebx

; 197  : 	if (GetTextureCount() >= 256)

  0000c	e8 00 00 00 00	 call	 ?GetTextureCount@CTextureSet@@QAEKXZ ; CTextureSet::GetTextureCount
  00011	3d 00 01 00 00	 cmp	 eax, 256		; 00000100H
  00016	72 1d		 jb	 SHORT $LN5@AddTexture

; 198  : 	{
; 199  : 		LogBox("     .", "   255");

  00018	6a 00		 push	 0
  0001a	68 00 00 00 00	 push	 OFFSET ??_C@_0BH@JDODIAKK@?C?V?$LE?k?5?E?X?$LN?$LK?C?$LD?5?$LA?$LD?$LM?v?5255?$LA?$LD@
  0001f	68 00 00 00 00	 push	 OFFSET ??_C@_0CF@MOODBFAK@?E?X?$LN?$LK?C?$LD?$LI?$KG?5?$LE?u?5?$MA?L?$LL?s?5?C?$NP?$LA?$KB?G?R?5?$LM?v?5?$LO?x?$LN?$MA@
  00024	e8 00 00 00 00	 call	 ?LogBox@@YAXPBD0PAUHWND__@@@Z ; LogBox
  00029	83 c4 0c	 add	 esp, 12			; 0000000cH

; 200  : 		return false;

  0002c	32 c0		 xor	 al, al
  0002e	5b		 pop	 ebx

; 236  : }

  0002f	8b e5		 mov	 esp, ebp
  00031	5d		 pop	 ebp
  00032	c2 24 00	 ret	 36			; 00000024H
$LN5@AddTexture:
  00035	56		 push	 esi
  00036	57		 push	 edi

; 201  : 	}
; 202  : 
; 203  : 	for (unsigned long i = 1; i < GetTextureCount(); ++i)

  00037	8b cb		 mov	 ecx, ebx
  00039	bf 01 00 00 00	 mov	 edi, 1
  0003e	e8 00 00 00 00	 call	 ?GetTextureCount@CTextureSet@@QAEKXZ ; CTextureSet::GetTextureCount
  00043	89 45 f8	 mov	 DWORD PTR $T1[ebp], eax
  00046	8d 73 04	 lea	 esi, DWORD PTR [ebx+4]
  00049	8b 5d 08	 mov	 ebx, DWORD PTR _c_szFileName$[ebp]
  0004c	89 75 fc	 mov	 DWORD PTR __My_data$1$[ebp], esi
  0004f	3b c7		 cmp	 eax, edi
  00051	76 67		 jbe	 SHORT $LN46@AddTexture
; File C:\Program Files\Microsoft Visual Studio\2022\Community\VC\Tools\MSVC\14.34.31933\include\vector

; 1952 :         return _My_data._Myfirst[_Pos];

  00053	8b 36		 mov	 esi, DWORD PTR [esi]
  00055	81 c6 9c 00 00
	00		 add	 esi, 156		; 0000009cH
  0005b	0f 1f 44 00 00	 npad	 5
$LL4@AddTexture:
; File C:\Program Files\Microsoft Visual Studio\2022\Community\VC\Tools\MSVC\14.34.31933\include\xstring

; 418  :         return _CSTD strlen(reinterpret_cast<const char*>(_First));

  00060	8b cb		 mov	 ecx, ebx
  00062	8d 51 01	 lea	 edx, DWORD PTR [ecx+1]
$LL47@AddTexture:
  00065	8a 01		 mov	 al, BYTE PTR [ecx]
  00067	41		 inc	 ecx
  00068	84 c0		 test	 al, al
  0006a	75 f9		 jne	 SHORT $LL47@AddTexture
  0006c	2b ca		 sub	 ecx, edx

; 2292 :         const value_type* _Result = _Bx._Buf;

  0006e	8b c6		 mov	 eax, esi

; 2301 :         return _BUF_SIZE <= _Myres;

  00070	83 7e 14 10	 cmp	 DWORD PTR [esi+20], 16	; 00000010H

; 2293 :         if (_Large_string_engaged()) {

  00074	72 02		 jb	 SHORT $LN17@AddTexture

; 2294 :             _Result = _Unfancy(_Bx._Ptr);

  00076	8b 06		 mov	 eax, DWORD PTR [esi]
$LN17@AddTexture:

; 4817 :         return _Traits_compare<_Traits>(_Mypair._Myval2._Myptr(), _Mypair._Myval2._Mysize, _Ptr, _Traits::length(_Ptr));

  00078	51		 push	 ecx
  00079	53		 push	 ebx
  0007a	ff 76 10	 push	 DWORD PTR [esi+16]
  0007d	50		 push	 eax
  0007e	e8 00 00 00 00	 call	 ??$_Traits_compare@U?$char_traits@D@std@@@std@@YAHQBDI0I@Z ; std::_Traits_compare<std::char_traits<char> >
  00083	83 c4 10	 add	 esp, 16			; 00000010H
; File C:\Users\Marian\Desktop\Aeldra\ProjectA-main\Binary\Client\PRTerrainLib\TextureSet.cpp

; 205  : 		if (0 == m_Textures[i].stFilename.compare(c_szFileName))

  00086	85 c0		 test	 eax, eax
  00088	74 11		 je	 SHORT $LN42@AddTexture

; 201  : 	}
; 202  : 
; 203  : 	for (unsigned long i = 1; i < GetTextureCount(); ++i)

  0008a	47		 inc	 edi
  0008b	81 c6 9c 00 00
	00		 add	 esi, 156		; 0000009cH
  00091	3b 7d f8	 cmp	 edi, DWORD PTR $T1[ebp]
  00094	72 ca		 jb	 SHORT $LL4@AddTexture

; 205  : 		if (0 == m_Textures[i].stFilename.compare(c_szFileName))

  00096	8b 7d fc	 mov	 edi, DWORD PTR __My_data$1$[ebp]
  00099	eb 21		 jmp	 SHORT $LN3@AddTexture
$LN42@AddTexture:

; 206  : 		{
; 207  : 			LogBox("    .", "");

  0009b	6a 00		 push	 0
  0009d	68 00 00 00 00	 push	 OFFSET ??_C@_04GOFBAOHB@?A?$NP?$LK?$LJ@
  000a2	68 00 00 00 00	 push	 OFFSET ??_C@_0CG@FLKLAMDA@?$LF?$LP?$MA?O?G?Q?5?$MA?L?$LI?$KH?$MA?G?5?E?X?$LN?$LK?C?$LD?$LA?$KB?5?$MA?L?$LJ?L?5?$MA?V?$LN@
  000a7	e8 00 00 00 00	 call	 ?LogBox@@YAXPBD0PAUHWND__@@@Z ; LogBox
  000ac	83 c4 0c	 add	 esp, 12			; 0000000cH

; 208  : 			return false;

  000af	32 c0		 xor	 al, al
  000b1	5f		 pop	 edi
  000b2	5e		 pop	 esi
  000b3	5b		 pop	 ebx

; 236  : }

  000b4	8b e5		 mov	 esp, ebp
  000b6	5d		 pop	 ebp
  000b7	c2 24 00	 ret	 36			; 00000024H
$LN46@AddTexture:
  000ba	8b fe		 mov	 edi, esi
$LN3@AddTexture:

; 209  : 		}
; 210  : 	}
; 211  : 
; 212  : 	CResource * pResource = CResourceManager::Instance().GetResourcePointer(c_szFileName);

  000bc	8b 0d 00 00 00
	00		 mov	 ecx, DWORD PTR ?ms_singleton@?$CSingleton@VCResourceManager@@@@0PAVCResourceManager@@A ; CSingleton<CResourceManager>::ms_singleton
  000c2	53		 push	 ebx
  000c3	e8 00 00 00 00	 call	 ?GetResourcePointer@CResourceManager@@QAEPAVCResource@@PBD@Z ; CResourceManager::GetResourcePointer
  000c8	8b f0		 mov	 esi, eax

; 213  : 	if (!pResource)

  000ca	85 f6		 test	 esi, esi
  000cc	74 2c		 je	 SHORT $LN51@AddTexture

; 214  : 		return false;
; 215  : 
; 216  : 	if (!pResource->IsType(CGraphicImage::Type()))

  000ce	e8 00 00 00 00	 call	 ?Type@CGraphicImage@@SAKXZ ; CGraphicImage::Type
  000d3	50		 push	 eax
  000d4	8b ce		 mov	 ecx, esi
  000d6	e8 00 00 00 00	 call	 ?IsType@CResource@@QAE_NK@Z ; CResource::IsType
  000db	84 c0		 test	 al, al
  000dd	75 26		 jne	 SHORT $LN8@AddTexture
; File C:\Program Files\Microsoft Visual Studio\2022\Community\VC\Tools\MSVC\14.34.31933\include\xstring

; 2301 :         return _BUF_SIZE <= _Myres;

  000df	83 7e 20 10	 cmp	 DWORD PTR [esi+32], 16	; 00000010H

; 4259 :         return _Mypair._Myval2._Myptr();

  000e3	8d 46 0c	 lea	 eax, DWORD PTR [esi+12]

; 2293 :         if (_Large_string_engaged()) {

  000e6	72 02		 jb	 SHORT $LN26@AddTexture

; 2294 :             _Result = _Unfancy(_Bx._Ptr);

  000e8	8b 00		 mov	 eax, DWORD PTR [eax]
$LN26@AddTexture:
; File C:\Users\Marian\Desktop\Aeldra\ProjectA-main\Binary\Client\PRTerrainLib\TextureSet.cpp

; 218  : 		LogBox("CTerrainImpl::GenerateTexture :   . %s", pResource->GetFileName());

  000ea	6a 00		 push	 0
  000ec	50		 push	 eax
  000ed	68 00 00 00 00	 push	 OFFSET ??_C@_0DL@DKIJJDLL@CTerrainImpl?3?3GenerateTexture?5?3@
  000f2	e8 00 00 00 00	 call	 ?LogBox@@YAXPBD0PAUHWND__@@@Z ; LogBox
  000f7	83 c4 0c	 add	 esp, 12			; 0000000cH
$LN51@AddTexture:

; 219  : 		return false;

  000fa	5f		 pop	 edi
  000fb	5e		 pop	 esi
  000fc	32 c0		 xor	 al, al
  000fe	5b		 pop	 ebx

; 236  : }

  000ff	8b e5		 mov	 esp, ebp
  00101	5d		 pop	 ebp
  00102	c2 24 00	 ret	 36			; 00000024H
$LN8@AddTexture:
; File C:\Program Files\Microsoft Visual Studio\2022\Community\VC\Tools\MSVC\14.34.31933\include\vector

; 1932 :         return static_cast<size_type>(_My_data._Mylast - _My_data._Myfirst);

  00105	8b 4f 04	 mov	 ecx, DWORD PTR [edi+4]
  00108	b8 d3 20 0d d2	 mov	 eax, -770891565		; d20d20d3H
  0010d	2b 0f		 sub	 ecx, DWORD PTR [edi]
  0010f	f7 e9		 imul	 ecx
  00111	03 d1		 add	 edx, ecx

; 1942 :         return static_cast<size_type>(_My_data._Myend - _My_data._Myfirst);

  00113	8b 4f 08	 mov	 ecx, DWORD PTR [edi+8]
  00116	2b 0f		 sub	 ecx, DWORD PTR [edi]

; 1932 :         return static_cast<size_type>(_My_data._Mylast - _My_data._Myfirst);

  00118	c1 fa 07	 sar	 edx, 7
  0011b	8b c2		 mov	 eax, edx
; File C:\Users\Marian\Desktop\Aeldra\ProjectA-main\Binary\Client\PRTerrainLib\TextureSet.cpp

; 222  : 	m_Textures.reserve(m_Textures.size() + 1);

  0011d	42		 inc	 edx
; File C:\Program Files\Microsoft Visual Studio\2022\Community\VC\Tools\MSVC\14.34.31933\include\vector

; 1932 :         return static_cast<size_type>(_My_data._Mylast - _My_data._Myfirst);

  0011e	c1 e8 1f	 shr	 eax, 31			; 0000001fH
; File C:\Users\Marian\Desktop\Aeldra\ProjectA-main\Binary\Client\PRTerrainLib\TextureSet.cpp

; 222  : 	m_Textures.reserve(m_Textures.size() + 1);

  00121	03 c2		 add	 eax, edx
  00123	89 45 08	 mov	 DWORD PTR __Newcapacity$1$[ebp], eax
; File C:\Program Files\Microsoft Visual Studio\2022\Community\VC\Tools\MSVC\14.34.31933\include\vector

; 1942 :         return static_cast<size_type>(_My_data._Myend - _My_data._Myfirst);

  00126	b8 d3 20 0d d2	 mov	 eax, -770891565		; d20d20d3H
  0012b	f7 e9		 imul	 ecx
  0012d	03 d1		 add	 edx, ecx

; 1743 :         if (_Newcapacity > capacity()) { // something to do (reserve() never shrinks)

  0012f	8b 4d 08	 mov	 ecx, DWORD PTR __Newcapacity$1$[ebp]

; 1942 :         return static_cast<size_type>(_My_data._Myend - _My_data._Myfirst);

  00132	c1 fa 07	 sar	 edx, 7
  00135	8b c2		 mov	 eax, edx
  00137	c1 e8 1f	 shr	 eax, 31			; 0000001fH
  0013a	03 c2		 add	 eax, edx

; 1743 :         if (_Newcapacity > capacity()) { // something to do (reserve() never shrinks)

  0013c	3b c8		 cmp	 ecx, eax
  0013e	76 10		 jbe	 SHORT $LN33@AddTexture

; 1744 :             if (_Newcapacity > max_size()) {

  00140	81 f9 41 1a a4
	01		 cmp	 ecx, 27531841		; 01a41a41H
  00146	77 78		 ja	 SHORT $LN53@AddTexture

; 1746 :             }
; 1747 : 
; 1748 :             _Reallocate_exactly(_Newcapacity);

  00148	51		 push	 ecx
  00149	8b cf		 mov	 ecx, edi
  0014b	e8 00 00 00 00	 call	 ?_Reallocate_exactly@?$vector@USTerrainTexture@@V?$allocator@USTerrainTexture@@@std@@@std@@AAEXI@Z ; std::vector<STerrainTexture,std::allocator<STerrainTexture> >::_Reallocate_exactly
$LN33@AddTexture:
; File C:\Users\Marian\Desktop\Aeldra\ProjectA-main\Binary\Client\PRTerrainLib\TextureSet.cpp

; 224  : 	SetTexture(m_Textures.size() - 1,

  00150	f3 0f 10 45 28	 movss	 xmm0, DWORD PTR _fTerrainTexCoordBase$[ebp]
; File C:\Program Files\Microsoft Visual Studio\2022\Community\VC\Tools\MSVC\14.34.31933\include\vector

; 1932 :         return static_cast<size_type>(_My_data._Mylast - _My_data._Myfirst);

  00155	b8 d3 20 0d d2	 mov	 eax, -770891565		; d20d20d3H
; File C:\Users\Marian\Desktop\Aeldra\ProjectA-main\Binary\Client\PRTerrainLib\TextureSet.cpp

; 224  : 	SetTexture(m_Textures.size() - 1,

  0015a	51		 push	 ecx
; File C:\Program Files\Microsoft Visual Studio\2022\Community\VC\Tools\MSVC\14.34.31933\include\vector

; 1932 :         return static_cast<size_type>(_My_data._Mylast - _My_data._Myfirst);

  0015b	8b 4f 04	 mov	 ecx, DWORD PTR [edi+4]
  0015e	2b 0f		 sub	 ecx, DWORD PTR [edi]
; File C:\Users\Marian\Desktop\Aeldra\ProjectA-main\Binary\Client\PRTerrainLib\TextureSet.cpp

; 224  : 	SetTexture(m_Textures.size() - 1,

  00160	f3 0f 11 04 24	 movss	 DWORD PTR [esp], xmm0
  00165	ff 75 24	 push	 DWORD PTR _usEnd$[ebp]
  00168	f3 0f 10 45 18	 movss	 xmm0, DWORD PTR _fvOffset$[ebp]
  0016d	ff 75 20	 push	 DWORD PTR _usBegin$[ebp]
; File C:\Program Files\Microsoft Visual Studio\2022\Community\VC\Tools\MSVC\14.34.31933\include\vector

; 1932 :         return static_cast<size_type>(_My_data._Mylast - _My_data._Myfirst);

  00170	f7 e9		 imul	 ecx
; File C:\Users\Marian\Desktop\Aeldra\ProjectA-main\Binary\Client\PRTerrainLib\TextureSet.cpp

; 224  : 	SetTexture(m_Textures.size() - 1,

  00172	ff 75 1c	 push	 DWORD PTR _bSplat$[ebp]
; File C:\Program Files\Microsoft Visual Studio\2022\Community\VC\Tools\MSVC\14.34.31933\include\vector

; 1932 :         return static_cast<size_type>(_My_data._Mylast - _My_data._Myfirst);

  00175	03 d1		 add	 edx, ecx
; File C:\Users\Marian\Desktop\Aeldra\ProjectA-main\Binary\Client\PRTerrainLib\TextureSet.cpp

; 224  : 	SetTexture(m_Textures.size() - 1,

  00177	8b 4d f4	 mov	 ecx, DWORD PTR _this$1$[ebp]
  0017a	83 ec 10	 sub	 esp, 16			; 00000010H
; File C:\Program Files\Microsoft Visual Studio\2022\Community\VC\Tools\MSVC\14.34.31933\include\vector

; 1932 :         return static_cast<size_type>(_My_data._Mylast - _My_data._Myfirst);

  0017d	c1 fa 07	 sar	 edx, 7
  00180	8b c2		 mov	 eax, edx
; File C:\Users\Marian\Desktop\Aeldra\ProjectA-main\Binary\Client\PRTerrainLib\TextureSet.cpp

; 224  : 	SetTexture(m_Textures.size() - 1,

  00182	4a		 dec	 edx
; File C:\Program Files\Microsoft Visual Studio\2022\Community\VC\Tools\MSVC\14.34.31933\include\vector

; 1932 :         return static_cast<size_type>(_My_data._Mylast - _My_data._Myfirst);

  00183	c1 e8 1f	 shr	 eax, 31			; 0000001fH
; File C:\Users\Marian\Desktop\Aeldra\ProjectA-main\Binary\Client\PRTerrainLib\TextureSet.cpp

; 224  : 	SetTexture(m_Textures.size() - 1,

  00186	03 c2		 add	 eax, edx
  00188	f3 0f 11 44 24
	0c		 movss	 DWORD PTR [esp+12], xmm0
  0018e	f3 0f 10 45 14	 movss	 xmm0, DWORD PTR _fuOffset$[ebp]
  00193	f3 0f 11 44 24
	08		 movss	 DWORD PTR [esp+8], xmm0
  00199	f3 0f 10 45 10	 movss	 xmm0, DWORD PTR _fvScale$[ebp]
  0019e	f3 0f 11 44 24
	04		 movss	 DWORD PTR [esp+4], xmm0
  001a4	f3 0f 10 45 0c	 movss	 xmm0, DWORD PTR _fuScale$[ebp]
  001a9	f3 0f 11 04 24	 movss	 DWORD PTR [esp], xmm0
  001ae	53		 push	 ebx
  001af	50		 push	 eax
  001b0	e8 00 00 00 00	 call	 ?SetTexture@CTextureSet@@QAE_NKPBDMMMM_NGGM@Z ; CTextureSet::SetTexture
  001b5	5f		 pop	 edi
  001b6	5e		 pop	 esi

; 225  : 			   c_szFileName,
; 226  : 			   fuScale,
; 227  : 			   fvScale,
; 228  : 			   fuOffset,
; 229  : 			   fvOffset,
; 230  : 			   bSplat,
; 231  : 			   usBegin,
; 232  : 			   usEnd,
; 233  : 			   fTerrainTexCoordBase);
; 234  : 
; 235  : 	return true;

  001b7	b0 01		 mov	 al, 1
  001b9	5b		 pop	 ebx

; 236  : }

  001ba	8b e5		 mov	 esp, ebp
  001bc	5d		 pop	 ebp
  001bd	c2 24 00	 ret	 36			; 00000024H
$LN53@AddTexture:
; File C:\Program Files\Microsoft Visual Studio\2022\Community\VC\Tools\MSVC\14.34.31933\include\vector

; 1745 :                 _Xlength();

  001c0	e8 00 00 00 00	 call	 ?_Xlength@?$vector@USTerrainTexture@@V?$allocator@USTerrainTexture@@@std@@@std@@CAXXZ ; std::vector<STerrainTexture,std::allocator<STerrainTexture> >::_Xlength
$LN50@AddTexture:
  001c5	cc		 int	 3
?AddTexture@CTextureSet@@QAE_NPBDMMMM_NGGM@Z ENDP	; CTextureSet::AddTexture
_TEXT	ENDS
; Function compile flags: /Ogtp
; File C:\Users\Marian\Desktop\Aeldra\ProjectA-main\Binary\Client\PRTerrainLib\TextureSet.cpp
; File C:\Program Files\Microsoft Visual Studio\2022\Community\VC\Tools\MSVC\14.34.31933\include\vector
; File C:\Program Files\Microsoft Visual Studio\2022\Community\VC\Tools\MSVC\14.34.31933\include\xstring
; File C:\Users\Marian\Desktop\Aeldra\ProjectA-main\Binary\Client\PRTerrainLib\TextureSet.cpp
;	COMDAT ?Reload@CTextureSet@@QAEXM@Z
_TEXT	SEGMENT
_this$1$ = -16						; size = 4
tv244 = -12						; size = 4
_dwIndex$1$ = -8					; size = 4
tv245 = -4						; size = 4
_fTerrainTexCoordBase$ = 8				; size = 4
?Reload@CTextureSet@@QAEXM@Z PROC			; CTextureSet::Reload, COMDAT
; _this$ = ecx

; 173  : {

  00000	55		 push	 ebp
  00001	8b ec		 mov	 ebp, esp
  00003	83 ec 10	 sub	 esp, 16			; 00000010H
  00006	56		 push	 esi
  00007	8b f1		 mov	 esi, ecx

; 174  : 	for (DWORD dwIndex = 1; dwIndex < GetTextureCount(); ++dwIndex)

  00009	c7 45 f8 01 00
	00 00		 mov	 DWORD PTR _dwIndex$1$[ebp], 1
  00010	89 75 f0	 mov	 DWORD PTR _this$1$[ebp], esi
  00013	e8 00 00 00 00	 call	 ?GetTextureCount@CTextureSet@@QAEKXZ ; CTextureSet::GetTextureCount
  00018	83 f8 01	 cmp	 eax, 1
  0001b	0f 86 c9 00 00
	00		 jbe	 $LN3@Reload
  00021	f3 0f 10 45 08	 movss	 xmm0, DWORD PTR _fTerrainTexCoordBase$[ebp]
  00026	b8 9c 00 00 00	 mov	 eax, 156		; 0000009cH
  0002b	0f 57 05 00 00
	00 00		 xorps	 xmm0, DWORD PTR __xmm@80000000800000008000000080000000
  00032	f3 0f 11 45 f4	 movss	 DWORD PTR tv244[ebp], xmm0
  00037	89 45 fc	 mov	 DWORD PTR tv245[ebp], eax
  0003a	57		 push	 edi
  0003b	0f 1f 44 00 00	 npad	 5
$LL4@Reload:
; File C:\Program Files\Microsoft Visual Studio\2022\Community\VC\Tools\MSVC\14.34.31933\include\vector

; 1952 :         return _My_data._Myfirst[_Pos];

  00040	8b 7e 04	 mov	 edi, DWORD PTR [esi+4]
  00043	03 f8		 add	 edi, eax
; File C:\Program Files\Microsoft Visual Studio\2022\Community\VC\Tools\MSVC\14.34.31933\include\xstring

; 2292 :         const value_type* _Result = _Bx._Buf;

  00045	8b c7		 mov	 eax, edi

; 2301 :         return _BUF_SIZE <= _Myres;

  00047	83 7f 14 10	 cmp	 DWORD PTR [edi+20], 16	; 00000010H

; 2293 :         if (_Large_string_engaged()) {

  0004b	72 02		 jb	 SHORT $LN11@Reload

; 2294 :             _Result = _Unfancy(_Bx._Ptr);

  0004d	8b 07		 mov	 eax, DWORD PTR [edi]
$LN11@Reload:
; File C:\Users\Marian\Desktop\Aeldra\ProjectA-main\Binary\Client\PRTerrainLib\TextureSet.cpp

; 178  : 		tex.ImageInstance.ReloadImagePointer((CGraphicImage *) CResourceManager::Instance().GetResourcePointer(tex.stFilename.c_str()));

  0004f	8b 0d 00 00 00
	00		 mov	 ecx, DWORD PTR ?ms_singleton@?$CSingleton@VCResourceManager@@@@0PAVCResourceManager@@A ; CSingleton<CResourceManager>::ms_singleton
  00055	50		 push	 eax
  00056	e8 00 00 00 00	 call	 ?GetResourcePointer@CResourceManager@@QAEPAVCResource@@PBD@Z ; CResourceManager::GetResourcePointer
  0005b	50		 push	 eax
  0005c	8d 4f 1c	 lea	 ecx, DWORD PTR [edi+28]
  0005f	e8 00 00 00 00	 call	 ?ReloadImagePointer@CGraphicImageInstance@@QAEXPAVCGraphicImage@@@Z ; CGraphicImageInstance::ReloadImagePointer

; 179  : 		tex.pd3dTexture = tex.ImageInstance.GetTexturePointer()->GetD3DTexture();

  00064	8d 4f 1c	 lea	 ecx, DWORD PTR [edi+28]
  00067	e8 00 00 00 00	 call	 ?GetTexturePointer@CGraphicImageInstance@@QAEPAVCGraphicTexture@@XZ ; CGraphicImageInstance::GetTexturePointer
  0006c	8b c8		 mov	 ecx, eax
  0006e	e8 00 00 00 00	 call	 ?GetD3DTexture@CGraphicTexture@@QBEPAUIDirect3DTexture8@@XZ ; CGraphicTexture::GetD3DTexture

; 180  : 
; 181  : 		D3DXMatrixScaling(&tex.m_matTransform, fTerrainTexCoordBase * tex.UScale, -fTerrainTexCoordBase * tex.VScale, 0.0f);

  00073	f3 0f 10 45 f4	 movss	 xmm0, DWORD PTR tv244[ebp]
  00078	83 ec 0c	 sub	 esp, 12			; 0000000cH
  0007b	f3 0f 59 47 48	 mulss	 xmm0, DWORD PTR [edi+72]
  00080	89 47 18	 mov	 DWORD PTR [edi+24], eax
  00083	8d 47 5c	 lea	 eax, DWORD PTR [edi+92]
  00086	c7 44 24 08 00
	00 00 00	 mov	 DWORD PTR [esp+8], 0
  0008e	f3 0f 11 44 24
	04		 movss	 DWORD PTR [esp+4], xmm0
  00094	f3 0f 10 45 08	 movss	 xmm0, DWORD PTR _fTerrainTexCoordBase$[ebp]
  00099	f3 0f 59 47 44	 mulss	 xmm0, DWORD PTR [edi+68]
  0009e	f3 0f 11 04 24	 movss	 DWORD PTR [esp], xmm0
  000a3	50		 push	 eax
  000a4	e8 00 00 00 00	 call	 _D3DXMatrixScaling@16

; 182  : 		tex.m_matTransform._41 = tex.UOffset;
; 183  : 		tex.m_matTransform._42 = -tex.VOffset;

  000a9	f3 0f 10 47 50	 movss	 xmm0, DWORD PTR [edi+80]
  000ae	8b 47 4c	 mov	 eax, DWORD PTR [edi+76]
  000b1	0f 57 05 00 00
	00 00		 xorps	 xmm0, DWORD PTR __xmm@80000000800000008000000080000000
  000b8	8b 75 f0	 mov	 esi, DWORD PTR _this$1$[ebp]
  000bb	8b ce		 mov	 ecx, esi
  000bd	81 45 fc 9c 00
	00 00		 add	 DWORD PTR tv245[ebp], 156 ; 0000009cH
  000c4	89 87 8c 00 00
	00		 mov	 DWORD PTR [edi+140], eax
  000ca	f3 0f 11 87 90
	00 00 00	 movss	 DWORD PTR [edi+144], xmm0
  000d2	8b 7d f8	 mov	 edi, DWORD PTR _dwIndex$1$[ebp]
  000d5	47		 inc	 edi
  000d6	89 7d f8	 mov	 DWORD PTR _dwIndex$1$[ebp], edi
  000d9	e8 00 00 00 00	 call	 ?GetTextureCount@CTextureSet@@QAEKXZ ; CTextureSet::GetTextureCount
  000de	3b f8		 cmp	 edi, eax
  000e0	8b 45 fc	 mov	 eax, DWORD PTR tv245[ebp]
  000e3	0f 82 57 ff ff
	ff		 jb	 $LL4@Reload
  000e9	5f		 pop	 edi
$LN3@Reload:
  000ea	5e		 pop	 esi

; 184  : 	}
; 185  : }

  000eb	8b e5		 mov	 esp, ebp
  000ed	5d		 pop	 ebp
  000ee	c2 04 00	 ret	 4
?Reload@CTextureSet@@QAEXM@Z ENDP			; CTextureSet::Reload
_TEXT	ENDS
; Function compile flags: /Ogtp
; File C:\Users\Marian\Desktop\Aeldra\ProjectA-main\Binary\Client\PRTerrainLib\TextureSet.cpp
; File C:\Program Files\Microsoft Visual Studio\2022\Community\VC\Tools\MSVC\14.34.31933\include\vector
; File C:\Users\Marian\Desktop\Aeldra\ProjectA-main\Binary\Client\PRTerrainLib\TextureSet.cpp
; File C:\Program Files\Microsoft Visual Studio\2022\Community\VC\Tools\MSVC\14.34.31933\include\vector
; File C:\Users\Marian\Desktop\Aeldra\ProjectA-main\Binary\Client\PRTerrainLib\TextureSet.cpp
; File C:\Program Files\Microsoft Visual Studio\2022\Community\VC\Tools\MSVC\14.34.31933\include\xstring
; File C:\Users\Marian\Desktop\Aeldra\ProjectA-main\Binary\Client\PRTerrainLib\TextureSet.cpp
; File C:\Program Files\Microsoft Visual Studio\2022\Community\VC\Tools\MSVC\14.34.31933\include\xstring
; File C:\Program Files\Microsoft Visual Studio\2022\Community\VC\Tools\MSVC\14.34.31933\include\vector
; File C:\Program Files\Microsoft Visual Studio\2022\Community\VC\Tools\MSVC\14.34.31933\include\xstring
; File C:\Program Files\Microsoft Visual Studio\2022\Community\VC\Tools\MSVC\14.34.31933\include\vector
; File C:\Program Files\Microsoft Visual Studio\2022\Community\VC\Tools\MSVC\14.34.31933\include\xstring
; File C:\Users\Marian\Desktop\Aeldra\ProjectA-main\Binary\Client\PRTerrainLib\TextureSet.cpp
;	COMDAT ?SetTexture@CTextureSet@@QAE_NKPBDMMMM_NGGM@Z
_TEXT	SEGMENT
_this$1$ = -4						; size = 4
_pResource$1$ = 8					; size = 4
_ulIndex$ = 8						; size = 4
_c_szFileName$ = 12					; size = 4
_fuScale$ = 16						; size = 4
_fvScale$ = 20						; size = 4
_fuOffset$ = 24						; size = 4
_fvOffset$ = 28						; size = 4
_bSplat$ = 32						; size = 1
_usBegin$ = 36						; size = 2
_usEnd$ = 40						; size = 2
_fTerrainTexCoordBase$ = 44				; size = 4
?SetTexture@CTextureSet@@QAE_NKPBDMMMM_NGGM@Z PROC	; CTextureSet::SetTexture, COMDAT
; _this$ = ecx

; 134  : {

  00000	55		 push	 ebp
  00001	8b ec		 mov	 ebp, esp
  00003	51		 push	 ecx
  00004	8b c1		 mov	 eax, ecx
  00006	56		 push	 esi
  00007	89 45 fc	 mov	 DWORD PTR _this$1$[ebp], eax
  0000a	57		 push	 edi
; File C:\Program Files\Microsoft Visual Studio\2022\Community\VC\Tools\MSVC\14.34.31933\include\vector

; 1932 :         return static_cast<size_type>(_My_data._Mylast - _My_data._Myfirst);

  0000b	8b 70 08	 mov	 esi, DWORD PTR [eax+8]
  0000e	2b 70 04	 sub	 esi, DWORD PTR [eax+4]
  00011	b8 d3 20 0d d2	 mov	 eax, -770891565		; d20d20d3H
; File C:\Users\Marian\Desktop\Aeldra\ProjectA-main\Binary\Client\PRTerrainLib\TextureSet.cpp

; 136  : 	if (ulIndex >= m_Textures.size())

  00016	8b 7d 08	 mov	 edi, DWORD PTR _ulIndex$[ebp]
; File C:\Program Files\Microsoft Visual Studio\2022\Community\VC\Tools\MSVC\14.34.31933\include\vector

; 1932 :         return static_cast<size_type>(_My_data._Mylast - _My_data._Myfirst);

  00019	f7 ee		 imul	 esi
  0001b	03 d6		 add	 edx, esi
  0001d	c1 fa 07	 sar	 edx, 7
  00020	8b c2		 mov	 eax, edx
  00022	c1 e8 1f	 shr	 eax, 31			; 0000001fH
  00025	03 c2		 add	 eax, edx
; File C:\Users\Marian\Desktop\Aeldra\ProjectA-main\Binary\Client\PRTerrainLib\TextureSet.cpp

; 136  : 	if (ulIndex >= m_Textures.size())

  00027	3b f8		 cmp	 edi, eax
  00029	72 19		 jb	 SHORT $LN2@SetTexture

; 137  : 	{
; 138  : 		TraceError("CTextureSet::SetTexture : Index Error : Index(%d) is Larger than TextureSet Size(%d)", ulIndex, m_Textures.size());

  0002b	50		 push	 eax
  0002c	57		 push	 edi
  0002d	68 00 00 00 00	 push	 OFFSET ??_C@_0FF@IFFABLMH@CTextureSet?3?3SetTexture?5?3?5Index@
  00032	e8 00 00 00 00	 call	 ?TraceError@@YAXPBDZZ	; TraceError
  00037	83 c4 0c	 add	 esp, 12			; 0000000cH
$LN28@SetTexture:

; 170  : }

  0003a	5f		 pop	 edi
  0003b	32 c0		 xor	 al, al
  0003d	5e		 pop	 esi
  0003e	8b e5		 mov	 esp, ebp
  00040	5d		 pop	 ebp
  00041	c2 28 00	 ret	 40			; 00000028H
$LN2@SetTexture:

; 139  : 		return false;
; 140  : 	}
; 141  : 
; 142  : 	CResource * pResource = CResourceManager::Instance().GetResourcePointer(c_szFileName);

  00044	ff 75 0c	 push	 DWORD PTR _c_szFileName$[ebp]
  00047	8b 0d 00 00 00
	00		 mov	 ecx, DWORD PTR ?ms_singleton@?$CSingleton@VCResourceManager@@@@0PAVCResourceManager@@A ; CSingleton<CResourceManager>::ms_singleton
  0004d	e8 00 00 00 00	 call	 ?GetResourcePointer@CResourceManager@@QAEPAVCResource@@PBD@Z ; CResourceManager::GetResourcePointer
  00052	8b f0		 mov	 esi, eax
  00054	89 75 08	 mov	 DWORD PTR _pResource$1$[ebp], esi

; 143  : 	if (!pResource)

  00057	85 f6		 test	 esi, esi
  00059	74 df		 je	 SHORT $LN28@SetTexture

; 144  : 		return false;
; 145  : 
; 146  : 	if (!pResource->IsType(CGraphicImage::Type()))

  0005b	e8 00 00 00 00	 call	 ?Type@CGraphicImage@@SAKXZ ; CGraphicImage::Type
  00060	50		 push	 eax
  00061	8b ce		 mov	 ecx, esi
  00063	e8 00 00 00 00	 call	 ?IsType@CResource@@QAE_NK@Z ; CResource::IsType
  00068	84 c0		 test	 al, al
  0006a	75 23		 jne	 SHORT $LN4@SetTexture
; File C:\Program Files\Microsoft Visual Studio\2022\Community\VC\Tools\MSVC\14.34.31933\include\xstring

; 2301 :         return _BUF_SIZE <= _Myres;

  0006c	83 7e 20 10	 cmp	 DWORD PTR [esi+32], 16	; 00000010H

; 4259 :         return _Mypair._Myval2._Myptr();

  00070	8d 46 0c	 lea	 eax, DWORD PTR [esi+12]

; 2293 :         if (_Large_string_engaged()) {

  00073	72 02		 jb	 SHORT $LN15@SetTexture

; 2294 :             _Result = _Unfancy(_Bx._Ptr);

  00075	8b 00		 mov	 eax, DWORD PTR [eax]
$LN15@SetTexture:
; File C:\Users\Marian\Desktop\Aeldra\ProjectA-main\Binary\Client\PRTerrainLib\TextureSet.cpp

; 148  : 		TraceError("CTerrainImpl::GenerateTexture : %s is NOT Image File", pResource->GetFileName());

  00077	50		 push	 eax
  00078	68 00 00 00 00	 push	 OFFSET ??_C@_0DF@JOIEGDLH@CTerrainImpl?3?3GenerateTexture?5?3@
  0007d	e8 00 00 00 00	 call	 ?TraceError@@YAXPBDZZ	; TraceError
  00082	83 c4 08	 add	 esp, 8

; 149  : 		return false;

  00085	32 c0		 xor	 al, al
  00087	5f		 pop	 edi

; 170  : }

  00088	5e		 pop	 esi
  00089	8b e5		 mov	 esp, ebp
  0008b	5d		 pop	 ebp
  0008c	c2 28 00	 ret	 40			; 00000028H
$LN4@SetTexture:
; File C:\Program Files\Microsoft Visual Studio\2022\Community\VC\Tools\MSVC\14.34.31933\include\xstring

; 418  :         return _CSTD strlen(reinterpret_cast<const char*>(_First));

  0008f	8b 55 0c	 mov	 edx, DWORD PTR _c_szFileName$[ebp]
  00092	8b ca		 mov	 ecx, edx
; File C:\Program Files\Microsoft Visual Studio\2022\Community\VC\Tools\MSVC\14.34.31933\include\vector

; 1952 :         return _My_data._Myfirst[_Pos];

  00094	8b 45 fc	 mov	 eax, DWORD PTR _this$1$[ebp]
  00097	69 ff 9c 00 00
	00		 imul	 edi, edi, 156
; File C:\Program Files\Microsoft Visual Studio\2022\Community\VC\Tools\MSVC\14.34.31933\include\xstring

; 418  :         return _CSTD strlen(reinterpret_cast<const char*>(_First));

  0009d	8d 71 01	 lea	 esi, DWORD PTR [ecx+1]
; File C:\Program Files\Microsoft Visual Studio\2022\Community\VC\Tools\MSVC\14.34.31933\include\vector

; 1952 :         return _My_data._Myfirst[_Pos];

  000a0	03 78 04	 add	 edi, DWORD PTR [eax+4]
$LL27@SetTexture:
; File C:\Program Files\Microsoft Visual Studio\2022\Community\VC\Tools\MSVC\14.34.31933\include\xstring

; 418  :         return _CSTD strlen(reinterpret_cast<const char*>(_First));

  000a3	8a 01		 mov	 al, BYTE PTR [ecx]
  000a5	41		 inc	 ecx
  000a6	84 c0		 test	 al, al
  000a8	75 f9		 jne	 SHORT $LL27@SetTexture
  000aa	2b ce		 sub	 ecx, esi

; 3549 :         return assign(_Ptr, _Convert_size<size_type>(_Traits::length(_Ptr)));

  000ac	51		 push	 ecx
  000ad	52		 push	 edx
  000ae	8b cf		 mov	 ecx, edi
  000b0	e8 00 00 00 00	 call	 ?assign@?$basic_string@DU?$char_traits@D@std@@V?$allocator@D@2@@std@@QAEAAV12@QBDI@Z ; std::basic_string<char,std::char_traits<char>,std::allocator<char> >::assign
; File C:\Users\Marian\Desktop\Aeldra\ProjectA-main\Binary\Client\PRTerrainLib\TextureSet.cpp

; 155  : 	tex.UScale = fuScale;

  000b5	f3 0f 10 45 10	 movss	 xmm0, DWORD PTR _fuScale$[ebp]

; 156  : 	tex.VScale = fvScale;
; 157  : 	tex.UOffset = fuOffset;
; 158  : 	tex.VOffset = fvOffset;
; 159  : 	tex.bSplat = bSplat;
; 160  : 	tex.Begin = usBegin;
; 161  : 	tex.End = usEnd;
; 162  : 	tex.ImageInstance.SetImagePointer(static_cast<CGraphicImage *>(pResource));

  000ba	8d 4f 1c	 lea	 ecx, DWORD PTR [edi+28]
  000bd	8a 45 20	 mov	 al, BYTE PTR _bSplat$[ebp]
  000c0	ff 75 08	 push	 DWORD PTR _pResource$1$[ebp]
  000c3	f3 0f 11 47 44	 movss	 DWORD PTR [edi+68], xmm0
  000c8	f3 0f 10 45 14	 movss	 xmm0, DWORD PTR _fvScale$[ebp]
  000cd	f3 0f 11 47 48	 movss	 DWORD PTR [edi+72], xmm0
  000d2	f3 0f 10 45 18	 movss	 xmm0, DWORD PTR _fuOffset$[ebp]
  000d7	88 47 54	 mov	 BYTE PTR [edi+84], al
  000da	66 8b 45 24	 mov	 ax, WORD PTR _usBegin$[ebp]
  000de	f3 0f 11 47 4c	 movss	 DWORD PTR [edi+76], xmm0
  000e3	f3 0f 10 45 1c	 movss	 xmm0, DWORD PTR _fvOffset$[ebp]
  000e8	66 89 47 56	 mov	 WORD PTR [edi+86], ax
  000ec	66 8b 45 28	 mov	 ax, WORD PTR _usEnd$[ebp]
  000f0	f3 0f 11 47 50	 movss	 DWORD PTR [edi+80], xmm0
  000f5	66 89 47 58	 mov	 WORD PTR [edi+88], ax
  000f9	e8 00 00 00 00	 call	 ?SetImagePointer@CGraphicImageInstance@@QAEXPAVCGraphicImage@@@Z ; CGraphicImageInstance::SetImagePointer

; 163  : 	tex.pd3dTexture = tex.ImageInstance.GetTexturePointer()->GetD3DTexture();

  000fe	8d 4f 1c	 lea	 ecx, DWORD PTR [edi+28]
  00101	e8 00 00 00 00	 call	 ?GetTexturePointer@CGraphicImageInstance@@QAEPAVCGraphicTexture@@XZ ; CGraphicImageInstance::GetTexturePointer
  00106	8b c8		 mov	 ecx, eax
  00108	e8 00 00 00 00	 call	 ?GetD3DTexture@CGraphicTexture@@QBEPAUIDirect3DTexture8@@XZ ; CGraphicTexture::GetD3DTexture

; 164  : 	
; 165  : 	
; 166  : 	D3DXMatrixScaling(&tex.m_matTransform, fTerrainTexCoordBase * tex.UScale, -fTerrainTexCoordBase * tex.VScale, 0.0f);

  0010d	f3 0f 10 4d 2c	 movss	 xmm1, DWORD PTR _fTerrainTexCoordBase$[ebp]
  00112	83 ec 0c	 sub	 esp, 12			; 0000000cH
  00115	0f 28 c1	 movaps	 xmm0, xmm1
  00118	89 47 18	 mov	 DWORD PTR [edi+24], eax
  0011b	0f 57 05 00 00
	00 00		 xorps	 xmm0, DWORD PTR __xmm@80000000800000008000000080000000
  00122	8d 47 5c	 lea	 eax, DWORD PTR [edi+92]
  00125	f3 0f 59 47 48	 mulss	 xmm0, DWORD PTR [edi+72]
  0012a	c7 44 24 08 00
	00 00 00	 mov	 DWORD PTR [esp+8], 0
  00132	f3 0f 59 4f 44	 mulss	 xmm1, DWORD PTR [edi+68]
  00137	f3 0f 11 44 24
	04		 movss	 DWORD PTR [esp+4], xmm0
  0013d	f3 0f 11 0c 24	 movss	 DWORD PTR [esp], xmm1
  00142	50		 push	 eax
  00143	e8 00 00 00 00	 call	 _D3DXMatrixScaling@16

; 167  : 	tex.m_matTransform._41 = tex.UOffset;
; 168  : 	tex.m_matTransform._42 = -tex.VOffset;

  00148	f3 0f 10 47 50	 movss	 xmm0, DWORD PTR [edi+80]
  0014d	8b 47 4c	 mov	 eax, DWORD PTR [edi+76]
  00150	0f 57 05 00 00
	00 00		 xorps	 xmm0, DWORD PTR __xmm@80000000800000008000000080000000
  00157	89 87 8c 00 00
	00		 mov	 DWORD PTR [edi+140], eax

; 169  : 	return true;

  0015d	b0 01		 mov	 al, 1
  0015f	f3 0f 11 87 90
	00 00 00	 movss	 DWORD PTR [edi+144], xmm0
  00167	5f		 pop	 edi

; 170  : }

  00168	5e		 pop	 esi
  00169	8b e5		 mov	 esp, ebp
  0016b	5d		 pop	 ebp
  0016c	c2 28 00	 ret	 40			; 00000028H
?SetTexture@CTextureSet@@QAE_NKPBDMMMM_NGGM@Z ENDP	; CTextureSet::SetTexture
_TEXT	ENDS
; Function compile flags: /Ogtp
; File C:\Users\Marian\Desktop\Aeldra\ProjectA-main\Binary\Client\PRTerrainLib\TextureSet.cpp
; File C:\Program Files\Microsoft Visual Studio\2022\Community\VC\Tools\MSVC\14.34.31933\include\vector
; File C:\Program Files\Microsoft Visual Studio\2022\Community\VC\Tools\MSVC\14.34.31933\include\xutility
; File C:\Program Files\Microsoft Visual Studio\2022\Community\VC\Tools\MSVC\14.34.31933\include\vector
; File C:\Program Files\Microsoft Visual Studio\2022\Community\VC\Tools\MSVC\14.34.31933\include\xstring
; File C:\Users\Marian\Desktop\Aeldra\ProjectA-main\Binary\Client\eterLib\Ref.h
; File C:\Program Files\Microsoft Visual Studio\2022\Community\VC\Tools\MSVC\14.34.31933\include\xutility
; File C:\Program Files\Microsoft Visual Studio\2022\Community\VC\Tools\MSVC\14.34.31933\include\vector
; File C:\Users\Marian\Desktop\Aeldra\ProjectA-main\Binary\Client\PRTerrainLib\TextureSet.cpp
; File C:\Program Files\Microsoft Visual Studio\2022\Community\VC\Tools\MSVC\14.34.31933\include\vector
; File C:\Users\Marian\Desktop\Aeldra\ProjectA-main\Binary\Client\PRTerrainLib\TextureSet.cpp
;	COMDAT ?RemoveTexture@CTextureSet@@QAE_NK@Z
_TEXT	SEGMENT
_this$1$ = -8						; size = 4
__Last$1$ = -4						; size = 4
tv1498 = 8						; size = 4
_ulIndex$ = 8						; size = 4
?RemoveTexture@CTextureSet@@QAE_NK@Z PROC		; CTextureSet::RemoveTexture, COMDAT
; _this$ = ecx

; 239  : {

  00000	55		 push	 ebp
  00001	8b ec		 mov	 ebp, esp
  00003	83 ec 08	 sub	 esp, 8
  00006	53		 push	 ebx
  00007	8b d9		 mov	 ebx, ecx

; 240  : 	if (GetTextureCount() <= ulIndex)

  00009	e8 00 00 00 00	 call	 ?GetTextureCount@CTextureSet@@QAEKXZ ; CTextureSet::GetTextureCount
  0000e	8b 4d 08	 mov	 ecx, DWORD PTR _ulIndex$[ebp]
  00011	3b c1		 cmp	 eax, ecx
  00013	77 09		 ja	 SHORT $LN2@RemoveText

; 241  : 		return false;

  00015	32 c0		 xor	 al, al
  00017	5b		 pop	 ebx

; 246  : }

  00018	8b e5		 mov	 esp, ebp
  0001a	5d		 pop	 ebp
  0001b	c2 04 00	 ret	 4
$LN2@RemoveText:
  0001e	57		 push	 edi
; File C:\Program Files\Microsoft Visual Studio\2022\Community\VC\Tools\MSVC\14.34.31933\include\vector

; 119  :         _Ptr += _Off;

  0001f	69 f9 9c 00 00
	00		 imul	 edi, ecx, 156

; 1859 :         return iterator(_My_data._Myfirst, _STD addressof(_My_data));

  00025	83 c3 04	 add	 ebx, 4
  00028	89 5d f8	 mov	 DWORD PTR _this$1$[ebp], ebx

; 1792 :         _Move_unchecked(_Whereptr + 1, _Mylast, _Whereptr);

  0002b	8b 4b 04	 mov	 ecx, DWORD PTR [ebx+4]

; 119  :         _Ptr += _Off;

  0002e	81 c7 9c 00 00
	00		 add	 edi, 156		; 0000009cH

; 1792 :         _Move_unchecked(_Whereptr + 1, _Mylast, _Whereptr);

  00034	89 4d fc	 mov	 DWORD PTR __Last$1$[ebp], ecx
  00037	03 3b		 add	 edi, DWORD PTR [ebx]
; File C:\Program Files\Microsoft Visual Studio\2022\Community\VC\Tools\MSVC\14.34.31933\include\xutility

; 4211 :     for (; _First != _Last; ++_Dest, (void) ++_First) {

  00039	3b f9		 cmp	 edi, ecx
  0003b	0f 84 08 01 00
	00		 je	 $LN20@RemoveText
; File C:\Program Files\Microsoft Visual Studio\2022\Community\VC\Tools\MSVC\14.34.31933\include\vector

; 1859 :         return iterator(_My_data._Myfirst, _STD addressof(_My_data));

  00041	56		 push	 esi
  00042	8d 77 84	 lea	 esi, DWORD PTR [edi-124]
$LL21@RemoveText:
; File C:\Program Files\Microsoft Visual Studio\2022\Community\VC\Tools\MSVC\14.34.31933\include\xstring

; 3306 :         if (this == _STD addressof(_Right)) {

  00045	8d 46 e0	 lea	 eax, DWORD PTR [esi-32]
  00048	3b c7		 cmp	 eax, edi
  0004a	74 1c		 je	 SHORT $LN25@RemoveText

; 2301 :         return _BUF_SIZE <= _Myres;

  0004c	83 be 90 00 00
	00 10		 cmp	 DWORD PTR [esi+144], 16	; 00000010H

; 2292 :         const value_type* _Result = _Bx._Buf;

  00053	8b c7		 mov	 eax, edi

; 2293 :         if (_Large_string_engaged()) {

  00055	72 02		 jb	 SHORT $LN29@RemoveText

; 2294 :             _Result = _Unfancy(_Bx._Ptr);

  00057	8b 07		 mov	 eax, DWORD PTR [edi]
$LN29@RemoveText:

; 3346 :         assign(_Right._Mypair._Myval2._Myptr(), _Right._Mypair._Myval2._Mysize);

  00059	ff b6 8c 00 00
	00		 push	 DWORD PTR [esi+140]
  0005f	8d 4e e0	 lea	 ecx, DWORD PTR [esi-32]
  00062	50		 push	 eax
  00063	e8 00 00 00 00	 call	 ?assign@?$basic_string@DU?$char_traits@D@std@@V?$allocator@D@2@@std@@QAEAAV12@QBDI@Z ; std::basic_string<char,std::char_traits<char>,std::allocator<char> >::assign
$LN25@RemoveText:
  00068	8b 86 94 00 00
	00		 mov	 eax, DWORD PTR [esi+148]
  0006e	89 46 f8	 mov	 DWORD PTR [esi-8], eax
  00071	8d 86 9c 00 00
	00		 lea	 eax, DWORD PTR [esi+156]
  00077	0f 10 00	 movups	 xmm0, XMMWORD PTR [eax]
  0007a	89 45 08	 mov	 DWORD PTR tv1498[ebp], eax
  0007d	0f 11 06	 movups	 XMMWORD PTR [esi], xmm0
  00080	8b 86 ac 00 00
	00		 mov	 eax, DWORD PTR [esi+172]
  00086	8b 8e b0 00 00
	00		 mov	 ecx, DWORD PTR [esi+176]
  0008c	89 46 10	 mov	 DWORD PTR [esi+16], eax
  0008f	89 4e 14	 mov	 DWORD PTR [esi+20], ecx
  00092	8b 8e b8 00 00
	00		 mov	 ecx, DWORD PTR [esi+184]
  00098	8b 86 b4 00 00
	00		 mov	 eax, DWORD PTR [esi+180]
  0009e	89 46 18	 mov	 DWORD PTR [esi+24], eax
  000a1	89 4e 1c	 mov	 DWORD PTR [esi+28], ecx
; File C:\Users\Marian\Desktop\Aeldra\ProjectA-main\Binary\Client\eterLib\Ref.h

; 69   : 			m_pObject = pObject;

  000a4	8b 8e bc 00 00
	00		 mov	 ecx, DWORD PTR [esi+188]
  000aa	8b 5e 20	 mov	 ebx, DWORD PTR [esi+32]
  000ad	89 4e 20	 mov	 DWORD PTR [esi+32], ecx

; 70   : 
; 71   : 			if (m_pObject)

  000b0	85 c9		 test	 ecx, ecx
  000b2	74 05		 je	 SHORT $LN38@RemoveText

; 72   : 				m_pObject->AddReference();

  000b4	e8 00 00 00 00	 call	 ?AddReference@CReferenceObject@@QAEXXZ ; CReferenceObject::AddReference
$LN38@RemoveText:

; 73   : 
; 74   : 			if (pOldObject)

  000b9	85 db		 test	 ebx, ebx
  000bb	74 07		 je	 SHORT $LN39@RemoveText

; 75   : 				pOldObject->Release();

  000bd	8b cb		 mov	 ecx, ebx
  000bf	e8 00 00 00 00	 call	 ?Release@CReferenceObject@@QAEXXZ ; CReferenceObject::Release
$LN39@RemoveText:
  000c4	8b 86 c0 00 00
	00		 mov	 eax, DWORD PTR [esi+192]
; File C:\Program Files\Microsoft Visual Studio\2022\Community\VC\Tools\MSVC\14.34.31933\include\xutility

; 4211 :     for (; _First != _Last; ++_Dest, (void) ++_First) {

  000ca	81 c7 9c 00 00
	00		 add	 edi, 156		; 0000009cH
  000d0	89 46 24	 mov	 DWORD PTR [esi+36], eax
  000d3	8b 86 c4 00 00
	00		 mov	 eax, DWORD PTR [esi+196]
  000d9	89 46 28	 mov	 DWORD PTR [esi+40], eax
  000dc	8b 86 c8 00 00
	00		 mov	 eax, DWORD PTR [esi+200]
  000e2	89 46 2c	 mov	 DWORD PTR [esi+44], eax
  000e5	8b 86 cc 00 00
	00		 mov	 eax, DWORD PTR [esi+204]
  000eb	89 46 30	 mov	 DWORD PTR [esi+48], eax
  000ee	8a 86 d0 00 00
	00		 mov	 al, BYTE PTR [esi+208]
  000f4	88 46 34	 mov	 BYTE PTR [esi+52], al
  000f7	0f b7 86 d2 00
	00 00		 movzx	 eax, WORD PTR [esi+210]
  000fe	66 89 46 36	 mov	 WORD PTR [esi+54], ax
  00102	0f b7 86 d4 00
	00 00		 movzx	 eax, WORD PTR [esi+212]
  00109	66 89 46 38	 mov	 WORD PTR [esi+56], ax
  0010d	0f 10 86 d8 00
	00 00		 movups	 xmm0, XMMWORD PTR [esi+216]
  00114	0f 11 46 3c	 movups	 XMMWORD PTR [esi+60], xmm0
  00118	0f 10 86 e8 00
	00 00		 movups	 xmm0, XMMWORD PTR [esi+232]
  0011f	0f 11 46 4c	 movups	 XMMWORD PTR [esi+76], xmm0
  00123	0f 10 86 f8 00
	00 00		 movups	 xmm0, XMMWORD PTR [esi+248]
  0012a	0f 11 46 5c	 movups	 XMMWORD PTR [esi+92], xmm0
  0012e	0f 10 86 08 01
	00 00		 movups	 xmm0, XMMWORD PTR [esi+264]
  00135	0f 11 46 6c	 movups	 XMMWORD PTR [esi+108], xmm0
  00139	8b 75 08	 mov	 esi, DWORD PTR tv1498[ebp]
  0013c	3b 7d fc	 cmp	 edi, DWORD PTR __Last$1$[ebp]
  0013f	0f 85 00 ff ff
	ff		 jne	 $LL21@RemoveText
  00145	8b 5d f8	 mov	 ebx, DWORD PTR _this$1$[ebp]
  00148	5e		 pop	 esi
$LN20@RemoveText:
; File C:\Program Files\Microsoft Visual Studio\2022\Community\VC\Tools\MSVC\14.34.31933\include\vector

; 1793 :         _Alty_traits::destroy(_Getal(), _Unfancy(_Mylast - 1));

  00149	8b 43 04	 mov	 eax, DWORD PTR [ebx+4]
  0014c	2d 9c 00 00 00	 sub	 eax, 156		; 0000009cH
  00151	50		 push	 eax
  00152	53		 push	 ebx
  00153	e8 00 00 00 00	 call	 ??$destroy@USTerrainTexture@@@?$_Default_allocator_traits@V?$allocator@USTerrainTexture@@@std@@@std@@SAXAAV?$allocator@USTerrainTexture@@@1@QAUSTerrainTexture@@@Z ; std::_Default_allocator_traits<std::allocator<STerrainTexture> >::destroy<STerrainTexture>
  00158	83 c4 08	 add	 esp, 8
; File C:\Users\Marian\Desktop\Aeldra\ProjectA-main\Binary\Client\PRTerrainLib\TextureSet.cpp

; 245  : 	return true;

  0015b	b0 01		 mov	 al, 1
; File C:\Program Files\Microsoft Visual Studio\2022\Community\VC\Tools\MSVC\14.34.31933\include\vector

; 1795 :         --_Mylast;

  0015d	81 43 04 64 ff
	ff ff		 add	 DWORD PTR [ebx+4], -156	; ffffff64H
; File C:\Users\Marian\Desktop\Aeldra\ProjectA-main\Binary\Client\PRTerrainLib\TextureSet.cpp

; 245  : 	return true;

  00164	5f		 pop	 edi
  00165	5b		 pop	 ebx

; 246  : }

  00166	8b e5		 mov	 esp, ebp
  00168	5d		 pop	 ebp
  00169	c2 04 00	 ret	 4
?RemoveTexture@CTextureSet@@QAE_NK@Z ENDP		; CTextureSet::RemoveTexture
_TEXT	ENDS
; Function compile flags: /Ogtp
; File C:\Users\Marian\Desktop\Aeldra\ProjectA-main\Binary\Client\PRTerrainLib\TextureSet.cpp
; File C:\Program Files\Microsoft Visual Studio\2022\Community\VC\Tools\MSVC\14.34.31933\include\vector
; File C:\Users\Marian\Desktop\Aeldra\ProjectA-main\Binary\Client\PRTerrainLib\TextureSet.cpp
;	COMDAT ?GetTexture@CTextureSet@@QAEAAUSTerrainTexture@@K@Z
_TEXT	SEGMENT
_ulIndex$ = 8						; size = 4
?GetTexture@CTextureSet@@QAEAAUSTerrainTexture@@K@Z PROC ; CTextureSet::GetTexture, COMDAT
; _this$ = ecx

; 117  : {

  00000	55		 push	 ebp
  00001	8b ec		 mov	 ebp, esp
  00003	56		 push	 esi
  00004	8b f1		 mov	 esi, ecx

; 118  : 	if (GetTextureCount() <= ulIndex)

  00006	e8 00 00 00 00	 call	 ?GetTextureCount@CTextureSet@@QAEKXZ ; CTextureSet::GetTextureCount
  0000b	8b 4d 08	 mov	 ecx, DWORD PTR _ulIndex$[ebp]
  0000e	3b c1		 cmp	 eax, ecx
  00010	77 08		 ja	 SHORT $LN2@GetTexture

; 119  : 		return m_ErrorTexture;

  00012	8d 46 10	 lea	 eax, DWORD PTR [esi+16]
  00015	5e		 pop	 esi

; 122  : }

  00016	5d		 pop	 ebp
  00017	c2 04 00	 ret	 4
$LN2@GetTexture:
; File C:\Program Files\Microsoft Visual Studio\2022\Community\VC\Tools\MSVC\14.34.31933\include\vector

; 1952 :         return _My_data._Myfirst[_Pos];

  0001a	69 c1 9c 00 00
	00		 imul	 eax, ecx, 156
  00020	03 46 04	 add	 eax, DWORD PTR [esi+4]
  00023	5e		 pop	 esi
; File C:\Users\Marian\Desktop\Aeldra\ProjectA-main\Binary\Client\PRTerrainLib\TextureSet.cpp

; 122  : }

  00024	5d		 pop	 ebp
  00025	c2 04 00	 ret	 4
?GetTexture@CTextureSet@@QAEAAUSTerrainTexture@@K@Z ENDP ; CTextureSet::GetTexture
_TEXT	ENDS
; Function compile flags: /Ogtp
; File C:\Users\Marian\Desktop\Aeldra\ProjectA-main\Binary\Client\PRTerrainLib\TextureSet.cpp
; File C:\Program Files\Microsoft Visual Studio\2022\Community\VC\Tools\MSVC\14.34.31933\include\vector
; File C:\Users\Marian\Desktop\Aeldra\ProjectA-main\Binary\Client\PRTerrainLib\TextureSet.cpp
;	COMDAT ?GetTextureCount@CTextureSet@@QAEKXZ
_TEXT	SEGMENT
?GetTextureCount@CTextureSet@@QAEKXZ PROC		; CTextureSet::GetTextureCount, COMDAT
; _this$ = ecx

; 112  : {

  00000	56		 push	 esi
; File C:\Program Files\Microsoft Visual Studio\2022\Community\VC\Tools\MSVC\14.34.31933\include\vector

; 1932 :         return static_cast<size_type>(_My_data._Mylast - _My_data._Myfirst);

  00001	8b 71 08	 mov	 esi, DWORD PTR [ecx+8]
  00004	b8 d3 20 0d d2	 mov	 eax, -770891565		; d20d20d3H
  00009	2b 71 04	 sub	 esi, DWORD PTR [ecx+4]
  0000c	f7 ee		 imul	 esi
  0000e	03 d6		 add	 edx, esi
  00010	c1 fa 07	 sar	 edx, 7
  00013	8b c2		 mov	 eax, edx
  00015	c1 e8 1f	 shr	 eax, 31			; 0000001fH
  00018	03 c2		 add	 eax, edx
; File C:\Users\Marian\Desktop\Aeldra\ProjectA-main\Binary\Client\PRTerrainLib\TextureSet.cpp

; 113  : 	return m_Textures.size();

  0001a	5e		 pop	 esi

; 114  : }

  0001b	c3		 ret	 0
?GetTextureCount@CTextureSet@@QAEKXZ ENDP		; CTextureSet::GetTextureCount
_TEXT	ENDS
; Function compile flags: /Ogtp
; File C:\Users\Marian\Desktop\Aeldra\ProjectA-main\Binary\Client\PRTerrainLib\TextureSet.cpp
; File C:\Program Files\Microsoft Visual Studio\2022\Community\VC\Tools\MSVC\14.34.31933\include\vector
; File C:\Users\Marian\Desktop\Aeldra\ProjectA-main\Binary\Client\PRTerrainLib\TextureSet.cpp
; File C:\Program Files\Microsoft Visual Studio\2022\Community\VC\Tools\MSVC\14.34.31933\include\vector
; File C:\Users\Marian\Desktop\Aeldra\ProjectA-main\Binary\Client\PRTerrainLib\TextureSet.cpp
; File C:\Program Files\Microsoft Visual Studio\2022\Community\VC\Tools\MSVC\14.34.31933\include\xstring
; File C:\Users\Marian\Desktop\Aeldra\ProjectA-main\Binary\Client\PRTerrainLib\TextureSet.cpp
;	COMDAT ?Save@CTextureSet@@QAE_NPBD@Z
_TEXT	SEGMENT
_this$1$ = -4						; size = 4
tv277 = 8						; size = 4
_c_pszFileName$ = 8					; size = 4
?Save@CTextureSet@@QAE_NPBD@Z PROC			; CTextureSet::Save, COMDAT
; _this$ = ecx

; 249  : {

  00000	55		 push	 ebp
  00001	8b ec		 mov	 ebp, esp
  00003	51		 push	 ecx
  00004	56		 push	 esi
  00005	57		 push	 edi

; 250  : 	FILE * pFile = fopen(c_pszFileName, "w");

  00006	68 00 00 00 00	 push	 OFFSET ??_C@_01NOFIACDB@w@
  0000b	ff 75 08	 push	 DWORD PTR _c_pszFileName$[ebp]
  0000e	8b f1		 mov	 esi, ecx
  00010	89 75 fc	 mov	 DWORD PTR _this$1$[ebp], esi
  00013	e8 00 00 00 00	 call	 _fopen
  00018	8b f8		 mov	 edi, eax
  0001a	83 c4 08	 add	 esp, 8

; 251  : 	
; 252  : 	if (!pFile)

  0001d	85 ff		 test	 edi, edi
  0001f	75 0a		 jne	 SHORT $LN5@Save

; 253  : 		return false;

  00021	5f		 pop	 edi
  00022	32 c0		 xor	 al, al

; 279  : }

  00024	5e		 pop	 esi
  00025	8b e5		 mov	 esp, ebp
  00027	5d		 pop	 ebp
  00028	c2 04 00	 ret	 4
$LN5@Save:
  0002b	53		 push	 ebx

; 254  : 	
; 255  : 	fprintf(pFile, "TextureSet\n");

  0002c	68 00 00 00 00	 push	 OFFSET ??_C@_0M@MPCHGPBP@TextureSet?6@
  00031	57		 push	 edi
  00032	e8 00 00 00 00	 call	 _fprintf

; 256  : 	fprintf(pFile, "\n");

  00037	68 00 00 00 00	 push	 OFFSET ??_C@_01EEMJAFIK@?6@
  0003c	57		 push	 edi
  0003d	e8 00 00 00 00	 call	 _fprintf
  00042	83 c4 10	 add	 esp, 16			; 00000010H

; 257  : 	
; 258  : 	fprintf(pFile, "TextureCount %ld\n", GetTextureCount() - 1);	// -1     

  00045	8b ce		 mov	 ecx, esi
  00047	e8 00 00 00 00	 call	 ?GetTextureCount@CTextureSet@@QAEKXZ ; CTextureSet::GetTextureCount
  0004c	48		 dec	 eax
  0004d	50		 push	 eax
  0004e	68 00 00 00 00	 push	 OFFSET ??_C@_0BC@GGJBGKJP@TextureCount?5?$CFld?6@
  00053	57		 push	 edi
  00054	e8 00 00 00 00	 call	 _fprintf

; 259  : 	fprintf(pFile, "\n");

  00059	68 00 00 00 00	 push	 OFFSET ??_C@_01EEMJAFIK@?6@
  0005e	57		 push	 edi
  0005f	e8 00 00 00 00	 call	 _fprintf
  00064	83 c4 14	 add	 esp, 20			; 00000014H

; 260  : 
; 261  : 	for (DWORD i = 1; i < GetTextureCount(); ++i)

  00067	8b ce		 mov	 ecx, esi
  00069	bb 01 00 00 00	 mov	 ebx, 1
  0006e	e8 00 00 00 00	 call	 ?GetTextureCount@CTextureSet@@QAEKXZ ; CTextureSet::GetTextureCount
  00073	3b c3		 cmp	 eax, ebx
  00075	0f 86 fa 00 00
	00		 jbe	 $LN3@Save

; 254  : 	
; 255  : 	fprintf(pFile, "TextureSet\n");

  0007b	b8 9c 00 00 00	 mov	 eax, 156		; 0000009cH
  00080	89 45 08	 mov	 DWORD PTR tv277[ebp], eax
$LL4@Save:
; File C:\Program Files\Microsoft Visual Studio\2022\Community\VC\Tools\MSVC\14.34.31933\include\vector

; 1952 :         return _My_data._Myfirst[_Pos];

  00083	8b 76 04	 mov	 esi, DWORD PTR [esi+4]
; File C:\Users\Marian\Desktop\Aeldra\ProjectA-main\Binary\Client\PRTerrainLib\TextureSet.cpp

; 265  : 		fprintf(pFile, "Start Texture%03d\n", i);

  00086	53		 push	 ebx
  00087	68 00 00 00 00	 push	 OFFSET ??_C@_0BD@BJELLKNB@Start?5Texture?$CF03d?6@
  0008c	57		 push	 edi
; File C:\Program Files\Microsoft Visual Studio\2022\Community\VC\Tools\MSVC\14.34.31933\include\vector

; 1952 :         return _My_data._Myfirst[_Pos];

  0008d	03 f0		 add	 esi, eax
; File C:\Users\Marian\Desktop\Aeldra\ProjectA-main\Binary\Client\PRTerrainLib\TextureSet.cpp

; 265  : 		fprintf(pFile, "Start Texture%03d\n", i);

  0008f	e8 00 00 00 00	 call	 _fprintf
  00094	83 c4 0c	 add	 esp, 12			; 0000000cH
; File C:\Program Files\Microsoft Visual Studio\2022\Community\VC\Tools\MSVC\14.34.31933\include\xstring

; 2292 :         const value_type* _Result = _Bx._Buf;

  00097	8b c6		 mov	 eax, esi

; 2301 :         return _BUF_SIZE <= _Myres;

  00099	83 7e 14 10	 cmp	 DWORD PTR [esi+20], 16	; 00000010H

; 2293 :         if (_Large_string_engaged()) {

  0009d	72 02		 jb	 SHORT $LN12@Save

; 2294 :             _Result = _Unfancy(_Bx._Ptr);

  0009f	8b 06		 mov	 eax, DWORD PTR [esi]
$LN12@Save:
; File C:\Users\Marian\Desktop\Aeldra\ProjectA-main\Binary\Client\PRTerrainLib\TextureSet.cpp

; 266  : 		fprintf(pFile, "    \"%s\"\n", rTex.stFilename.c_str());

  000a1	50		 push	 eax
  000a2	68 00 00 00 00	 push	 OFFSET ??_C@_09BMPLDMAP@?5?5?5?5?$CC?$CFs?$CC?6@
  000a7	57		 push	 edi
  000a8	e8 00 00 00 00	 call	 _fprintf
  000ad	f3 0f 10 46 44	 movss	 xmm0, DWORD PTR [esi+68]

; 267  : 		fprintf(pFile, "    %f\n", rTex.UScale);

  000b2	83 c4 04	 add	 esp, 4
  000b5	0f 5a c0	 cvtps2pd xmm0, xmm0
  000b8	f2 0f 11 04 24	 movsd	 QWORD PTR [esp], xmm0
  000bd	68 00 00 00 00	 push	 OFFSET ??_C@_07ELCCFBHK@?5?5?5?5?$CFf?6@
  000c2	57		 push	 edi
  000c3	e8 00 00 00 00	 call	 _fprintf
  000c8	f3 0f 10 46 48	 movss	 xmm0, DWORD PTR [esi+72]

; 268  : 		fprintf(pFile, "    %f\n", rTex.VScale);

  000cd	83 c4 08	 add	 esp, 8
  000d0	0f 5a c0	 cvtps2pd xmm0, xmm0
  000d3	f2 0f 11 04 24	 movsd	 QWORD PTR [esp], xmm0
  000d8	68 00 00 00 00	 push	 OFFSET ??_C@_07ELCCFBHK@?5?5?5?5?$CFf?6@
  000dd	57		 push	 edi
  000de	e8 00 00 00 00	 call	 _fprintf
  000e3	f3 0f 10 46 4c	 movss	 xmm0, DWORD PTR [esi+76]

; 269  : 		fprintf(pFile, "    %f\n", rTex.UOffset);

  000e8	83 c4 08	 add	 esp, 8
  000eb	0f 5a c0	 cvtps2pd xmm0, xmm0
  000ee	f2 0f 11 04 24	 movsd	 QWORD PTR [esp], xmm0
  000f3	68 00 00 00 00	 push	 OFFSET ??_C@_07ELCCFBHK@?5?5?5?5?$CFf?6@
  000f8	57		 push	 edi
  000f9	e8 00 00 00 00	 call	 _fprintf
  000fe	f3 0f 10 46 50	 movss	 xmm0, DWORD PTR [esi+80]

; 270  : 		fprintf(pFile, "    %f\n", rTex.VOffset);

  00103	83 c4 08	 add	 esp, 8
  00106	0f 5a c0	 cvtps2pd xmm0, xmm0
  00109	f2 0f 11 04 24	 movsd	 QWORD PTR [esp], xmm0
  0010e	68 00 00 00 00	 push	 OFFSET ??_C@_07ELCCFBHK@?5?5?5?5?$CFf?6@
  00113	57		 push	 edi
  00114	e8 00 00 00 00	 call	 _fprintf

; 271  : 		fprintf(pFile, "    %d\n", rTex.bSplat);

  00119	0f b6 46 54	 movzx	 eax, BYTE PTR [esi+84]
  0011d	50		 push	 eax
  0011e	68 00 00 00 00	 push	 OFFSET ??_C@_07EIKGIFBE@?5?5?5?5?$CFd?6@
  00123	57		 push	 edi
  00124	e8 00 00 00 00	 call	 _fprintf

; 272  : 		fprintf(pFile, "    %hu\n", rTex.Begin);

  00129	0f b7 46 56	 movzx	 eax, WORD PTR [esi+86]
  0012d	50		 push	 eax
  0012e	68 00 00 00 00	 push	 OFFSET ??_C@_08PFAGAKKH@?5?5?5?5?$CFhu?6@
  00133	57		 push	 edi
  00134	e8 00 00 00 00	 call	 _fprintf

; 273  : 		fprintf(pFile, "    %hu\n", rTex.End);

  00139	0f b7 46 58	 movzx	 eax, WORD PTR [esi+88]
  0013d	50		 push	 eax
  0013e	68 00 00 00 00	 push	 OFFSET ??_C@_08PFAGAKKH@?5?5?5?5?$CFhu?6@
  00143	57		 push	 edi
  00144	e8 00 00 00 00	 call	 _fprintf

; 274  : 		fprintf(pFile, "End Texture%03d\n", i);

  00149	53		 push	 ebx
  0014a	68 00 00 00 00	 push	 OFFSET ??_C@_0BB@GNLMPHOK@End?5Texture?$CF03d?6@
  0014f	57		 push	 edi
  00150	e8 00 00 00 00	 call	 _fprintf
  00155	8b 75 fc	 mov	 esi, DWORD PTR _this$1$[ebp]
  00158	83 c4 40	 add	 esp, 64			; 00000040H
  0015b	81 45 08 9c 00
	00 00		 add	 DWORD PTR tv277[ebp], 156 ; 0000009cH
  00162	8b ce		 mov	 ecx, esi
  00164	43		 inc	 ebx
  00165	e8 00 00 00 00	 call	 ?GetTextureCount@CTextureSet@@QAEKXZ ; CTextureSet::GetTextureCount
  0016a	3b d8		 cmp	 ebx, eax
  0016c	8b 45 08	 mov	 eax, DWORD PTR tv277[ebp]
  0016f	0f 82 0e ff ff
	ff		 jb	 $LL4@Save
$LN3@Save:

; 275  : 	}
; 276  : 	
; 277  : 	fclose(pFile);

  00175	57		 push	 edi
  00176	e8 00 00 00 00	 call	 _fclose
  0017b	83 c4 04	 add	 esp, 4

; 278  : 	return true;

  0017e	b0 01		 mov	 al, 1
  00180	5b		 pop	 ebx
  00181	5f		 pop	 edi

; 279  : }

  00182	5e		 pop	 esi
  00183	8b e5		 mov	 esp, ebp
  00185	5d		 pop	 ebp
  00186	c2 04 00	 ret	 4
?Save@CTextureSet@@QAE_NPBD@Z ENDP			; CTextureSet::Save
_TEXT	ENDS
; Function compile flags: /Ogtp
; File C:\Users\Marian\Desktop\Aeldra\ProjectA-main\Binary\Client\PRTerrainLib\TextureSet.cpp
; File C:\Program Files\Microsoft Visual Studio\2022\Community\VC\Tools\MSVC\14.34.31933\include\xmemory
; File C:\Program Files\Microsoft Visual Studio\2022\Community\VC\Tools\MSVC\14.34.31933\include\xtree
; File C:\Program Files\Microsoft Visual Studio\2022\Community\VC\Tools\MSVC\14.34.31933\include\xmemory
; File C:\Program Files\Microsoft Visual Studio\2022\Community\VC\Tools\MSVC\14.34.31933\include\xtree
; File C:\Users\Marian\Desktop\Aeldra\ProjectA-main\Binary\Client\PRTerrainLib\TextureSet.cpp
; File C:\Program Files\Microsoft Visual Studio\2022\Community\VC\Tools\MSVC\14.34.31933\include\xstring
; File C:\Program Files\Microsoft Visual Studio\2022\Community\VC\Tools\MSVC\14.34.31933\include\xtree
; File C:\Program Files\Microsoft Visual Studio\2022\Community\VC\Tools\MSVC\14.34.31933\include\xstring
; File C:\Program Files\Microsoft Visual Studio\2022\Community\VC\Tools\MSVC\14.34.31933\include\xtree
; File C:\Program Files\Microsoft Visual Studio\2022\Community\VC\Tools\MSVC\14.34.31933\include\xstring
; File C:\Program Files\Microsoft Visual Studio\2022\Community\VC\Tools\MSVC\14.34.31933\include\xtree
; File C:\Program Files\Microsoft Visual Studio\2022\Community\VC\Tools\MSVC\14.34.31933\include\xstring
; File C:\Program Files\Microsoft Visual Studio\2022\Community\VC\Tools\MSVC\14.34.31933\include\xtree
; File C:\Program Files\Microsoft Visual Studio\2022\Community\VC\Tools\MSVC\14.34.31933\include\xstring
; File C:\Program Files\Microsoft Visual Studio\2022\Community\VC\Tools\MSVC\14.34.31933\include\xtree
; File C:\Program Files\Microsoft Visual Studio\2022\Community\VC\Tools\MSVC\14.34.31933\include\xstddef
; File C:\Program Files\Microsoft Visual Studio\2022\Community\VC\Tools\MSVC\14.34.31933\include\xtree
; File C:\Users\Marian\Desktop\Aeldra\ProjectA-main\Binary\Client\PRTerrainLib\TextureSet.cpp
; File C:\Program Files\Microsoft Visual Studio\2022\Community\VC\Tools\MSVC\14.34.31933\include\xstring
; File C:\Program Files\Microsoft Visual Studio\2022\Community\VC\Tools\MSVC\14.34.31933\include\xtree
; File C:\Program Files\Microsoft Visual Studio\2022\Community\VC\Tools\MSVC\14.34.31933\include\xstring
; File C:\Program Files\Microsoft Visual Studio\2022\Community\VC\Tools\MSVC\14.34.31933\include\xtree
; File C:\Program Files\Microsoft Visual Studio\2022\Community\VC\Tools\MSVC\14.34.31933\include\xstring
; File C:\Program Files\Microsoft Visual Studio\2022\Community\VC\Tools\MSVC\14.34.31933\include\xtree
; File C:\Program Files\Microsoft Visual Studio\2022\Community\VC\Tools\MSVC\14.34.31933\include\xstring
; File C:\Program Files\Microsoft Visual Studio\2022\Community\VC\Tools\MSVC\14.34.31933\include\xtree
; File C:\Program Files\Microsoft Visual Studio\2022\Community\VC\Tools\MSVC\14.34.31933\include\xstring
; File C:\Program Files\Microsoft Visual Studio\2022\Community\VC\Tools\MSVC\14.34.31933\include\xtree
; File C:\Program Files\Microsoft Visual Studio\2022\Community\VC\Tools\MSVC\14.34.31933\include\xstddef
; File C:\Program Files\Microsoft Visual Studio\2022\Community\VC\Tools\MSVC\14.34.31933\include\xtree
; File C:\Users\Marian\Desktop\Aeldra\ProjectA-main\Binary\Client\PRTerrainLib\TextureSet.cpp
; File C:\Program Files\Microsoft Visual Studio\2022\Community\VC\Tools\MSVC\14.34.31933\include\xtree
; File C:\Users\Marian\Desktop\Aeldra\ProjectA-main\Binary\Client\PRTerrainLib\TextureSet.cpp
; File C:\Program Files\Microsoft Visual Studio\2022\Community\VC\Tools\MSVC\14.34.31933\include\xstring
; File C:\Program Files\Microsoft Visual Studio\2022\Community\VC\Tools\MSVC\14.34.31933\include\map
; File C:\Users\Marian\Desktop\Aeldra\ProjectA-main\Binary\Client\PRTerrainLib\TextureSet.cpp
; File C:\Program Files\Microsoft Visual Studio\2022\Community\VC\Tools\MSVC\14.34.31933\include\map
; File C:\Program Files\Microsoft Visual Studio\2022\Community\VC\Tools\MSVC\14.34.31933\include\xtree
; File C:\Program Files\Microsoft Visual Studio\2022\Community\VC\Tools\MSVC\14.34.31933\include\xstddef
; File C:\Program Files\Microsoft Visual Studio\2022\Community\VC\Tools\MSVC\14.34.31933\include\xtree
; File C:\Program Files\Microsoft Visual Studio\2022\Community\VC\Tools\MSVC\14.34.31933\include\map
; File C:\Program Files\Microsoft Visual Studio\2022\Community\VC\Tools\MSVC\14.34.31933\include\xtree
; File C:\Program Files\Microsoft Visual Studio\2022\Community\VC\Tools\MSVC\14.34.31933\include\map
; File C:\Program Files\Microsoft Visual Studio\2022\Community\VC\Tools\MSVC\14.34.31933\include\xmemory
; File C:\Program Files\Microsoft Visual Studio\2022\Community\VC\Tools\MSVC\14.34.31933\include\xtree
; File C:\Program Files\Microsoft Visual Studio\2022\Community\VC\Tools\MSVC\14.34.31933\include\xmemory
; File C:\Program Files\Microsoft Visual Studio\2022\Community\VC\Tools\MSVC\14.34.31933\include\map
; File C:\Program Files\Microsoft Visual Studio\2022\Community\VC\Tools\MSVC\14.34.31933\include\xmemory
; File C:\Program Files\Microsoft Visual Studio\2022\Community\VC\Tools\MSVC\14.34.31933\include\xstring
; File C:\Program Files\Microsoft Visual Studio\2022\Community\VC\Tools\MSVC\14.34.31933\include\map
; File C:\Program Files\Microsoft Visual Studio\2022\Community\VC\Tools\MSVC\14.34.31933\include\xstring
; File C:\Program Files\Microsoft Visual Studio\2022\Community\VC\Tools\MSVC\14.34.31933\include\map
; File C:\Program Files\Microsoft Visual Studio\2022\Community\VC\Tools\MSVC\14.34.31933\include\xstring
; File C:\Program Files\Microsoft Visual Studio\2022\Community\VC\Tools\MSVC\14.34.31933\include\vector
; File C:\Program Files\Microsoft Visual Studio\2022\Community\VC\Tools\MSVC\14.34.31933\include\xtree
; File C:\Program Files\Microsoft Visual Studio\2022\Community\VC\Tools\MSVC\14.34.31933\include\map
; File C:\Program Files\Microsoft Visual Studio\2022\Community\VC\Tools\MSVC\14.34.31933\include\vector
; File C:\Users\Marian\Desktop\Aeldra\ProjectA-main\Binary\Client\PRTerrainLib\TextureSet.cpp
; File C:\Program Files\Microsoft Visual Studio\2022\Community\VC\Tools\MSVC\14.34.31933\include\xstring
; File C:\Program Files\Microsoft Visual Studio\2022\Community\VC\Tools\MSVC\14.34.31933\include\xmemory
; File C:\Program Files\Microsoft Visual Studio\2022\Community\VC\Tools\MSVC\14.34.31933\include\xstring
; File C:\Program Files\Microsoft Visual Studio\2022\Community\VC\Tools\MSVC\14.34.31933\include\xmemory
; File C:\Program Files\Microsoft Visual Studio\2022\Community\VC\Tools\MSVC\14.34.31933\include\xstring
; File C:\Users\Marian\Desktop\Aeldra\ProjectA-main\Binary\Client\PRTerrainLib\TextureSet.cpp
; File C:\Program Files\Microsoft Visual Studio\2022\Community\VC\Tools\MSVC\14.34.31933\include\vector
; File C:\Users\Marian\Desktop\Aeldra\ProjectA-main\Binary\Client\PRTerrainLib\TextureSet.cpp
; File C:\Program Files\Microsoft Visual Studio\2022\Community\VC\Tools\MSVC\14.34.31933\include\xstring
; File C:\Users\Marian\Desktop\Aeldra\ProjectA-main\Binary\Client\PRTerrainLib\TextureSet.cpp
; File C:\Program Files\Microsoft Visual Studio\2022\Community\VC\Tools\MSVC\14.34.31933\include\xstring
; File C:\Program Files\Microsoft Visual Studio\2022\Community\VC\Tools\MSVC\14.34.31933\include\xtree
; File C:\Program Files\Microsoft Visual Studio\2022\Community\VC\Tools\MSVC\14.34.31933\include\xstddef
; File C:\Program Files\Microsoft Visual Studio\2022\Community\VC\Tools\MSVC\14.34.31933\include\xtree
; File C:\Program Files\Microsoft Visual Studio\2022\Community\VC\Tools\MSVC\14.34.31933\include\xstring
; File C:\Program Files\Microsoft Visual Studio\2022\Community\VC\Tools\MSVC\14.34.31933\include\xtree
; File C:\Program Files\Microsoft Visual Studio\2022\Community\VC\Tools\MSVC\14.34.31933\include\xstring
; File C:\Program Files\Microsoft Visual Studio\2022\Community\VC\Tools\MSVC\14.34.31933\include\xmemory
; File C:\Program Files\Microsoft Visual Studio\2022\Community\VC\Tools\MSVC\14.34.31933\include\xstring
; File C:\Program Files\Microsoft Visual Studio\2022\Community\VC\Tools\MSVC\14.34.31933\include\xmemory
; File C:\Users\Marian\Desktop\Aeldra\ProjectA-main\Binary\Client\PRTerrainLib\TextureSet.cpp
; File C:\Program Files\Microsoft Visual Studio\2022\Community\VC\Tools\MSVC\14.34.31933\include\xstring
; File C:\Program Files\Microsoft Visual Studio\2022\Community\VC\Tools\MSVC\14.34.31933\include\map
; File C:\Users\Marian\Desktop\Aeldra\ProjectA-main\Binary\Client\PRTerrainLib\TextureSet.cpp
; File C:\Program Files\Microsoft Visual Studio\2022\Community\VC\Tools\MSVC\14.34.31933\include\map
; File C:\Program Files\Microsoft Visual Studio\2022\Community\VC\Tools\MSVC\14.34.31933\include\xtree
; File C:\Program Files\Microsoft Visual Studio\2022\Community\VC\Tools\MSVC\14.34.31933\include\xstddef
; File C:\Program Files\Microsoft Visual Studio\2022\Community\VC\Tools\MSVC\14.34.31933\include\xtree
; File C:\Program Files\Microsoft Visual Studio\2022\Community\VC\Tools\MSVC\14.34.31933\include\map
; File C:\Program Files\Microsoft Visual Studio\2022\Community\VC\Tools\MSVC\14.34.31933\include\xtree
; File C:\Program Files\Microsoft Visual Studio\2022\Community\VC\Tools\MSVC\14.34.31933\include\map
; File C:\Program Files\Microsoft Visual Studio\2022\Community\VC\Tools\MSVC\14.34.31933\include\xmemory
; File C:\Program Files\Microsoft Visual Studio\2022\Community\VC\Tools\MSVC\14.34.31933\include\xtree
; File C:\Program Files\Microsoft Visual Studio\2022\Community\VC\Tools\MSVC\14.34.31933\include\xmemory
; File C:\Program Files\Microsoft Visual Studio\2022\Community\VC\Tools\MSVC\14.34.31933\include\utility
; File C:\Program Files\Microsoft Visual Studio\2022\Community\VC\Tools\MSVC\14.34.31933\include\xmemory
; File C:\Program Files\Microsoft Visual Studio\2022\Community\VC\Tools\MSVC\14.34.31933\include\map
; File C:\Program Files\Microsoft Visual Studio\2022\Community\VC\Tools\MSVC\14.34.31933\include\xstring
; File C:\Program Files\Microsoft Visual Studio\2022\Community\VC\Tools\MSVC\14.34.31933\include\map
; File C:\Program Files\Microsoft Visual Studio\2022\Community\VC\Tools\MSVC\14.34.31933\include\xstring
; File C:\Program Files\Microsoft Visual Studio\2022\Community\VC\Tools\MSVC\14.34.31933\include\map
; File C:\Program Files\Microsoft Visual Studio\2022\Community\VC\Tools\MSVC\14.34.31933\include\xstring
; File C:\Program Files\Microsoft Visual Studio\2022\Community\VC\Tools\MSVC\14.34.31933\include\vector
; File C:\Program Files\Microsoft Visual Studio\2022\Community\VC\Tools\MSVC\14.34.31933\include\xtree
; File C:\Program Files\Microsoft Visual Studio\2022\Community\VC\Tools\MSVC\14.34.31933\include\map
; File C:\Program Files\Microsoft Visual Studio\2022\Community\VC\Tools\MSVC\14.34.31933\include\xstring
; File C:\Users\Marian\Desktop\Aeldra\ProjectA-main\Binary\Client\PRTerrainLib\TextureSet.cpp
; File C:\Program Files\Microsoft Visual Studio\2022\Community\VC\Tools\MSVC\14.34.31933\include\xstring
; File C:\Program Files\Microsoft Visual Studio\2022\Community\VC\Tools\MSVC\14.34.31933\include\xmemory
; File C:\Program Files\Microsoft Visual Studio\2022\Community\VC\Tools\MSVC\14.34.31933\include\xstring
; File C:\Program Files\Microsoft Visual Studio\2022\Community\VC\Tools\MSVC\14.34.31933\include\xmemory
; File C:\Program Files\Microsoft Visual Studio\2022\Community\VC\Tools\MSVC\14.34.31933\include\xstring
; File C:\Program Files\Microsoft Visual Studio\2022\Community\VC\Tools\MSVC\14.34.31933\include\vector
; File C:\Users\Marian\Desktop\Aeldra\ProjectA-main\Binary\Client\PRTerrainLib\TextureSet.cpp
; File C:\Program Files\Microsoft Visual Studio\2022\Community\VC\Tools\MSVC\14.34.31933\include\xstring
; File C:\Program Files\Microsoft Visual Studio\2022\Community\VC\Tools\MSVC\14.34.31933\include\vector
; File C:\Users\Marian\Desktop\Aeldra\ProjectA-main\Binary\Client\PRTerrainLib\TextureSet.cpp
; File C:\Program Files\Microsoft Visual Studio\2022\Community\VC\Tools\MSVC\14.34.31933\include\xstring
; File C:\Program Files\Microsoft Visual Studio\2022\Community\VC\Tools\MSVC\14.34.31933\include\vector
; File C:\Users\Marian\Desktop\Aeldra\ProjectA-main\Binary\Client\PRTerrainLib\TextureSet.cpp
; File C:\Program Files\Microsoft Visual Studio\2022\Community\VC\Tools\MSVC\14.34.31933\include\xstring
; File C:\Program Files\Microsoft Visual Studio\2022\Community\VC\Tools\MSVC\14.34.31933\include\vector
; File C:\Users\Marian\Desktop\Aeldra\ProjectA-main\Binary\Client\PRTerrainLib\TextureSet.cpp
; File C:\Program Files\Microsoft Visual Studio\2022\Community\VC\Tools\MSVC\14.34.31933\include\xstring
; File C:\Program Files\Microsoft Visual Studio\2022\Community\VC\Tools\MSVC\14.34.31933\include\vector
; File C:\Users\Marian\Desktop\Aeldra\ProjectA-main\Binary\Client\PRTerrainLib\TextureSet.cpp
; File C:\Program Files\Microsoft Visual Studio\2022\Community\VC\Tools\MSVC\14.34.31933\include\xstring
; File C:\Program Files\Microsoft Visual Studio\2022\Community\VC\Tools\MSVC\14.34.31933\include\vector
; File C:\Users\Marian\Desktop\Aeldra\ProjectA-main\Binary\Client\PRTerrainLib\TextureSet.cpp
; File C:\Program Files\Microsoft Visual Studio\2022\Community\VC\Tools\MSVC\14.34.31933\include\xstring
; File C:\Program Files\Microsoft Visual Studio\2022\Community\VC\Tools\MSVC\14.34.31933\include\vector
; File C:\Users\Marian\Desktop\Aeldra\ProjectA-main\Binary\Client\PRTerrainLib\TextureSet.cpp
; File C:\Program Files\Microsoft Visual Studio\2022\Community\VC\Tools\MSVC\14.34.31933\include\xstring
; File C:\Users\Marian\Desktop\Aeldra\ProjectA-main\Binary\Client\PRTerrainLib\TextureSet.cpp
; File C:\Program Files\Microsoft Visual Studio\2022\Community\VC\Tools\MSVC\14.34.31933\include\xstring
; File C:\Users\Marian\Desktop\Aeldra\ProjectA-main\Binary\Client\PRTerrainLib\TextureSet.cpp
; File C:\Program Files\Microsoft Visual Studio\2022\Community\VC\Tools\MSVC\14.34.31933\include\xstring
; File C:\Users\Marian\Desktop\Aeldra\ProjectA-main\Binary\Client\PRTerrainLib\TextureSet.cpp
; File C:\Program Files\Microsoft Visual Studio\2022\Community\VC\Tools\MSVC\14.34.31933\include\xstring
; File C:\Users\Marian\Desktop\Aeldra\ProjectA-main\Binary\Client\PRTerrainLib\TextureSet.cpp
; File C:\Program Files\Microsoft Visual Studio\2022\Community\VC\Tools\MSVC\14.34.31933\include\xstring
; File C:\Users\Marian\Desktop\Aeldra\ProjectA-main\Binary\Client\PRTerrainLib\TextureSet.cpp
; File C:\Program Files\Microsoft Visual Studio\2022\Community\VC\Tools\MSVC\14.34.31933\include\xstring
; File C:\Users\Marian\Desktop\Aeldra\ProjectA-main\Binary\Client\PRTerrainLib\TextureSet.cpp
; File C:\Program Files\Microsoft Visual Studio\2022\Community\VC\Tools\MSVC\14.34.31933\include\xstring
; File C:\Users\Marian\Desktop\Aeldra\ProjectA-main\Binary\Client\PRTerrainLib\TextureSet.cpp
; File C:\Program Files\Microsoft Visual Studio\2022\Community\VC\Tools\MSVC\14.34.31933\include\xstring
; File C:\Users\Marian\Desktop\Aeldra\ProjectA-main\Binary\Client\PRTerrainLib\TextureSet.cpp
; File C:\Program Files\Microsoft Visual Studio\2022\Community\VC\Tools\MSVC\14.34.31933\include\xstring
; File C:\Users\Marian\Desktop\Aeldra\ProjectA-main\Binary\Client\PRTerrainLib\TextureSet.cpp
; File C:\Program Files\Microsoft Visual Studio\2022\Community\VC\Tools\MSVC\14.34.31933\include\xstring
; File C:\Users\Marian\Desktop\Aeldra\ProjectA-main\Binary\Client\PRTerrainLib\TextureSet.cpp
; File C:\Program Files\Microsoft Visual Studio\2022\Community\VC\Tools\MSVC\14.34.31933\include\xstring
; File C:\Users\Marian\Desktop\Aeldra\ProjectA-main\Binary\Client\PRTerrainLib\TextureSet.cpp
; File C:\Program Files\Microsoft Visual Studio\2022\Community\VC\Tools\MSVC\14.34.31933\include\xstring
; File C:\Users\Marian\Desktop\Aeldra\ProjectA-main\Binary\Client\PRTerrainLib\TextureSet.cpp
; File C:\Program Files\Microsoft Visual Studio\2022\Community\VC\Tools\MSVC\14.34.31933\include\xstring
; File C:\Users\Marian\Desktop\Aeldra\ProjectA-main\Binary\Client\PRTerrainLib\TextureSet.cpp
; File C:\Program Files\Microsoft Visual Studio\2022\Community\VC\Tools\MSVC\14.34.31933\include\xstring
; File C:\Users\Marian\Desktop\Aeldra\ProjectA-main\Binary\Client\PRTerrainLib\TextureSet.cpp
; File C:\Program Files\Microsoft Visual Studio\2022\Community\VC\Tools\MSVC\14.34.31933\include\xstring
; File C:\Users\Marian\Desktop\Aeldra\ProjectA-main\Binary\Client\PRTerrainLib\TextureSet.cpp
; File C:\Program Files\Microsoft Visual Studio\2022\Community\VC\Tools\MSVC\14.34.31933\include\xstring
; File C:\Users\Marian\Desktop\Aeldra\ProjectA-main\Binary\Client\PRTerrainLib\TextureSet.cpp
; File C:\Program Files\Microsoft Visual Studio\2022\Community\VC\Tools\MSVC\14.34.31933\include\xstring
; File C:\Users\Marian\Desktop\Aeldra\ProjectA-main\Binary\Client\PRTerrainLib\TextureSet.cpp
; File C:\Program Files\Microsoft Visual Studio\2022\Community\VC\Tools\MSVC\14.34.31933\include\xstring
; File C:\Program Files\Microsoft Visual Studio\2022\Community\VC\Tools\MSVC\14.34.31933\include\xmemory
; File C:\Program Files\Microsoft Visual Studio\2022\Community\VC\Tools\MSVC\14.34.31933\include\xstring
; File C:\Program Files\Microsoft Visual Studio\2022\Community\VC\Tools\MSVC\14.34.31933\include\xmemory
; File C:\Program Files\Microsoft Visual Studio\2022\Community\VC\Tools\MSVC\14.34.31933\include\xstring
; File C:\Users\Marian\Desktop\Aeldra\ProjectA-main\Binary\Client\PRTerrainLib\TextureSet.cpp
; File C:\Program Files\Microsoft Visual Studio\2022\Community\VC\Tools\MSVC\14.34.31933\include\xstring
; File C:\Program Files\Microsoft Visual Studio\2022\Community\VC\Tools\MSVC\14.34.31933\include\xmemory
; File C:\Program Files\Microsoft Visual Studio\2022\Community\VC\Tools\MSVC\14.34.31933\include\xstring
; File C:\Program Files\Microsoft Visual Studio\2022\Community\VC\Tools\MSVC\14.34.31933\include\xmemory
; File C:\Program Files\Microsoft Visual Studio\2022\Community\VC\Tools\MSVC\14.34.31933\include\xstring
; File C:\Users\Marian\Desktop\Aeldra\ProjectA-main\Binary\Client\PRTerrainLib\TextureSet.cpp
; File C:\Program Files\Microsoft Visual Studio\2022\Community\VC\Tools\MSVC\14.34.31933\include\xstring
; File C:\Program Files\Microsoft Visual Studio\2022\Community\VC\Tools\MSVC\14.34.31933\include\xmemory
; File C:\Program Files\Microsoft Visual Studio\2022\Community\VC\Tools\MSVC\14.34.31933\include\xstring
; File C:\Program Files\Microsoft Visual Studio\2022\Community\VC\Tools\MSVC\14.34.31933\include\xmemory
; File C:\Program Files\Microsoft Visual Studio\2022\Community\VC\Tools\MSVC\14.34.31933\include\xstring
; File C:\Users\Marian\Desktop\Aeldra\ProjectA-main\Binary\Client\PRTerrainLib\TextureSet.cpp
; File C:\Program Files\Microsoft Visual Studio\2022\Community\VC\Tools\MSVC\14.34.31933\include\xstring
; File C:\Program Files\Microsoft Visual Studio\2022\Community\VC\Tools\MSVC\14.34.31933\include\xmemory
; File C:\Program Files\Microsoft Visual Studio\2022\Community\VC\Tools\MSVC\14.34.31933\include\xstring
; File C:\Program Files\Microsoft Visual Studio\2022\Community\VC\Tools\MSVC\14.34.31933\include\xmemory
; File C:\Program Files\Microsoft Visual Studio\2022\Community\VC\Tools\MSVC\14.34.31933\include\xstring
; File C:\Users\Marian\Desktop\Aeldra\ProjectA-main\Binary\Client\PRTerrainLib\TextureSet.cpp
; File C:\Program Files\Microsoft Visual Studio\2022\Community\VC\Tools\MSVC\14.34.31933\include\xstring
; File C:\Program Files\Microsoft Visual Studio\2022\Community\VC\Tools\MSVC\14.34.31933\include\xmemory
; File C:\Program Files\Microsoft Visual Studio\2022\Community\VC\Tools\MSVC\14.34.31933\include\xstring
; File C:\Program Files\Microsoft Visual Studio\2022\Community\VC\Tools\MSVC\14.34.31933\include\xmemory
; File C:\Program Files\Microsoft Visual Studio\2022\Community\VC\Tools\MSVC\14.34.31933\include\xstring
; File C:\Users\Marian\Desktop\Aeldra\ProjectA-main\Binary\Client\PRTerrainLib\TextureSet.cpp
; File C:\Program Files\Microsoft Visual Studio\2022\Community\VC\Tools\MSVC\14.34.31933\include\xstring
; File C:\Program Files\Microsoft Visual Studio\2022\Community\VC\Tools\MSVC\14.34.31933\include\xmemory
; File C:\Program Files\Microsoft Visual Studio\2022\Community\VC\Tools\MSVC\14.34.31933\include\xstring
; File C:\Program Files\Microsoft Visual Studio\2022\Community\VC\Tools\MSVC\14.34.31933\include\xmemory
; File C:\Program Files\Microsoft Visual Studio\2022\Community\VC\Tools\MSVC\14.34.31933\include\xstring
; File C:\Users\Marian\Desktop\Aeldra\ProjectA-main\Binary\Client\PRTerrainLib\TextureSet.cpp
; File C:\Program Files\Microsoft Visual Studio\2022\Community\VC\Tools\MSVC\14.34.31933\include\xstring
; File C:\Program Files\Microsoft Visual Studio\2022\Community\VC\Tools\MSVC\14.34.31933\include\xmemory
; File C:\Program Files\Microsoft Visual Studio\2022\Community\VC\Tools\MSVC\14.34.31933\include\xstring
; File C:\Program Files\Microsoft Visual Studio\2022\Community\VC\Tools\MSVC\14.34.31933\include\xmemory
; File C:\Program Files\Microsoft Visual Studio\2022\Community\VC\Tools\MSVC\14.34.31933\include\xstring
; File C:\Users\Marian\Desktop\Aeldra\ProjectA-main\Binary\Client\PRTerrainLib\TextureSet.cpp
; File C:\Program Files\Microsoft Visual Studio\2022\Community\VC\Tools\MSVC\14.34.31933\include\xstring
; File C:\Program Files\Microsoft Visual Studio\2022\Community\VC\Tools\MSVC\14.34.31933\include\xmemory
; File C:\Program Files\Microsoft Visual Studio\2022\Community\VC\Tools\MSVC\14.34.31933\include\xstring
; File C:\Program Files\Microsoft Visual Studio\2022\Community\VC\Tools\MSVC\14.34.31933\include\xmemory
; File C:\Users\Marian\Desktop\Aeldra\ProjectA-main\Binary\Client\PRTerrainLib\TextureSet.cpp
; File C:\Program Files\Microsoft Visual Studio\2022\Community\VC\Tools\MSVC\14.34.31933\include\xstring
; File C:\Users\Marian\Desktop\Aeldra\ProjectA-main\Binary\Client\PRTerrainLib\TextureSet.cpp
; File C:\Program Files\Microsoft Visual Studio\2022\Community\VC\Tools\MSVC\14.34.31933\include\xstring
; File C:\Users\Marian\Desktop\Aeldra\ProjectA-main\Binary\Client\PRTerrainLib\TextureSet.cpp
; File C:\Program Files\Microsoft Visual Studio\2022\Community\VC\Tools\MSVC\14.34.31933\include\xstring
; File C:\Users\Marian\Desktop\Aeldra\ProjectA-main\Binary\Client\PRTerrainLib\TextureSet.cpp
; File C:\Program Files\Microsoft Visual Studio\2022\Community\VC\Tools\MSVC\14.34.31933\include\xtree
; File C:\Program Files\Microsoft Visual Studio\2022\Community\VC\Tools\MSVC\14.34.31933\include\xmemory
; File C:\Users\Marian\Desktop\Aeldra\ProjectA-main\Binary\Client\PRTerrainLib\TextureSet.cpp
; File C:\Program Files\Microsoft Visual Studio\2022\Community\VC\Tools\MSVC\14.34.31933\include\xmemory
; File C:\Users\Marian\Desktop\Aeldra\ProjectA-main\Binary\Client\PRTerrainLib\TextureSet.cpp
;	COMDAT ?Load@CTextureSet@@QAE_NPBDM@Z
_TEXT	SEGMENT
_i$1$ = -360						; size = 4
tv4905 = -356						; size = 4
_fuScale$2 = -352					; size = 4
_fvScale$3 = -348					; size = 4
_fuOffset$4 = -344					; size = 4
$T5 = -340						; size = 8
$T6 = -340						; size = 8
_lCount$1$ = -332					; size = 4
_stTokenVectorMap$2$ = -328				; size = 4
_fvOffset$7 = -328					; size = 4
__Loc$8 = -324						; size = 12
__Loc$9 = -324						; size = 12
__Loc$10 = -324						; size = 12
__Loc$11 = -324						; size = 12
__Oldsize$1$ = -312					; size = 4
_bSplat$12 = -312					; size = 1
_this$1$ = -308						; size = 4
_stTokenVectorMap$ = -304				; size = 8
$T13 = -293						; size = 1
$T14 = -293						; size = 1
_$S2$15 = -292						; size = 24
_$S3$16 = -268						; size = 24
_$S4$17 = -244						; size = 24
_$S5$18 = -220						; size = 24
_$S6$19 = -196						; size = 24
_$S7$20 = -172						; size = 24
_$S8$21 = -148						; size = 24
$T22 = -124						; size = 24
__Loc$23 = -112						; size = 12
$T24 = -100						; size = 24
$T25 = -100						; size = 24
_$S1$26 = -76						; size = 24
$T27 = -76						; size = 24
$T28 = -76						; size = 24
_szTextureName$ = -52					; size = 33
__$ArrayPad$ = -16					; size = 4
__$EHRec$ = -12						; size = 12
_c_szTextureSetFileName$ = 8				; size = 4
_fTerrainTexCoordBase$ = 12				; size = 4
?Load@CTextureSet@@QAE_NPBDM@Z PROC			; CTextureSet::Load, COMDAT
; _this$ = ecx

; 26   : {

  00000	55		 push	 ebp
  00001	8b ec		 mov	 ebp, esp
  00003	6a ff		 push	 -1
  00005	68 00 00 00 00	 push	 __ehhandler$?Load@CTextureSet@@QAE_NPBDM@Z
  0000a	64 a1 00 00 00
	00		 mov	 eax, DWORD PTR fs:0
  00010	50		 push	 eax
  00011	81 ec 5c 01 00
	00		 sub	 esp, 348		; 0000015cH
  00017	a1 00 00 00 00	 mov	 eax, DWORD PTR ___security_cookie
  0001c	33 c5		 xor	 eax, ebp
  0001e	89 45 f0	 mov	 DWORD PTR __$ArrayPad$[ebp], eax
  00021	53		 push	 ebx
  00022	56		 push	 esi
  00023	57		 push	 edi
  00024	50		 push	 eax
  00025	8d 45 f4	 lea	 eax, DWORD PTR __$EHRec$[ebp]
  00028	64 a3 00 00 00
	00		 mov	 DWORD PTR fs:0, eax
  0002e	89 8d cc fe ff
	ff		 mov	 DWORD PTR _this$1$[ebp], ecx

; 27   : 	NANOBEGIN

  00034	eb		 DB	 -21			; ffffffebH
  00035	03		 DB	 3
  00036	d6		 DB	 -42			; ffffffd6H
  00037	d7		 DB	 -41			; ffffffd7H
  00038	01		 DB	 1
  00039	8b 8d cc fe ff
	ff		 mov	 ecx, DWORD PTR _this$1$[ebp]
  0003f	e8 00 00 00 00	 call	 ?Clear@CTextureSet@@QAEXXZ ; CTextureSet::Clear
; File C:\Program Files\Microsoft Visual Studio\2022\Community\VC\Tools\MSVC\14.34.31933\include\xmemory

; 77   :         return ::operator new(_Bytes);

  00044	6a 34		 push	 52			; 00000034H
; File C:\Program Files\Microsoft Visual Studio\2022\Community\VC\Tools\MSVC\14.34.31933\include\xtree

; 437  :     _Tree_val() noexcept : _Myhead(), _Mysize(0) {}

  00046	c7 85 d0 fe ff
	ff 00 00 00 00	 mov	 DWORD PTR _stTokenVectorMap$[ebp], 0
  00050	c7 85 d4 fe ff
	ff 00 00 00 00	 mov	 DWORD PTR _stTokenVectorMap$[ebp+4], 0
; File C:\Program Files\Microsoft Visual Studio\2022\Community\VC\Tools\MSVC\14.34.31933\include\xmemory

; 77   :         return ::operator new(_Bytes);

  0005a	e8 00 00 00 00	 call	 ??2@YAPAXI@Z		; operator new
; File C:\Program Files\Microsoft Visual Studio\2022\Community\VC\Tools\MSVC\14.34.31933\include\xtree

; 347  :         _Construct_in_place(_Pnode->_Left, _Pnode);

  0005f	89 00		 mov	 DWORD PTR [eax], eax

; 348  :         _Construct_in_place(_Pnode->_Parent, _Pnode);

  00061	89 40 04	 mov	 DWORD PTR [eax+4], eax

; 349  :         _Construct_in_place(_Pnode->_Right, _Pnode);

  00064	89 40 08	 mov	 DWORD PTR [eax+8], eax

; 350  :         _Pnode->_Color = _Black;

  00067	66 c7 40 0c 01
	01		 mov	 WORD PTR [eax+12], 257	; 00000101H

; 1941 :         _Scary->_Myhead = _Node::_Buyheadnode(_Getal());

  0006d	89 85 d0 fe ff
	ff		 mov	 DWORD PTR _stTokenVectorMap$[ebp], eax
; File C:\Users\Marian\Desktop\Aeldra\ProjectA-main\Binary\Client\PRTerrainLib\TextureSet.cpp

; 32   : 	if (!LoadMultipleTextData(c_szTextureSetFileName, stTokenVectorMap))

  00073	8d 85 d0 fe ff
	ff		 lea	 eax, DWORD PTR _stTokenVectorMap$[ebp]
  00079	c7 45 fc 00 00
	00 00		 mov	 DWORD PTR __$EHRec$[ebp+8], 0
  00080	50		 push	 eax
  00081	ff 75 08	 push	 DWORD PTR _c_szTextureSetFileName$[ebp]
  00084	e8 00 00 00 00	 call	 ?LoadMultipleTextData@@YA_NPBDAAV?$map@V?$basic_string@DU?$char_traits@D@std@@V?$allocator@D@2@@std@@V?$vector@V?$basic_string@DU?$char_traits@D@std@@V?$allocator@D@2@@std@@V?$allocator@V?$basic_string@DU?$char_traits@D@std@@V?$allocator@D@2@@std@@@2@@2@U?$less@V?$basic_string@DU?$char_traits@D@std@@V?$allocator@D@2@@std@@@2@V?$allocator@U?$pair@$$CBV?$basic_string@DU?$char_traits@D@std@@V?$allocator@D@2@@std@@V?$vector@V?$basic_string@DU?$char_traits@D@std@@V?$allocator@D@2@@std@@V?$allocator@V?$basic_string@DU?$char_traits@D@std@@V?$allocator@D@2@@std@@@2@@2@@std@@@2@@std@@@Z ; LoadMultipleTextData
  00089	83 c4 0c	 add	 esp, 12			; 0000000cH
  0008c	84 c0		 test	 al, al
  0008e	75 0a		 jne	 SHORT $LN5@Load

; 33   : 	{
; 34   : 		TraceError("TextureSet::Load : cannot load %s", c_szTextureSetFileName);

  00090	b8 00 00 00 00	 mov	 eax, OFFSET ??_C@_0CC@NFEEIIKK@TextureSet?3?3Load?5?3?5cannot?5load?5@
  00095	e9 0d 01 00 00	 jmp	 $LN28@Load
$LN5@Load:
; File C:\Program Files\Microsoft Visual Studio\2022\Community\VC\Tools\MSVC\14.34.31933\include\xstring

; 117  :         _CSTD memmove(_First1, _First2, _Count * sizeof(_Elem));

  0009a	66 a1 08 00 00
	00		 mov	 ax, WORD PTR ??_C@_0L@FLIBEPMB@textureset@+8
; File C:\Program Files\Microsoft Visual Studio\2022\Community\VC\Tools\MSVC\14.34.31933\include\xtree

; 1367 :         const _Tree_find_result<_Nodeptr> _Loc = _Find_lower_bound(_Keyval);

  000a0	8d 8d d0 fe ff
	ff		 lea	 ecx, DWORD PTR _stTokenVectorMap$[ebp]
  000a6	0f 57 c0	 xorps	 xmm0, xmm0
; File C:\Program Files\Microsoft Visual Studio\2022\Community\VC\Tools\MSVC\14.34.31933\include\xstring

; 2749 :             _My_data._Mysize = _Count;

  000a9	c7 45 c4 0a 00
	00 00		 mov	 DWORD PTR $T28[ebp+16], 10 ; 0000000aH

; 2341 :         _CONSTEXPR20 _Bxty() noexcept : _Buf() {} // user-provided, for fancy pointers

  000b0	0f 11 45 b4	 movups	 XMMWORD PTR $T28[ebp], xmm0

; 117  :         _CSTD memmove(_First1, _First2, _Count * sizeof(_Elem));

  000b4	66 89 45 bc	 mov	 WORD PTR $T28[ebp+8], ax
; File C:\Program Files\Microsoft Visual Studio\2022\Community\VC\Tools\MSVC\14.34.31933\include\xtree

; 1367 :         const _Tree_find_result<_Nodeptr> _Loc = _Find_lower_bound(_Keyval);

  000b8	8d 45 b4	 lea	 eax, DWORD PTR $T28[ebp]
; File C:\Program Files\Microsoft Visual Studio\2022\Community\VC\Tools\MSVC\14.34.31933\include\xstring

; 117  :         _CSTD memmove(_First1, _First2, _Count * sizeof(_Elem));

  000bb	f3 0f 7e 05 00
	00 00 00	 movq	 xmm0, QWORD PTR ??_C@_0L@FLIBEPMB@textureset@
; File C:\Program Files\Microsoft Visual Studio\2022\Community\VC\Tools\MSVC\14.34.31933\include\xtree

; 1367 :         const _Tree_find_result<_Nodeptr> _Loc = _Find_lower_bound(_Keyval);

  000c3	50		 push	 eax
  000c4	8d 85 bc fe ff
	ff		 lea	 eax, DWORD PTR __Loc$11[ebp]
; File C:\Program Files\Microsoft Visual Studio\2022\Community\VC\Tools\MSVC\14.34.31933\include\xstring

; 2750 :             _My_data._Myres  = _BUF_SIZE - 1;

  000ca	c7 45 c8 0f 00
	00 00		 mov	 DWORD PTR $T28[ebp+20], 15 ; 0000000fH
; File C:\Program Files\Microsoft Visual Studio\2022\Community\VC\Tools\MSVC\14.34.31933\include\xtree

; 1367 :         const _Tree_find_result<_Nodeptr> _Loc = _Find_lower_bound(_Keyval);

  000d1	50		 push	 eax
; File C:\Program Files\Microsoft Visual Studio\2022\Community\VC\Tools\MSVC\14.34.31933\include\xstring

; 117  :         _CSTD memmove(_First1, _First2, _Count * sizeof(_Elem));

  000d2	66 0f d6 45 b4	 movq	 QWORD PTR $T28[ebp], xmm0

; 2756 :                 _Traits::assign(_My_data._Bx._Buf[_Count], _Elem());

  000d7	c6 45 be 00	 mov	 BYTE PTR $T28[ebp+10], 0
; File C:\Program Files\Microsoft Visual Studio\2022\Community\VC\Tools\MSVC\14.34.31933\include\xtree

; 1367 :         const _Tree_find_result<_Nodeptr> _Loc = _Find_lower_bound(_Keyval);

  000db	e8 00 00 00 00	 call	 ??$_Find_lower_bound@V?$basic_string@DU?$char_traits@D@std@@V?$allocator@D@2@@std@@@?$_Tree@V?$_Tmap_traits@V?$basic_string@DU?$char_traits@D@std@@V?$allocator@D@2@@std@@V?$vector@V?$basic_string@DU?$char_traits@D@std@@V?$allocator@D@2@@std@@V?$allocator@V?$basic_string@DU?$char_traits@D@std@@V?$allocator@D@2@@std@@@2@@2@U?$less@V?$basic_string@DU?$char_traits@D@std@@V?$allocator@D@2@@std@@@2@V?$allocator@U?$pair@$$CBV?$basic_string@DU?$char_traits@D@std@@V?$allocator@D@2@@std@@V?$vector@V?$basic_string@DU?$char_traits@D@std@@V?$allocator@D@2@@std@@V?$allocator@V?$basic_string@DU?$char_traits@D@std@@V?$allocator@D@2@@std@@@2@@2@@std@@@2@$0A@@std@@@std@@IBE?AU?$_Tree_find_result@PAU?$_Tree_node@U?$pair@$$CBV?$basic_string@DU?$char_traits@D@std@@V?$allocator@D@2@@std@@V?$vector@V?$basic_string@DU?$char_traits@D@std@@V?$allocator@D@2@@std@@V?$allocator@V?$basic_string@DU?$char_traits@D@std@@V?$allocator@D@2@@std@@@2@@2@@std@@PAX@std@@@1@ABV?$basic_string@DU?$char_traits@D@std@@V?$allocator@D@2@@1@@Z ; std::_Tree<std::_Tmap_traits<std::basic_string<char,std::char_traits<char>,std::allocator<char> >,std::vector<std::basic_string<char,std::char_traits<char>,std::allocator<char> >,std::allocator<std::basic_string<char,std::char_traits<char>,std::allocator<char> > > >,std::less<std::basic_string<char,std::char_traits<char>,std::allocator<char> > >,std::allocator<std::pair<std::basic_string<char,std::char_traits<char>,std::allocator<char> > const ,std::vector<std::basic_string<char,std::char_traits<char>,std::allocator<char> >,std::allocator<std::basic_string<char,std::char_traits<char>,std::allocator<char> > > > > >,0> >::_Find_lower_bound<std::basic_string<char,std::char_traits<char>,std::allocator<char> > >

; 1605 :         return !_Bound->_Isnil && !_DEBUG_LT_PRED(_Getcomp(), _Keyval, _Traits::_Kfn(_Bound->_Myval));

  000e0	8b b5 c4 fe ff
	ff		 mov	 esi, DWORD PTR __Loc$11[ebp+8]
  000e6	80 7e 0d 00	 cmp	 BYTE PTR [esi+13], 0
  000ea	75 18		 jne	 SHORT $LN206@Load
  000ec	8d 46 10	 lea	 eax, DWORD PTR [esi+16]
; File C:\Program Files\Microsoft Visual Studio\2022\Community\VC\Tools\MSVC\14.34.31933\include\xstddef

; 143  :         return _Left < _Right;

  000ef	50		 push	 eax
  000f0	8d 45 b4	 lea	 eax, DWORD PTR $T28[ebp]
  000f3	50		 push	 eax
  000f4	e8 00 00 00 00	 call	 ??$?MDU?$char_traits@D@std@@V?$allocator@D@1@@std@@YA_NABV?$basic_string@DU?$char_traits@D@std@@V?$allocator@D@2@@0@0@Z ; std::operator<<char,std::char_traits<char>,std::allocator<char> >
  000f9	83 c4 08	 add	 esp, 8
; File C:\Program Files\Microsoft Visual Studio\2022\Community\VC\Tools\MSVC\14.34.31933\include\xtree

; 1605 :         return !_Bound->_Isnil && !_DEBUG_LT_PRED(_Getcomp(), _Keyval, _Traits::_Kfn(_Bound->_Myval));

  000fc	84 c0		 test	 al, al
  000fe	75 04		 jne	 SHORT $LN206@Load
  00100	b1 01		 mov	 cl, 1
  00102	eb 02		 jmp	 SHORT $LN207@Load
$LN206@Load:
  00104	32 c9		 xor	 cl, cl
$LN207@Load:

; 1368 :         if (_Lower_bound_duplicate(_Loc._Bound, _Keyval)) {

  00106	8b bd d0 fe ff
	ff		 mov	 edi, DWORD PTR _stTokenVectorMap$[ebp]
  0010c	84 c9		 test	 cl, cl
  0010e	8b c7		 mov	 eax, edi
  00110	0f 45 c6	 cmovne	 eax, esi
; File C:\Users\Marian\Desktop\Aeldra\ProjectA-main\Binary\Client\PRTerrainLib\TextureSet.cpp

; 38   : 	if (stTokenVectorMap.end() == stTokenVectorMap.find("textureset"))

  00113	3b f8		 cmp	 edi, eax
  00115	75 0a		 jne	 SHORT $LN6@Load

; 39   : 	{
; 40   : 		TraceError("TextureSet::Load : syntax error, TextureSet (filename: %s)", c_szTextureSetFileName);
; 41   : 		return false;

  00117	b8 00 00 00 00	 mov	 eax, OFFSET ??_C@_0DL@HIELGKBC@TextureSet?3?3Load?5?3?5syntax?5error@
  0011c	e9 86 00 00 00	 jmp	 $LN28@Load
$LN6@Load:
; File C:\Program Files\Microsoft Visual Studio\2022\Community\VC\Tools\MSVC\14.34.31933\include\xstring

; 117  :         _CSTD memmove(_First1, _First2, _Count * sizeof(_Elem));

  00121	a1 08 00 00 00	 mov	 eax, DWORD PTR ??_C@_0N@MMECMGAI@texturecount@+8
; File C:\Program Files\Microsoft Visual Studio\2022\Community\VC\Tools\MSVC\14.34.31933\include\xtree

; 1367 :         const _Tree_find_result<_Nodeptr> _Loc = _Find_lower_bound(_Keyval);

  00126	8d 8d d0 fe ff
	ff		 lea	 ecx, DWORD PTR _stTokenVectorMap$[ebp]
  0012c	0f 57 c0	 xorps	 xmm0, xmm0
; File C:\Program Files\Microsoft Visual Studio\2022\Community\VC\Tools\MSVC\14.34.31933\include\xstring

; 2749 :             _My_data._Mysize = _Count;

  0012f	c7 45 c4 0c 00
	00 00		 mov	 DWORD PTR $T27[ebp+16], 12 ; 0000000cH

; 2341 :         _CONSTEXPR20 _Bxty() noexcept : _Buf() {} // user-provided, for fancy pointers

  00136	0f 11 45 b4	 movups	 XMMWORD PTR $T27[ebp], xmm0

; 117  :         _CSTD memmove(_First1, _First2, _Count * sizeof(_Elem));

  0013a	89 45 bc	 mov	 DWORD PTR $T27[ebp+8], eax
; File C:\Program Files\Microsoft Visual Studio\2022\Community\VC\Tools\MSVC\14.34.31933\include\xtree

; 1367 :         const _Tree_find_result<_Nodeptr> _Loc = _Find_lower_bound(_Keyval);

  0013d	8d 45 b4	 lea	 eax, DWORD PTR $T27[ebp]
; File C:\Program Files\Microsoft Visual Studio\2022\Community\VC\Tools\MSVC\14.34.31933\include\xstring

; 117  :         _CSTD memmove(_First1, _First2, _Count * sizeof(_Elem));

  00140	f3 0f 7e 05 00
	00 00 00	 movq	 xmm0, QWORD PTR ??_C@_0N@MMECMGAI@texturecount@
; File C:\Program Files\Microsoft Visual Studio\2022\Community\VC\Tools\MSVC\14.34.31933\include\xtree

; 1367 :         const _Tree_find_result<_Nodeptr> _Loc = _Find_lower_bound(_Keyval);

  00148	50		 push	 eax
  00149	8d 85 bc fe ff
	ff		 lea	 eax, DWORD PTR __Loc$9[ebp]
; File C:\Program Files\Microsoft Visual Studio\2022\Community\VC\Tools\MSVC\14.34.31933\include\xstring

; 2750 :             _My_data._Myres  = _BUF_SIZE - 1;

  0014f	c7 45 c8 0f 00
	00 00		 mov	 DWORD PTR $T27[ebp+20], 15 ; 0000000fH
; File C:\Program Files\Microsoft Visual Studio\2022\Community\VC\Tools\MSVC\14.34.31933\include\xtree

; 1367 :         const _Tree_find_result<_Nodeptr> _Loc = _Find_lower_bound(_Keyval);

  00156	50		 push	 eax
; File C:\Program Files\Microsoft Visual Studio\2022\Community\VC\Tools\MSVC\14.34.31933\include\xstring

; 117  :         _CSTD memmove(_First1, _First2, _Count * sizeof(_Elem));

  00157	66 0f d6 45 b4	 movq	 QWORD PTR $T27[ebp], xmm0

; 2756 :                 _Traits::assign(_My_data._Bx._Buf[_Count], _Elem());

  0015c	c6 45 c0 00	 mov	 BYTE PTR $T27[ebp+12], 0
; File C:\Program Files\Microsoft Visual Studio\2022\Community\VC\Tools\MSVC\14.34.31933\include\xtree

; 1367 :         const _Tree_find_result<_Nodeptr> _Loc = _Find_lower_bound(_Keyval);

  00160	e8 00 00 00 00	 call	 ??$_Find_lower_bound@V?$basic_string@DU?$char_traits@D@std@@V?$allocator@D@2@@std@@@?$_Tree@V?$_Tmap_traits@V?$basic_string@DU?$char_traits@D@std@@V?$allocator@D@2@@std@@V?$vector@V?$basic_string@DU?$char_traits@D@std@@V?$allocator@D@2@@std@@V?$allocator@V?$basic_string@DU?$char_traits@D@std@@V?$allocator@D@2@@std@@@2@@2@U?$less@V?$basic_string@DU?$char_traits@D@std@@V?$allocator@D@2@@std@@@2@V?$allocator@U?$pair@$$CBV?$basic_string@DU?$char_traits@D@std@@V?$allocator@D@2@@std@@V?$vector@V?$basic_string@DU?$char_traits@D@std@@V?$allocator@D@2@@std@@V?$allocator@V?$basic_string@DU?$char_traits@D@std@@V?$allocator@D@2@@std@@@2@@2@@std@@@2@$0A@@std@@@std@@IBE?AU?$_Tree_find_result@PAU?$_Tree_node@U?$pair@$$CBV?$basic_string@DU?$char_traits@D@std@@V?$allocator@D@2@@std@@V?$vector@V?$basic_string@DU?$char_traits@D@std@@V?$allocator@D@2@@std@@V?$allocator@V?$basic_string@DU?$char_traits@D@std@@V?$allocator@D@2@@std@@@2@@2@@std@@PAX@std@@@1@ABV?$basic_string@DU?$char_traits@D@std@@V?$allocator@D@2@@1@@Z ; std::_Tree<std::_Tmap_traits<std::basic_string<char,std::char_traits<char>,std::allocator<char> >,std::vector<std::basic_string<char,std::char_traits<char>,std::allocator<char> >,std::allocator<std::basic_string<char,std::char_traits<char>,std::allocator<char> > > >,std::less<std::basic_string<char,std::char_traits<char>,std::allocator<char> > >,std::allocator<std::pair<std::basic_string<char,std::char_traits<char>,std::allocator<char> > const ,std::vector<std::basic_string<char,std::char_traits<char>,std::allocator<char> >,std::allocator<std::basic_string<char,std::char_traits<char>,std::allocator<char> > > > > >,0> >::_Find_lower_bound<std::basic_string<char,std::char_traits<char>,std::allocator<char> > >

; 1605 :         return !_Bound->_Isnil && !_DEBUG_LT_PRED(_Getcomp(), _Keyval, _Traits::_Kfn(_Bound->_Myval));

  00165	8b 85 c4 fe ff
	ff		 mov	 eax, DWORD PTR __Loc$9[ebp+8]
  0016b	80 78 0d 00	 cmp	 BYTE PTR [eax+13], 0
  0016f	75 18		 jne	 SHORT $LN866@Load
  00171	83 c0 10	 add	 eax, 16			; 00000010H
; File C:\Program Files\Microsoft Visual Studio\2022\Community\VC\Tools\MSVC\14.34.31933\include\xstddef

; 143  :         return _Left < _Right;

  00174	50		 push	 eax
  00175	8d 45 b4	 lea	 eax, DWORD PTR $T27[ebp]
  00178	50		 push	 eax
  00179	e8 00 00 00 00	 call	 ??$?MDU?$char_traits@D@std@@V?$allocator@D@1@@std@@YA_NABV?$basic_string@DU?$char_traits@D@std@@V?$allocator@D@2@@0@0@Z ; std::operator<<char,std::char_traits<char>,std::allocator<char> >
  0017e	83 c4 08	 add	 esp, 8
; File C:\Program Files\Microsoft Visual Studio\2022\Community\VC\Tools\MSVC\14.34.31933\include\xtree

; 1605 :         return !_Bound->_Isnil && !_DEBUG_LT_PRED(_Getcomp(), _Keyval, _Traits::_Kfn(_Bound->_Myval));

  00181	84 c0		 test	 al, al
  00183	75 04		 jne	 SHORT $LN866@Load
  00185	b0 01		 mov	 al, 1
  00187	eb 02		 jmp	 SHORT $LN867@Load
$LN866@Load:
  00189	32 c0		 xor	 al, al
$LN867@Load:

; 1368 :         if (_Lower_bound_duplicate(_Loc._Bound, _Keyval)) {

  0018b	84 c0		 test	 al, al
; File C:\Users\Marian\Desktop\Aeldra\ProjectA-main\Binary\Client\PRTerrainLib\TextureSet.cpp

; 44   : 	if (stTokenVectorMap.end() == stTokenVectorMap.find("texturecount"))

  0018d	8d 4d b4	 lea	 ecx, DWORD PTR $T27[ebp]
; File C:\Program Files\Microsoft Visual Studio\2022\Community\VC\Tools\MSVC\14.34.31933\include\xtree

; 1368 :         if (_Lower_bound_duplicate(_Loc._Bound, _Keyval)) {

  00190	8b f7		 mov	 esi, edi
  00192	0f 45 b5 c4 fe
	ff ff		 cmovne	 esi, DWORD PTR __Loc$9[ebp+8]
; File C:\Users\Marian\Desktop\Aeldra\ProjectA-main\Binary\Client\PRTerrainLib\TextureSet.cpp

; 44   : 	if (stTokenVectorMap.end() == stTokenVectorMap.find("texturecount"))

  00199	e8 00 00 00 00	 call	 ??1?$basic_string@DU?$char_traits@D@std@@V?$allocator@D@2@@std@@QAE@XZ ; std::basic_string<char,std::char_traits<char>,std::allocator<char> >::~basic_string<char,std::char_traits<char>,std::allocator<char> >
  0019e	3b fe		 cmp	 edi, esi
  001a0	75 1e		 jne	 SHORT $LN7@Load

; 45   : 	{
; 46   : 		TraceError("TextureSet::Load : syntax error, TextureCount (filename: %s)", c_szTextureSetFileName);
; 47   : 		return false;

  001a2	b8 00 00 00 00	 mov	 eax, OFFSET ??_C@_0DN@FCLAEMJC@TextureSet?3?3Load?5?3?5syntax?5error@
$LN28@Load:
  001a7	8b 75 08	 mov	 esi, DWORD PTR _c_szTextureSetFileName$[ebp]
  001aa	56		 push	 esi
  001ab	50		 push	 eax
  001ac	e8 00 00 00 00	 call	 ?TraceError@@YAXPBDZZ	; TraceError
  001b1	83 c4 08	 add	 esp, 8
  001b4	c6 85 db fe ff
	ff 00		 mov	 BYTE PTR $T13[ebp], 0
  001bb	e9 4f 0b 00 00	 jmp	 $LN29@Load
$LN7@Load:

; 48   : 	}
; 49   : 
; 50   : 	Create();

  001c0	8b 8d cc fe ff
	ff		 mov	 ecx, DWORD PTR _this$1$[ebp]
  001c6	e8 00 00 00 00	 call	 ?Create@CTextureSet@@QAEXXZ ; CTextureSet::Create
; File C:\Program Files\Microsoft Visual Studio\2022\Community\VC\Tools\MSVC\14.34.31933\include\xstring

; 117  :         _CSTD memmove(_First1, _First2, _Count * sizeof(_Elem));

  001cb	a1 08 00 00 00	 mov	 eax, DWORD PTR ??_C@_0N@MMECMGAI@texturecount@+8
  001d0	0f 57 c0	 xorps	 xmm0, xmm0

; 2341 :         _CONSTEXPR20 _Bxty() noexcept : _Buf() {} // user-provided, for fancy pointers

  001d3	0f 11 45 84	 movups	 XMMWORD PTR $T22[ebp], xmm0

; 2750 :             _My_data._Myres  = _BUF_SIZE - 1;

  001d7	bf 0f 00 00 00	 mov	 edi, 15			; 0000000fH
  001dc	c7 45 94 0c 00
	00 00		 mov	 DWORD PTR $T22[ebp+16], 12 ; 0000000cH

; 117  :         _CSTD memmove(_First1, _First2, _Count * sizeof(_Elem));

  001e3	f3 0f 7e 05 00
	00 00 00	 movq	 xmm0, QWORD PTR ??_C@_0N@MMECMGAI@texturecount@

; 2750 :             _My_data._Myres  = _BUF_SIZE - 1;

  001eb	89 7d 98	 mov	 DWORD PTR $T22[ebp+20], edi

; 117  :         _CSTD memmove(_First1, _First2, _Count * sizeof(_Elem));

  001ee	66 0f d6 45 84	 movq	 QWORD PTR $T22[ebp], xmm0
  001f3	89 45 8c	 mov	 DWORD PTR $T22[ebp+8], eax

; 2756 :                 _Traits::assign(_My_data._Bx._Buf[_Count], _Elem());

  001f6	c6 45 90 00	 mov	 BYTE PTR $T22[ebp+12], 0
; File C:\Program Files\Microsoft Visual Studio\2022\Community\VC\Tools\MSVC\14.34.31933\include\map

; 196  :         const auto _Loc = _Mybase::_Find_lower_bound(_Keyval);

  001fa	8d 45 84	 lea	 eax, DWORD PTR $T22[ebp]
; File C:\Users\Marian\Desktop\Aeldra\ProjectA-main\Binary\Client\PRTerrainLib\TextureSet.cpp

; 52   : 	const std::string & c_rstrCount = stTokenVectorMap["texturecount"][0];

  001fd	c6 45 fc 01	 mov	 BYTE PTR __$EHRec$[ebp+8], 1
; File C:\Program Files\Microsoft Visual Studio\2022\Community\VC\Tools\MSVC\14.34.31933\include\map

; 196  :         const auto _Loc = _Mybase::_Find_lower_bound(_Keyval);

  00201	50		 push	 eax
  00202	8d 85 bc fe ff
	ff		 lea	 eax, DWORD PTR __Loc$8[ebp]
  00208	50		 push	 eax
  00209	8d 8d d0 fe ff
	ff		 lea	 ecx, DWORD PTR _stTokenVectorMap$[ebp]
  0020f	e8 00 00 00 00	 call	 ??$_Find_lower_bound@V?$basic_string@DU?$char_traits@D@std@@V?$allocator@D@2@@std@@@?$_Tree@V?$_Tmap_traits@V?$basic_string@DU?$char_traits@D@std@@V?$allocator@D@2@@std@@V?$vector@V?$basic_string@DU?$char_traits@D@std@@V?$allocator@D@2@@std@@V?$allocator@V?$basic_string@DU?$char_traits@D@std@@V?$allocator@D@2@@std@@@2@@2@U?$less@V?$basic_string@DU?$char_traits@D@std@@V?$allocator@D@2@@std@@@2@V?$allocator@U?$pair@$$CBV?$basic_string@DU?$char_traits@D@std@@V?$allocator@D@2@@std@@V?$vector@V?$basic_string@DU?$char_traits@D@std@@V?$allocator@D@2@@std@@V?$allocator@V?$basic_string@DU?$char_traits@D@std@@V?$allocator@D@2@@std@@@2@@2@@std@@@2@$0A@@std@@@std@@IBE?AU?$_Tree_find_result@PAU?$_Tree_node@U?$pair@$$CBV?$basic_string@DU?$char_traits@D@std@@V?$allocator@D@2@@std@@V?$vector@V?$basic_string@DU?$char_traits@D@std@@V?$allocator@D@2@@std@@V?$allocator@V?$basic_string@DU?$char_traits@D@std@@V?$allocator@D@2@@std@@@2@@2@@std@@PAX@std@@@1@ABV?$basic_string@DU?$char_traits@D@std@@V?$allocator@D@2@@1@@Z ; std::_Tree<std::_Tmap_traits<std::basic_string<char,std::char_traits<char>,std::allocator<char> >,std::vector<std::basic_string<char,std::char_traits<char>,std::allocator<char> >,std::allocator<std::basic_string<char,std::char_traits<char>,std::allocator<char> > > >,std::less<std::basic_string<char,std::char_traits<char>,std::allocator<char> > >,std::allocator<std::pair<std::basic_string<char,std::char_traits<char>,std::allocator<char> > const ,std::vector<std::basic_string<char,std::char_traits<char>,std::allocator<char> >,std::allocator<std::basic_string<char,std::char_traits<char>,std::allocator<char> > > > > >,0> >::_Find_lower_bound<std::basic_string<char,std::char_traits<char>,std::allocator<char> > >
; File C:\Program Files\Microsoft Visual Studio\2022\Community\VC\Tools\MSVC\14.34.31933\include\xtree

; 1605 :         return !_Bound->_Isnil && !_DEBUG_LT_PRED(_Getcomp(), _Keyval, _Traits::_Kfn(_Bound->_Myval));

  00214	8b b5 c4 fe ff
	ff		 mov	 esi, DWORD PTR __Loc$8[ebp+8]
  0021a	80 7e 0d 00	 cmp	 BYTE PTR [esi+13], 0
  0021e	75 18		 jne	 SHORT $LN975@Load
  00220	8d 46 10	 lea	 eax, DWORD PTR [esi+16]
; File C:\Program Files\Microsoft Visual Studio\2022\Community\VC\Tools\MSVC\14.34.31933\include\xstddef

; 143  :         return _Left < _Right;

  00223	50		 push	 eax
  00224	8d 45 84	 lea	 eax, DWORD PTR $T22[ebp]
  00227	50		 push	 eax
  00228	e8 00 00 00 00	 call	 ??$?MDU?$char_traits@D@std@@V?$allocator@D@1@@std@@YA_NABV?$basic_string@DU?$char_traits@D@std@@V?$allocator@D@2@@0@0@Z ; std::operator<<char,std::char_traits<char>,std::allocator<char> >
  0022d	83 c4 08	 add	 esp, 8
; File C:\Program Files\Microsoft Visual Studio\2022\Community\VC\Tools\MSVC\14.34.31933\include\xtree

; 1605 :         return !_Bound->_Isnil && !_DEBUG_LT_PRED(_Getcomp(), _Keyval, _Traits::_Kfn(_Bound->_Myval));

  00230	84 c0		 test	 al, al
  00232	75 04		 jne	 SHORT $LN975@Load
  00234	b0 01		 mov	 al, 1
  00236	eb 02		 jmp	 SHORT $LN976@Load
$LN975@Load:
  00238	32 c0		 xor	 al, al
$LN976@Load:
; File C:\Program Files\Microsoft Visual Studio\2022\Community\VC\Tools\MSVC\14.34.31933\include\map

; 197  :         if (_Mybase::_Lower_bound_duplicate(_Loc._Bound, _Keyval)) {

  0023a	84 c0		 test	 al, al
  0023c	0f 85 b3 00 00
	00		 jne	 $LN969@Load
; File C:\Program Files\Microsoft Visual Studio\2022\Community\VC\Tools\MSVC\14.34.31933\include\xtree

; 1629 :         if (max_size() == _Get_scary()->_Mysize) {

  00242	81 bd d4 fe ff
	ff c4 4e ec 04	 cmp	 DWORD PTR _stTokenVectorMap$[ebp+4], 82595524 ; 04ec4ec4H
  0024c	0f 84 08 0b 00
	00		 je	 $LN1138@Load
; File C:\Program Files\Microsoft Visual Studio\2022\Community\VC\Tools\MSVC\14.34.31933\include\map

; 204  :         const auto _Inserted = _Tree_temp_node<_Alnode>(_Mybase::_Getal(), _Scary->_Myhead, piecewise_construct,

  00252	8b b5 d0 fe ff
	ff		 mov	 esi, DWORD PTR _stTokenVectorMap$[ebp]
; File C:\Program Files\Microsoft Visual Studio\2022\Community\VC\Tools\MSVC\14.34.31933\include\xmemory

; 1005 :     _CONSTEXPR20 explicit _Alloc_construct_ptr(_Alloc& _Al_) : _Al(_Al_), _Ptr(nullptr) {}

  00258	8d 85 d0 fe ff
	ff		 lea	 eax, DWORD PTR _stTokenVectorMap$[ebp]
  0025e	89 85 ac fe ff
	ff		 mov	 DWORD PTR $T5[ebp], eax

; 77   :         return ::operator new(_Bytes);

  00264	6a 34		 push	 52			; 00000034H
; File C:\Program Files\Microsoft Visual Studio\2022\Community\VC\Tools\MSVC\14.34.31933\include\xtree

; 785  :     explicit _Tree_temp_node_alloc(_Alnode& _Al_) : _Alloc_construct_ptr<_Alnode>(_Al_) {

  00266	c6 45 fc 02	 mov	 BYTE PTR __$EHRec$[ebp+8], 2
; File C:\Program Files\Microsoft Visual Studio\2022\Community\VC\Tools\MSVC\14.34.31933\include\xmemory

; 1012 :         _Ptr = nullptr; // if allocate throws, prevents double-free

  0026a	c7 85 b0 fe ff
	ff 00 00 00 00	 mov	 DWORD PTR $T5[ebp+4], 0

; 77   :         return ::operator new(_Bytes);

  00274	e8 00 00 00 00	 call	 ??2@YAPAXI@Z		; operator new
  00279	0f 57 c0	 xorps	 xmm0, xmm0
; File C:\Program Files\Microsoft Visual Studio\2022\Community\VC\Tools\MSVC\14.34.31933\include\map

; 210  :         return {_Scary->_Insert_node(_Loc._Location, _Inserted), true};

  0027c	8d 8d d0 fe ff
	ff		 lea	 ecx, DWORD PTR _stTokenVectorMap$[ebp]
; File C:\Program Files\Microsoft Visual Studio\2022\Community\VC\Tools\MSVC\14.34.31933\include\xmemory

; 77   :         return ::operator new(_Bytes);

  00282	83 c4 04	 add	 esp, 4
; File C:\Program Files\Microsoft Visual Studio\2022\Community\VC\Tools\MSVC\14.34.31933\include\xstring

; 2341 :         _CONSTEXPR20 _Bxty() noexcept : _Buf() {} // user-provided, for fancy pointers

  00285	0f 11 40 10	 movups	 XMMWORD PTR [eax+16], xmm0

; 2349 :     size_type _Mysize = 0; // current length of string

  00289	c7 40 20 00 00
	00 00		 mov	 DWORD PTR [eax+32], 0

; 2350 :     size_type _Myres  = 0; // current storage reserved for string

  00290	c7 40 24 00 00
	00 00		 mov	 DWORD PTR [eax+36], 0

; 3140 :         _CSTD memcpy(_My_data_mem, _Right_data_mem, _Memcpy_val_size);

  00297	0f 10 45 84	 movups	 xmm0, XMMWORD PTR $T22[ebp]
; File C:\Program Files\Microsoft Visual Studio\2022\Community\VC\Tools\MSVC\14.34.31933\include\map

; 210  :         return {_Scary->_Insert_node(_Loc._Location, _Inserted), true};

  0029b	50		 push	 eax
  0029c	ff b5 c0 fe ff
	ff		 push	 DWORD PTR __Loc$8[ebp+4]
; File C:\Program Files\Microsoft Visual Studio\2022\Community\VC\Tools\MSVC\14.34.31933\include\xstring

; 3140 :         _CSTD memcpy(_My_data_mem, _Right_data_mem, _Memcpy_val_size);

  002a2	0f 11 40 10	 movups	 XMMWORD PTR [eax+16], xmm0
  002a6	f3 0f 7e 45 94	 movq	 xmm0, QWORD PTR $T22[ebp+16]
; File C:\Program Files\Microsoft Visual Studio\2022\Community\VC\Tools\MSVC\14.34.31933\include\map

; 210  :         return {_Scary->_Insert_node(_Loc._Location, _Inserted), true};

  002ab	ff b5 bc fe ff
	ff		 push	 DWORD PTR __Loc$8[ebp]
; File C:\Program Files\Microsoft Visual Studio\2022\Community\VC\Tools\MSVC\14.34.31933\include\xstring

; 3140 :         _CSTD memcpy(_My_data_mem, _Right_data_mem, _Memcpy_val_size);

  002b1	66 0f d6 40 20	 movq	 QWORD PTR [eax+32], xmm0

; 4998 :         _My_data._Mysize = 0;

  002b6	c7 45 94 00 00
	00 00		 mov	 DWORD PTR $T22[ebp+16], 0

; 4999 :         _My_data._Myres  = _BUF_SIZE - 1;

  002bd	c7 45 98 0f 00
	00 00		 mov	 DWORD PTR $T22[ebp+20], 15 ; 0000000fH

; 5000 :         _My_data._Activate_SSO_buffer();
; 5001 : 
; 5002 :         // the _Traits::assign is last so the codegen doesn't think the char write can alias this
; 5003 :         _Traits::assign(_My_data._Bx._Buf[0], _Elem());

  002c4	c6 45 84 00	 mov	 BYTE PTR $T22[ebp], 0
; File C:\Program Files\Microsoft Visual Studio\2022\Community\VC\Tools\MSVC\14.34.31933\include\vector

; 390  :     _CONSTEXPR20 _Vector_val() noexcept : _Myfirst(), _Mylast(), _Myend() {}

  002c8	c7 40 28 00 00
	00 00		 mov	 DWORD PTR [eax+40], 0
  002cf	c7 40 2c 00 00
	00 00		 mov	 DWORD PTR [eax+44], 0
  002d6	c7 40 30 00 00
	00 00		 mov	 DWORD PTR [eax+48], 0
; File C:\Program Files\Microsoft Visual Studio\2022\Community\VC\Tools\MSVC\14.34.31933\include\xtree

; 808  :         _Construct_in_place(this->_Ptr->_Left, _Myhead);

  002dd	89 30		 mov	 DWORD PTR [eax], esi

; 809  :         _Construct_in_place(this->_Ptr->_Parent, _Myhead);

  002df	89 70 04	 mov	 DWORD PTR [eax+4], esi

; 810  :         _Construct_in_place(this->_Ptr->_Right, _Myhead);

  002e2	89 70 08	 mov	 DWORD PTR [eax+8], esi

; 811  :         this->_Ptr->_Color = _Red;

  002e5	66 c7 40 0c 00
	00		 mov	 WORD PTR [eax+12], 0
; File C:\Program Files\Microsoft Visual Studio\2022\Community\VC\Tools\MSVC\14.34.31933\include\map

; 210  :         return {_Scary->_Insert_node(_Loc._Location, _Inserted), true};

  002eb	e8 00 00 00 00	 call	 ?_Insert_node@?$_Tree_val@U?$_Tree_simple_types@U?$pair@$$CBV?$basic_string@DU?$char_traits@D@std@@V?$allocator@D@2@@std@@V?$vector@V?$basic_string@DU?$char_traits@D@std@@V?$allocator@D@2@@std@@V?$allocator@V?$basic_string@DU?$char_traits@D@std@@V?$allocator@D@2@@std@@@2@@2@@std@@@std@@@std@@QAEPAU?$_Tree_node@U?$pair@$$CBV?$basic_string@DU?$char_traits@D@std@@V?$allocator@D@2@@std@@V?$vector@V?$basic_string@DU?$char_traits@D@std@@V?$allocator@D@2@@std@@V?$allocator@V?$basic_string@DU?$char_traits@D@std@@V?$allocator@D@2@@std@@@2@@2@@std@@PAX@2@U?$_Tree_id@PAU?$_Tree_node@U?$pair@$$CBV?$basic_string@DU?$char_traits@D@std@@V?$allocator@D@2@@std@@V?$vector@V?$basic_string@DU?$char_traits@D@std@@V?$allocator@D@2@@std@@V?$allocator@V?$basic_string@DU?$char_traits@D@std@@V?$allocator@D@2@@std@@@2@@2@@std@@PAX@std@@@2@QAU32@@Z ; std::_Tree_val<std::_Tree_simple_types<std::pair<std::basic_string<char,std::char_traits<char>,std::allocator<char> > const ,std::vector<std::basic_string<char,std::char_traits<char>,std::allocator<char> >,std::allocator<std::basic_string<char,std::char_traits<char>,std::allocator<char> > > > > > >::_Insert_node
  002f0	8b 7d 98	 mov	 edi, DWORD PTR $T22[ebp+20]
  002f3	8b f0		 mov	 esi, eax
$LN969@Load:
; File C:\Program Files\Microsoft Visual Studio\2022\Community\VC\Tools\MSVC\14.34.31933\include\vector

; 1952 :         return _My_data._Myfirst[_Pos];

  002f5	8b 76 28	 mov	 esi, DWORD PTR [esi+40]
; File C:\Users\Marian\Desktop\Aeldra\ProjectA-main\Binary\Client\PRTerrainLib\TextureSet.cpp

; 52   : 	const std::string & c_rstrCount = stTokenVectorMap["texturecount"][0];

  002f8	c6 45 fc 00	 mov	 BYTE PTR __$EHRec$[ebp+8], 0
; File C:\Program Files\Microsoft Visual Studio\2022\Community\VC\Tools\MSVC\14.34.31933\include\xstring

; 5011 :         if (_My_data._Large_string_engaged()) {

  002fc	83 ff 10	 cmp	 edi, 16			; 00000010H
  002ff	72 2e		 jb	 SHORT $LN1108@Load
; File C:\Program Files\Microsoft Visual Studio\2022\Community\VC\Tools\MSVC\14.34.31933\include\xmemory

; 830  :         _Deallocate<_New_alignof<_Ty>>(_Ptr, sizeof(_Ty) * _Count);

  00301	8b 55 84	 mov	 edx, DWORD PTR $T22[ebp]
; File C:\Program Files\Microsoft Visual Studio\2022\Community\VC\Tools\MSVC\14.34.31933\include\xstring

; 5016 :             _Al.deallocate(_Ptr, _My_data._Myres + 1);

  00304	8d 4f 01	 lea	 ecx, DWORD PTR [edi+1]
; File C:\Program Files\Microsoft Visual Studio\2022\Community\VC\Tools\MSVC\14.34.31933\include\xmemory

; 830  :         _Deallocate<_New_alignof<_Ty>>(_Ptr, sizeof(_Ty) * _Count);

  00307	8b c2		 mov	 eax, edx

; 251  :         if (_Bytes >= _Big_allocation_threshold) { // boost the alignment of big allocations to help autovectorization

  00309	81 f9 00 10 00
	00		 cmp	 ecx, 4096		; 00001000H
  0030f	72 14		 jb	 SHORT $LN1118@Load

; 150  :     const uintptr_t _Ptr_container   = _Ptr_user[-1];

  00311	8b 50 fc	 mov	 edx, DWORD PTR [eax-4]
  00314	83 c1 23	 add	 ecx, 35			; 00000023H
  00317	2b c2		 sub	 eax, edx

; 151  : 
; 152  :     // If the following asserts, it likely means that we are performing
; 153  :     // an aligned delete on memory coming from an unaligned allocation.
; 154  :     _STL_ASSERT(_Ptr_user[-2] == _Big_allocation_sentinel, "invalid argument");
; 155  : 
; 156  :     // Extra paranoia on aligned allocation/deallocation; ensure _Ptr_container is
; 157  :     // in range [_Min_back_shift, _Non_user_size]
; 158  : #ifdef _DEBUG
; 159  :     constexpr uintptr_t _Min_back_shift = 2 * sizeof(void*);
; 160  : #else // ^^^ _DEBUG ^^^ // vvv !_DEBUG vvv
; 161  :     constexpr uintptr_t _Min_back_shift = sizeof(void*);
; 162  : #endif // _DEBUG
; 163  :     const uintptr_t _Back_shift = reinterpret_cast<uintptr_t>(_Ptr) - _Ptr_container;
; 164  :     _STL_VERIFY(_Back_shift >= _Min_back_shift && _Back_shift <= _Non_user_size, "invalid argument");

  00319	83 c0 fc	 add	 eax, -4			; fffffffcH
  0031c	83 f8 1f	 cmp	 eax, 31			; 0000001fH
  0031f	0f 87 3a 0a 00
	00		 ja	 $LN655@Load
$LN1118@Load:

; 255  :         ::operator delete(_Ptr, _Bytes);

  00325	51		 push	 ecx
  00326	52		 push	 edx
  00327	e8 00 00 00 00	 call	 ??3@YAXPAXI@Z		; operator delete
  0032c	83 c4 08	 add	 esp, 8
$LN1108@Load:
; File C:\Program Files\Microsoft Visual Studio\2022\Community\VC\Tools\MSVC\14.34.31933\include\xstring

; 5019 :         _My_data._Mysize = 0;

  0032f	c7 45 94 00 00
	00 00		 mov	 DWORD PTR $T22[ebp+16], 0

; 5020 :         _My_data._Myres  = _BUF_SIZE - 1;

  00336	c7 45 98 0f 00
	00 00		 mov	 DWORD PTR $T22[ebp+20], 15 ; 0000000fH

; 5021 :         // the _Traits::assign is last so the codegen doesn't think the char write can alias this
; 5022 :         _Traits::assign(_My_data._Bx._Buf[0], _Elem());

  0033d	c6 45 84 00	 mov	 BYTE PTR $T22[ebp], 0

; 2293 :         if (_Large_string_engaged()) {

  00341	83 7e 14 10	 cmp	 DWORD PTR [esi+20], 16	; 00000010H
  00345	72 02		 jb	 SHORT $LN1133@Load

; 2294 :             _Result = _Unfancy(_Bx._Ptr);

  00347	8b 36		 mov	 esi, DWORD PTR [esi]
$LN1133@Load:
; File C:\Users\Marian\Desktop\Aeldra\ProjectA-main\Binary\Client\PRTerrainLib\TextureSet.cpp

; 54   : 	long lCount = atol(c_rstrCount.c_str());

  00349	56		 push	 esi
  0034a	e8 00 00 00 00	 call	 _atol

; 55   : 	char szTextureName[32 + 1];
; 56   : 
; 57   : 	m_Textures.resize(lCount + 1);

  0034f	8b bd cc fe ff
	ff		 mov	 edi, DWORD PTR _this$1$[ebp]
  00355	83 c4 04	 add	 esp, 4
  00358	83 c7 04	 add	 edi, 4
  0035b	89 85 b4 fe ff
	ff		 mov	 DWORD PTR _lCount$1$[ebp], eax
  00361	8d 70 01	 lea	 esi, DWORD PTR [eax+1]
; File C:\Program Files\Microsoft Visual Studio\2022\Community\VC\Tools\MSVC\14.34.31933\include\vector

; 1620 :         const auto _Oldsize = static_cast<size_type>(_Mylast - _Myfirst);

  00364	b8 d3 20 0d d2	 mov	 eax, -770891565		; d20d20d3H
  00369	8b 4f 04	 mov	 ecx, DWORD PTR [edi+4]
  0036c	2b 0f		 sub	 ecx, DWORD PTR [edi]
  0036e	f7 e9		 imul	 ecx
  00370	03 d1		 add	 edx, ecx
  00372	c1 fa 07	 sar	 edx, 7
  00375	8b c2		 mov	 eax, edx
  00377	c1 e8 1f	 shr	 eax, 31			; 0000001fH
  0037a	03 c2		 add	 eax, edx
  0037c	89 85 c8 fe ff
	ff		 mov	 DWORD PTR __Oldsize$1$[ebp], eax

; 1621 :         if (_Newsize < _Oldsize) { // trim

  00382	3b f0		 cmp	 esi, eax
  00384	73 18		 jae	 SHORT $LN1126@Load

; 1622 :             const pointer _Newlast = _Myfirst + _Newsize;
; 1623 :             _Orphan_range(_Newlast, _Mylast);
; 1624 :             _Destroy_range(_Newlast, _Mylast, _Al);

  00386	8b 47 04	 mov	 eax, DWORD PTR [edi+4]
  00389	69 f6 9c 00 00
	00		 imul	 esi, esi, 156
  0038f	57		 push	 edi
  00390	50		 push	 eax
  00391	03 37		 add	 esi, DWORD PTR [edi]
  00393	56		 push	 esi
  00394	e8 00 00 00 00	 call	 ??$_Destroy_range@V?$allocator@USTerrainTexture@@@std@@@std@@YAXPAUSTerrainTexture@@QAU1@AAV?$allocator@USTerrainTexture@@@0@@Z ; std::_Destroy_range<std::allocator<STerrainTexture> >

; 1625 :             _ASAN_VECTOR_MODIFY(static_cast<difference_type>(_Newsize - _Oldsize));
; 1626 :             _Mylast = _Newlast;

  00399	89 77 04	 mov	 DWORD PTR [edi+4], esi

; 1627 :             return;

  0039c	eb 43		 jmp	 SHORT $LN1164@Load
$LN1126@Load:

; 1628 :         }
; 1629 : 
; 1630 :         if (_Newsize > _Oldsize) { // append

  0039e	76 44		 jbe	 SHORT $LN1127@Load

; 1631 :             const auto _Oldcapacity = static_cast<size_type>(_My_data._Myend - _Myfirst);

  003a0	8b 4f 08	 mov	 ecx, DWORD PTR [edi+8]
  003a3	b8 d3 20 0d d2	 mov	 eax, -770891565		; d20d20d3H
  003a8	2b 0f		 sub	 ecx, DWORD PTR [edi]
  003aa	f7 e9		 imul	 ecx
  003ac	03 d1		 add	 edx, ecx
  003ae	c1 fa 07	 sar	 edx, 7
  003b1	8b c2		 mov	 eax, edx
  003b3	c1 e8 1f	 shr	 eax, 31			; 0000001fH
  003b6	03 c2		 add	 eax, edx

; 1632 :             if (_Newsize > _Oldcapacity) { // reallocate

  003b8	3b f0		 cmp	 esi, eax
  003ba	76 11		 jbe	 SHORT $LN1128@Load

; 1633 :                 _Resize_reallocate(_Newsize, _Val);

  003bc	8d 85 db fe ff
	ff		 lea	 eax, DWORD PTR $T14[ebp]
  003c2	8b cf		 mov	 ecx, edi
  003c4	50		 push	 eax
  003c5	56		 push	 esi
  003c6	e8 00 00 00 00	 call	 ??$_Resize_reallocate@U_Value_init_tag@std@@@?$vector@USTerrainTexture@@V?$allocator@USTerrainTexture@@@std@@@std@@AAEXIABU_Value_init_tag@1@@Z ; std::vector<STerrainTexture,std::allocator<STerrainTexture> >::_Resize_reallocate<std::_Value_init_tag>

; 1634 :                 return;

  003cb	eb 17		 jmp	 SHORT $LN1127@Load
$LN1128@Load:

; 1635 :             }
; 1636 : 
; 1637 :             _ASAN_VECTOR_EXTEND_GUARD(_Newsize);
; 1638 :             const pointer _Oldlast = _Mylast;
; 1639 :             if constexpr (is_same_v<_Ty2, _Ty>) {
; 1640 :                 _Mylast = _Uninitialized_fill_n(_Oldlast, _Newsize - _Oldsize, _Val, _Al);
; 1641 :             } else {
; 1642 :                 _STL_INTERNAL_STATIC_ASSERT(is_same_v<_Ty2, _Value_init_tag>);
; 1643 :                 _Mylast = _Uninitialized_value_construct_n(_Oldlast, _Newsize - _Oldsize, _Al);

  003cd	2b b5 c8 fe ff
	ff		 sub	 esi, DWORD PTR __Oldsize$1$[ebp]
  003d3	8b 47 04	 mov	 eax, DWORD PTR [edi+4]
  003d6	57		 push	 edi
  003d7	56		 push	 esi
  003d8	50		 push	 eax
  003d9	e8 00 00 00 00	 call	 ??$_Uninitialized_value_construct_n@V?$allocator@USTerrainTexture@@@std@@@std@@YAPAUSTerrainTexture@@PAU1@IAAV?$allocator@USTerrainTexture@@@0@@Z ; std::_Uninitialized_value_construct_n<std::allocator<STerrainTexture> >
  003de	89 47 04	 mov	 DWORD PTR [edi+4], eax
$LN1164@Load:
; File C:\Users\Marian\Desktop\Aeldra\ProjectA-main\Binary\Client\PRTerrainLib\TextureSet.cpp

; 59   : 	for (long i = 0; i < lCount; ++i)

  003e1	83 c4 0c	 add	 esp, 12			; 0000000cH
$LN1127@Load:
  003e4	33 c0		 xor	 eax, eax
  003e6	39 85 b4 fe ff
	ff		 cmp	 DWORD PTR _lCount$1$[ebp], eax
  003ec	0f 8e ed 08 00
	00		 jle	 $LN1149@Load
$LL4@Load:

; 61   : 		_snprintf(szTextureName, sizeof(szTextureName), "texture%03d", i + 1);

  003f2	40		 inc	 eax
  003f3	50		 push	 eax
  003f4	68 00 00 00 00	 push	 OFFSET ??_C@_0M@NDPMIDHE@texture?$CF03d@
  003f9	89 85 9c fe ff
	ff		 mov	 DWORD PTR tv4905[ebp], eax
  003ff	89 85 98 fe ff
	ff		 mov	 DWORD PTR _i$1$[ebp], eax
  00405	8d 45 cc	 lea	 eax, DWORD PTR _szTextureName$[ebp]
  00408	6a 21		 push	 33			; 00000021H
  0040a	50		 push	 eax
  0040b	e8 00 00 00 00	 call	 __snprintf
  00410	0f 57 c0	 xorps	 xmm0, xmm0
; File C:\Program Files\Microsoft Visual Studio\2022\Community\VC\Tools\MSVC\14.34.31933\include\xstring

; 2349 :     size_type _Mysize = 0; // current length of string

  00413	c7 45 ac 00 00
	00 00		 mov	 DWORD PTR $T25[ebp+16], 0

; 418  :         return _CSTD strlen(reinterpret_cast<const char*>(_First));

  0041a	8d 4d cc	 lea	 ecx, DWORD PTR _szTextureName$[ebp]

; 2350 :     size_type _Myres  = 0; // current storage reserved for string

  0041d	c7 45 b0 00 00
	00 00		 mov	 DWORD PTR $T25[ebp+20], 0
; File C:\Users\Marian\Desktop\Aeldra\ProjectA-main\Binary\Client\PRTerrainLib\TextureSet.cpp

; 61   : 		_snprintf(szTextureName, sizeof(szTextureName), "texture%03d", i + 1);

  00424	83 c4 10	 add	 esp, 16			; 00000010H
; File C:\Program Files\Microsoft Visual Studio\2022\Community\VC\Tools\MSVC\14.34.31933\include\xstring

; 418  :         return _CSTD strlen(reinterpret_cast<const char*>(_First));

  00427	8d 51 01	 lea	 edx, DWORD PTR [ecx+1]

; 2341 :         _CONSTEXPR20 _Bxty() noexcept : _Buf() {} // user-provided, for fancy pointers

  0042a	0f 11 45 9c	 movups	 XMMWORD PTR $T25[ebp], xmm0
  0042e	66 90		 npad	 2
$LL1150@Load:

; 418  :         return _CSTD strlen(reinterpret_cast<const char*>(_First));

  00430	8a 01		 mov	 al, BYTE PTR [ecx]
  00432	41		 inc	 ecx
  00433	84 c0		 test	 al, al
  00435	75 f9		 jne	 SHORT $LL1150@Load
  00437	2b ca		 sub	 ecx, edx

; 2675 :         _Construct<_Construct_strategy::_From_ptr>(_Ptr, _Convert_size<size_type>(_Traits::length(_Ptr)));

  00439	8d 45 cc	 lea	 eax, DWORD PTR _szTextureName$[ebp]
  0043c	51		 push	 ecx
  0043d	50		 push	 eax
  0043e	8d 4d 9c	 lea	 ecx, DWORD PTR $T25[ebp]
  00441	e8 00 00 00 00	 call	 ??$_Construct@$00PBD@?$basic_string@DU?$char_traits@D@std@@V?$allocator@D@2@@std@@AAEXQBDI@Z ; std::basic_string<char,std::char_traits<char>,std::allocator<char> >::_Construct<1,char const *>
; File C:\Program Files\Microsoft Visual Studio\2022\Community\VC\Tools\MSVC\14.34.31933\include\xtree

; 1367 :         const _Tree_find_result<_Nodeptr> _Loc = _Find_lower_bound(_Keyval);

  00446	8d 45 9c	 lea	 eax, DWORD PTR $T25[ebp]
  00449	50		 push	 eax
  0044a	8d 45 90	 lea	 eax, DWORD PTR __Loc$23[ebp]
  0044d	50		 push	 eax
  0044e	8d 8d d0 fe ff
	ff		 lea	 ecx, DWORD PTR _stTokenVectorMap$[ebp]
  00454	e8 00 00 00 00	 call	 ??$_Find_lower_bound@V?$basic_string@DU?$char_traits@D@std@@V?$allocator@D@2@@std@@@?$_Tree@V?$_Tmap_traits@V?$basic_string@DU?$char_traits@D@std@@V?$allocator@D@2@@std@@V?$vector@V?$basic_string@DU?$char_traits@D@std@@V?$allocator@D@2@@std@@V?$allocator@V?$basic_string@DU?$char_traits@D@std@@V?$allocator@D@2@@std@@@2@@2@U?$less@V?$basic_string@DU?$char_traits@D@std@@V?$allocator@D@2@@std@@@2@V?$allocator@U?$pair@$$CBV?$basic_string@DU?$char_traits@D@std@@V?$allocator@D@2@@std@@V?$vector@V?$basic_string@DU?$char_traits@D@std@@V?$allocator@D@2@@std@@V?$allocator@V?$basic_string@DU?$char_traits@D@std@@V?$allocator@D@2@@std@@@2@@2@@std@@@2@$0A@@std@@@std@@IBE?AU?$_Tree_find_result@PAU?$_Tree_node@U?$pair@$$CBV?$basic_string@DU?$char_traits@D@std@@V?$allocator@D@2@@std@@V?$vector@V?$basic_string@DU?$char_traits@D@std@@V?$allocator@D@2@@std@@V?$allocator@V?$basic_string@DU?$char_traits@D@std@@V?$allocator@D@2@@std@@@2@@2@@std@@PAX@std@@@1@ABV?$basic_string@DU?$char_traits@D@std@@V?$allocator@D@2@@1@@Z ; std::_Tree<std::_Tmap_traits<std::basic_string<char,std::char_traits<char>,std::allocator<char> >,std::vector<std::basic_string<char,std::char_traits<char>,std::allocator<char> >,std::allocator<std::basic_string<char,std::char_traits<char>,std::allocator<char> > > >,std::less<std::basic_string<char,std::char_traits<char>,std::allocator<char> > >,std::allocator<std::pair<std::basic_string<char,std::char_traits<char>,std::allocator<char> > const ,std::vector<std::basic_string<char,std::char_traits<char>,std::allocator<char> >,std::allocator<std::basic_string<char,std::char_traits<char>,std::allocator<char> > > > > >,0> >::_Find_lower_bound<std::basic_string<char,std::char_traits<char>,std::allocator<char> > >

; 1605 :         return !_Bound->_Isnil && !_DEBUG_LT_PRED(_Getcomp(), _Keyval, _Traits::_Kfn(_Bound->_Myval));

  00459	8b 7d 98	 mov	 edi, DWORD PTR __Loc$23[ebp+8]
  0045c	80 7f 0d 00	 cmp	 BYTE PTR [edi+13], 0
  00460	75 18		 jne	 SHORT $LN1148@Load
  00462	8d 47 10	 lea	 eax, DWORD PTR [edi+16]
; File C:\Program Files\Microsoft Visual Studio\2022\Community\VC\Tools\MSVC\14.34.31933\include\xstddef

; 143  :         return _Left < _Right;

  00465	50		 push	 eax
  00466	8d 45 9c	 lea	 eax, DWORD PTR $T25[ebp]
  00469	50		 push	 eax
  0046a	e8 00 00 00 00	 call	 ??$?MDU?$char_traits@D@std@@V?$allocator@D@1@@std@@YA_NABV?$basic_string@DU?$char_traits@D@std@@V?$allocator@D@2@@0@0@Z ; std::operator<<char,std::char_traits<char>,std::allocator<char> >
  0046f	83 c4 08	 add	 esp, 8
; File C:\Program Files\Microsoft Visual Studio\2022\Community\VC\Tools\MSVC\14.34.31933\include\xtree

; 1605 :         return !_Bound->_Isnil && !_DEBUG_LT_PRED(_Getcomp(), _Keyval, _Traits::_Kfn(_Bound->_Myval));

  00472	84 c0		 test	 al, al
  00474	75 04		 jne	 SHORT $LN1148@Load
  00476	b0 01		 mov	 al, 1
  00478	eb 02		 jmp	 SHORT $LN112@Load
$LN1148@Load:
  0047a	32 c0		 xor	 al, al
$LN112@Load:

; 1368 :         if (_Lower_bound_duplicate(_Loc._Bound, _Keyval)) {

  0047c	8b 8d d0 fe ff
	ff		 mov	 ecx, DWORD PTR _stTokenVectorMap$[ebp]
  00482	84 c0		 test	 al, al
  00484	8b f1		 mov	 esi, ecx
  00486	89 8d b8 fe ff
	ff		 mov	 DWORD PTR _stTokenVectorMap$2$[ebp], ecx
; File C:\Program Files\Microsoft Visual Studio\2022\Community\VC\Tools\MSVC\14.34.31933\include\xstring

; 5011 :         if (_My_data._Large_string_engaged()) {

  0048c	8b 4d b0	 mov	 ecx, DWORD PTR $T25[ebp+20]
; File C:\Program Files\Microsoft Visual Studio\2022\Community\VC\Tools\MSVC\14.34.31933\include\xtree

; 1368 :         if (_Lower_bound_duplicate(_Loc._Bound, _Keyval)) {

  0048f	0f 45 f7	 cmovne	 esi, edi
; File C:\Program Files\Microsoft Visual Studio\2022\Community\VC\Tools\MSVC\14.34.31933\include\xstring

; 5011 :         if (_My_data._Large_string_engaged()) {

  00492	83 f9 10	 cmp	 ecx, 16			; 00000010H
  00495	72 2c		 jb	 SHORT $LN143@Load
; File C:\Program Files\Microsoft Visual Studio\2022\Community\VC\Tools\MSVC\14.34.31933\include\xmemory

; 830  :         _Deallocate<_New_alignof<_Ty>>(_Ptr, sizeof(_Ty) * _Count);

  00497	8b 55 9c	 mov	 edx, DWORD PTR $T25[ebp]
; File C:\Program Files\Microsoft Visual Studio\2022\Community\VC\Tools\MSVC\14.34.31933\include\xstring

; 5016 :             _Al.deallocate(_Ptr, _My_data._Myres + 1);

  0049a	41		 inc	 ecx
; File C:\Program Files\Microsoft Visual Studio\2022\Community\VC\Tools\MSVC\14.34.31933\include\xmemory

; 830  :         _Deallocate<_New_alignof<_Ty>>(_Ptr, sizeof(_Ty) * _Count);

  0049b	8b c2		 mov	 eax, edx

; 251  :         if (_Bytes >= _Big_allocation_threshold) { // boost the alignment of big allocations to help autovectorization

  0049d	81 f9 00 10 00
	00		 cmp	 ecx, 4096		; 00001000H
  004a3	72 14		 jb	 SHORT $LN153@Load

; 150  :     const uintptr_t _Ptr_container   = _Ptr_user[-1];

  004a5	8b 50 fc	 mov	 edx, DWORD PTR [eax-4]
  004a8	83 c1 23	 add	 ecx, 35			; 00000023H
  004ab	2b c2		 sub	 eax, edx

; 151  : 
; 152  :     // If the following asserts, it likely means that we are performing
; 153  :     // an aligned delete on memory coming from an unaligned allocation.
; 154  :     _STL_ASSERT(_Ptr_user[-2] == _Big_allocation_sentinel, "invalid argument");
; 155  : 
; 156  :     // Extra paranoia on aligned allocation/deallocation; ensure _Ptr_container is
; 157  :     // in range [_Min_back_shift, _Non_user_size]
; 158  : #ifdef _DEBUG
; 159  :     constexpr uintptr_t _Min_back_shift = 2 * sizeof(void*);
; 160  : #else // ^^^ _DEBUG ^^^ // vvv !_DEBUG vvv
; 161  :     constexpr uintptr_t _Min_back_shift = sizeof(void*);
; 162  : #endif // _DEBUG
; 163  :     const uintptr_t _Back_shift = reinterpret_cast<uintptr_t>(_Ptr) - _Ptr_container;
; 164  :     _STL_VERIFY(_Back_shift >= _Min_back_shift && _Back_shift <= _Non_user_size, "invalid argument");

  004ad	83 c0 fc	 add	 eax, -4			; fffffffcH
  004b0	83 f8 1f	 cmp	 eax, 31			; 0000001fH
  004b3	0f 87 a6 08 00
	00		 ja	 $LN655@Load
$LN153@Load:

; 255  :         ::operator delete(_Ptr, _Bytes);

  004b9	51		 push	 ecx
  004ba	52		 push	 edx
  004bb	e8 00 00 00 00	 call	 ??3@YAXPAXI@Z		; operator delete
  004c0	83 c4 08	 add	 esp, 8
$LN143@Load:
; File C:\Users\Marian\Desktop\Aeldra\ProjectA-main\Binary\Client\PRTerrainLib\TextureSet.cpp

; 63   : 		if (stTokenVectorMap.end() == stTokenVectorMap.find(szTextureName))

  004c3	39 b5 b8 fe ff
	ff		 cmp	 DWORD PTR _stTokenVectorMap$2$[ebp], esi
  004c9	0f 84 fe 07 00
	00		 je	 $LN2@Load
  004cf	0f 57 c0	 xorps	 xmm0, xmm0
; File C:\Program Files\Microsoft Visual Studio\2022\Community\VC\Tools\MSVC\14.34.31933\include\xstring

; 2349 :     size_type _Mysize = 0; // current length of string

  004d2	c7 45 ac 00 00
	00 00		 mov	 DWORD PTR $T24[ebp+16], 0

; 418  :         return _CSTD strlen(reinterpret_cast<const char*>(_First));

  004d9	8d 4d cc	 lea	 ecx, DWORD PTR _szTextureName$[ebp]

; 2350 :     size_type _Myres  = 0; // current storage reserved for string

  004dc	c7 45 b0 00 00
	00 00		 mov	 DWORD PTR $T24[ebp+20], 0

; 2341 :         _CONSTEXPR20 _Bxty() noexcept : _Buf() {} // user-provided, for fancy pointers

  004e3	0f 11 45 9c	 movups	 XMMWORD PTR $T24[ebp], xmm0

; 418  :         return _CSTD strlen(reinterpret_cast<const char*>(_First));

  004e7	8d 51 01	 lea	 edx, DWORD PTR [ecx+1]
  004ea	66 0f 1f 44 00
	00		 npad	 6
$LL1151@Load:
  004f0	8a 01		 mov	 al, BYTE PTR [ecx]
  004f2	41		 inc	 ecx
  004f3	84 c0		 test	 al, al
  004f5	75 f9		 jne	 SHORT $LL1151@Load
  004f7	2b ca		 sub	 ecx, edx

; 2675 :         _Construct<_Construct_strategy::_From_ptr>(_Ptr, _Convert_size<size_type>(_Traits::length(_Ptr)));

  004f9	8d 45 cc	 lea	 eax, DWORD PTR _szTextureName$[ebp]
  004fc	51		 push	 ecx
  004fd	50		 push	 eax
  004fe	8d 4d 9c	 lea	 ecx, DWORD PTR $T24[ebp]
  00501	e8 00 00 00 00	 call	 ??$_Construct@$00PBD@?$basic_string@DU?$char_traits@D@std@@V?$allocator@D@2@@std@@AAEXQBDI@Z ; std::basic_string<char,std::char_traits<char>,std::allocator<char> >::_Construct<1,char const *>
; File C:\Program Files\Microsoft Visual Studio\2022\Community\VC\Tools\MSVC\14.34.31933\include\map

; 196  :         const auto _Loc = _Mybase::_Find_lower_bound(_Keyval);

  00506	8d 45 9c	 lea	 eax, DWORD PTR $T24[ebp]
; File C:\Users\Marian\Desktop\Aeldra\ProjectA-main\Binary\Client\PRTerrainLib\TextureSet.cpp

; 66   : 		const CTokenVector & rVector = stTokenVectorMap[szTextureName];

  00509	c6 45 fc 03	 mov	 BYTE PTR __$EHRec$[ebp+8], 3
; File C:\Program Files\Microsoft Visual Studio\2022\Community\VC\Tools\MSVC\14.34.31933\include\map

; 196  :         const auto _Loc = _Mybase::_Find_lower_bound(_Keyval);

  0050d	50		 push	 eax
  0050e	8d 85 bc fe ff
	ff		 lea	 eax, DWORD PTR __Loc$10[ebp]
  00514	50		 push	 eax
  00515	8d 8d d0 fe ff
	ff		 lea	 ecx, DWORD PTR _stTokenVectorMap$[ebp]
  0051b	e8 00 00 00 00	 call	 ??$_Find_lower_bound@V?$basic_string@DU?$char_traits@D@std@@V?$allocator@D@2@@std@@@?$_Tree@V?$_Tmap_traits@V?$basic_string@DU?$char_traits@D@std@@V?$allocator@D@2@@std@@V?$vector@V?$basic_string@DU?$char_traits@D@std@@V?$allocator@D@2@@std@@V?$allocator@V?$basic_string@DU?$char_traits@D@std@@V?$allocator@D@2@@std@@@2@@2@U?$less@V?$basic_string@DU?$char_traits@D@std@@V?$allocator@D@2@@std@@@2@V?$allocator@U?$pair@$$CBV?$basic_string@DU?$char_traits@D@std@@V?$allocator@D@2@@std@@V?$vector@V?$basic_string@DU?$char_traits@D@std@@V?$allocator@D@2@@std@@V?$allocator@V?$basic_string@DU?$char_traits@D@std@@V?$allocator@D@2@@std@@@2@@2@@std@@@2@$0A@@std@@@std@@IBE?AU?$_Tree_find_result@PAU?$_Tree_node@U?$pair@$$CBV?$basic_string@DU?$char_traits@D@std@@V?$allocator@D@2@@std@@V?$vector@V?$basic_string@DU?$char_traits@D@std@@V?$allocator@D@2@@std@@V?$allocator@V?$basic_string@DU?$char_traits@D@std@@V?$allocator@D@2@@std@@@2@@2@@std@@PAX@std@@@1@ABV?$basic_string@DU?$char_traits@D@std@@V?$allocator@D@2@@1@@Z ; std::_Tree<std::_Tmap_traits<std::basic_string<char,std::char_traits<char>,std::allocator<char> >,std::vector<std::basic_string<char,std::char_traits<char>,std::allocator<char> >,std::allocator<std::basic_string<char,std::char_traits<char>,std::allocator<char> > > >,std::less<std::basic_string<char,std::char_traits<char>,std::allocator<char> > >,std::allocator<std::pair<std::basic_string<char,std::char_traits<char>,std::allocator<char> > const ,std::vector<std::basic_string<char,std::char_traits<char>,std::allocator<char> >,std::allocator<std::basic_string<char,std::char_traits<char>,std::allocator<char> > > > > >,0> >::_Find_lower_bound<std::basic_string<char,std::char_traits<char>,std::allocator<char> > >
; File C:\Program Files\Microsoft Visual Studio\2022\Community\VC\Tools\MSVC\14.34.31933\include\xtree

; 1605 :         return !_Bound->_Isnil && !_DEBUG_LT_PRED(_Getcomp(), _Keyval, _Traits::_Kfn(_Bound->_Myval));

  00520	8b b5 c4 fe ff
	ff		 mov	 esi, DWORD PTR __Loc$10[ebp+8]
  00526	80 7e 0d 00	 cmp	 BYTE PTR [esi+13], 0
  0052a	75 18		 jne	 SHORT $LN517@Load
  0052c	8d 46 10	 lea	 eax, DWORD PTR [esi+16]
; File C:\Program Files\Microsoft Visual Studio\2022\Community\VC\Tools\MSVC\14.34.31933\include\xstddef

; 143  :         return _Left < _Right;

  0052f	50		 push	 eax
  00530	8d 45 9c	 lea	 eax, DWORD PTR $T24[ebp]
  00533	50		 push	 eax
  00534	e8 00 00 00 00	 call	 ??$?MDU?$char_traits@D@std@@V?$allocator@D@1@@std@@YA_NABV?$basic_string@DU?$char_traits@D@std@@V?$allocator@D@2@@0@0@Z ; std::operator<<char,std::char_traits<char>,std::allocator<char> >
  00539	83 c4 08	 add	 esp, 8
; File C:\Program Files\Microsoft Visual Studio\2022\Community\VC\Tools\MSVC\14.34.31933\include\xtree

; 1605 :         return !_Bound->_Isnil && !_DEBUG_LT_PRED(_Getcomp(), _Keyval, _Traits::_Kfn(_Bound->_Myval));

  0053c	84 c0		 test	 al, al
  0053e	75 04		 jne	 SHORT $LN517@Load
  00540	b0 01		 mov	 al, 1
  00542	eb 02		 jmp	 SHORT $LN518@Load
$LN517@Load:
  00544	32 c0		 xor	 al, al
$LN518@Load:
; File C:\Program Files\Microsoft Visual Studio\2022\Community\VC\Tools\MSVC\14.34.31933\include\map

; 197  :         if (_Mybase::_Lower_bound_duplicate(_Loc._Bound, _Keyval)) {

  00546	84 c0		 test	 al, al
  00548	0f 85 ba 00 00
	00		 jne	 $LN511@Load
; File C:\Program Files\Microsoft Visual Studio\2022\Community\VC\Tools\MSVC\14.34.31933\include\xtree

; 1629 :         if (max_size() == _Get_scary()->_Mysize) {

  0054e	81 bd d4 fe ff
	ff c4 4e ec 04	 cmp	 DWORD PTR _stTokenVectorMap$[ebp+4], 82595524 ; 04ec4ec4H
  00558	0f 84 fc 07 00
	00		 je	 $LN1138@Load
; File C:\Program Files\Microsoft Visual Studio\2022\Community\VC\Tools\MSVC\14.34.31933\include\map

; 204  :         const auto _Inserted = _Tree_temp_node<_Alnode>(_Mybase::_Getal(), _Scary->_Myhead, piecewise_construct,

  0055e	8b b5 d0 fe ff
	ff		 mov	 esi, DWORD PTR _stTokenVectorMap$[ebp]
; File C:\Program Files\Microsoft Visual Studio\2022\Community\VC\Tools\MSVC\14.34.31933\include\xmemory

; 1005 :     _CONSTEXPR20 explicit _Alloc_construct_ptr(_Alloc& _Al_) : _Al(_Al_), _Ptr(nullptr) {}

  00564	8d 85 d0 fe ff
	ff		 lea	 eax, DWORD PTR _stTokenVectorMap$[ebp]
  0056a	89 85 ac fe ff
	ff		 mov	 DWORD PTR $T6[ebp], eax

; 77   :         return ::operator new(_Bytes);

  00570	6a 34		 push	 52			; 00000034H
; File C:\Program Files\Microsoft Visual Studio\2022\Community\VC\Tools\MSVC\14.34.31933\include\xtree

; 785  :     explicit _Tree_temp_node_alloc(_Alnode& _Al_) : _Alloc_construct_ptr<_Alnode>(_Al_) {

  00572	c6 45 fc 04	 mov	 BYTE PTR __$EHRec$[ebp+8], 4
; File C:\Program Files\Microsoft Visual Studio\2022\Community\VC\Tools\MSVC\14.34.31933\include\xmemory

; 1012 :         _Ptr = nullptr; // if allocate throws, prevents double-free

  00576	c7 85 b0 fe ff
	ff 00 00 00 00	 mov	 DWORD PTR $T6[ebp+4], 0

; 77   :         return ::operator new(_Bytes);

  00580	e8 00 00 00 00	 call	 ??2@YAPAXI@Z		; operator new
  00585	0f 57 c0	 xorps	 xmm0, xmm0
; File C:\Program Files\Microsoft Visual Studio\2022\Community\VC\Tools\MSVC\14.34.31933\include\utility

; 654  :     _Val         = static_cast<_Other&&>(_New_val);

  00588	c7 85 b0 fe ff
	ff 00 00 00 00	 mov	 DWORD PTR $T6[ebp+4], 0
; File C:\Program Files\Microsoft Visual Studio\2022\Community\VC\Tools\MSVC\14.34.31933\include\xmemory

; 77   :         return ::operator new(_Bytes);

  00592	83 c4 04	 add	 esp, 4
; File C:\Program Files\Microsoft Visual Studio\2022\Community\VC\Tools\MSVC\14.34.31933\include\map

; 210  :         return {_Scary->_Insert_node(_Loc._Location, _Inserted), true};

  00595	8d 8d d0 fe ff
	ff		 lea	 ecx, DWORD PTR _stTokenVectorMap$[ebp]
; File C:\Program Files\Microsoft Visual Studio\2022\Community\VC\Tools\MSVC\14.34.31933\include\xstring

; 2341 :         _CONSTEXPR20 _Bxty() noexcept : _Buf() {} // user-provided, for fancy pointers

  0059b	0f 11 40 10	 movups	 XMMWORD PTR [eax+16], xmm0

; 2349 :     size_type _Mysize = 0; // current length of string

  0059f	c7 40 20 00 00
	00 00		 mov	 DWORD PTR [eax+32], 0

; 2350 :     size_type _Myres  = 0; // current storage reserved for string

  005a6	c7 40 24 00 00
	00 00		 mov	 DWORD PTR [eax+36], 0

; 3140 :         _CSTD memcpy(_My_data_mem, _Right_data_mem, _Memcpy_val_size);

  005ad	0f 10 45 9c	 movups	 xmm0, XMMWORD PTR $T24[ebp]
; File C:\Program Files\Microsoft Visual Studio\2022\Community\VC\Tools\MSVC\14.34.31933\include\map

; 210  :         return {_Scary->_Insert_node(_Loc._Location, _Inserted), true};

  005b1	50		 push	 eax
  005b2	ff b5 c0 fe ff
	ff		 push	 DWORD PTR __Loc$10[ebp+4]
; File C:\Program Files\Microsoft Visual Studio\2022\Community\VC\Tools\MSVC\14.34.31933\include\xstring

; 3140 :         _CSTD memcpy(_My_data_mem, _Right_data_mem, _Memcpy_val_size);

  005b8	0f 11 40 10	 movups	 XMMWORD PTR [eax+16], xmm0
  005bc	f3 0f 7e 45 ac	 movq	 xmm0, QWORD PTR $T24[ebp+16]
; File C:\Program Files\Microsoft Visual Studio\2022\Community\VC\Tools\MSVC\14.34.31933\include\map

; 210  :         return {_Scary->_Insert_node(_Loc._Location, _Inserted), true};

  005c1	ff b5 bc fe ff
	ff		 push	 DWORD PTR __Loc$10[ebp]
; File C:\Program Files\Microsoft Visual Studio\2022\Community\VC\Tools\MSVC\14.34.31933\include\xstring

; 3140 :         _CSTD memcpy(_My_data_mem, _Right_data_mem, _Memcpy_val_size);

  005c7	66 0f d6 40 20	 movq	 QWORD PTR [eax+32], xmm0

; 4998 :         _My_data._Mysize = 0;

  005cc	c7 45 ac 00 00
	00 00		 mov	 DWORD PTR $T24[ebp+16], 0

; 4999 :         _My_data._Myres  = _BUF_SIZE - 1;

  005d3	c7 45 b0 0f 00
	00 00		 mov	 DWORD PTR $T24[ebp+20], 15 ; 0000000fH

; 5000 :         _My_data._Activate_SSO_buffer();
; 5001 : 
; 5002 :         // the _Traits::assign is last so the codegen doesn't think the char write can alias this
; 5003 :         _Traits::assign(_My_data._Bx._Buf[0], _Elem());

  005da	c6 45 9c 00	 mov	 BYTE PTR $T24[ebp], 0
; File C:\Program Files\Microsoft Visual Studio\2022\Community\VC\Tools\MSVC\14.34.31933\include\vector

; 390  :     _CONSTEXPR20 _Vector_val() noexcept : _Myfirst(), _Mylast(), _Myend() {}

  005de	c7 40 28 00 00
	00 00		 mov	 DWORD PTR [eax+40], 0
  005e5	c7 40 2c 00 00
	00 00		 mov	 DWORD PTR [eax+44], 0
  005ec	c7 40 30 00 00
	00 00		 mov	 DWORD PTR [eax+48], 0
; File C:\Program Files\Microsoft Visual Studio\2022\Community\VC\Tools\MSVC\14.34.31933\include\xtree

; 808  :         _Construct_in_place(this->_Ptr->_Left, _Myhead);

  005f3	89 30		 mov	 DWORD PTR [eax], esi

; 809  :         _Construct_in_place(this->_Ptr->_Parent, _Myhead);

  005f5	89 70 04	 mov	 DWORD PTR [eax+4], esi

; 810  :         _Construct_in_place(this->_Ptr->_Right, _Myhead);

  005f8	89 70 08	 mov	 DWORD PTR [eax+8], esi

; 811  :         this->_Ptr->_Color = _Red;

  005fb	66 c7 40 0c 00
	00		 mov	 WORD PTR [eax+12], 0
; File C:\Program Files\Microsoft Visual Studio\2022\Community\VC\Tools\MSVC\14.34.31933\include\map

; 210  :         return {_Scary->_Insert_node(_Loc._Location, _Inserted), true};

  00601	e8 00 00 00 00	 call	 ?_Insert_node@?$_Tree_val@U?$_Tree_simple_types@U?$pair@$$CBV?$basic_string@DU?$char_traits@D@std@@V?$allocator@D@2@@std@@V?$vector@V?$basic_string@DU?$char_traits@D@std@@V?$allocator@D@2@@std@@V?$allocator@V?$basic_string@DU?$char_traits@D@std@@V?$allocator@D@2@@std@@@2@@2@@std@@@std@@@std@@QAEPAU?$_Tree_node@U?$pair@$$CBV?$basic_string@DU?$char_traits@D@std@@V?$allocator@D@2@@std@@V?$vector@V?$basic_string@DU?$char_traits@D@std@@V?$allocator@D@2@@std@@V?$allocator@V?$basic_string@DU?$char_traits@D@std@@V?$allocator@D@2@@std@@@2@@2@@std@@PAX@2@U?$_Tree_id@PAU?$_Tree_node@U?$pair@$$CBV?$basic_string@DU?$char_traits@D@std@@V?$allocator@D@2@@std@@V?$vector@V?$basic_string@DU?$char_traits@D@std@@V?$allocator@D@2@@std@@V?$allocator@V?$basic_string@DU?$char_traits@D@std@@V?$allocator@D@2@@std@@@2@@2@@std@@PAX@std@@@2@QAU32@@Z ; std::_Tree_val<std::_Tree_simple_types<std::pair<std::basic_string<char,std::char_traits<char>,std::allocator<char> > const ,std::vector<std::basic_string<char,std::char_traits<char>,std::allocator<char> >,std::allocator<std::basic_string<char,std::char_traits<char>,std::allocator<char> > > > > > >::_Insert_node
  00606	8b f0		 mov	 esi, eax
$LN511@Load:
; File C:\Program Files\Microsoft Visual Studio\2022\Community\VC\Tools\MSVC\14.34.31933\include\xstring

; 5011 :         if (_My_data._Large_string_engaged()) {

  00608	8b 4d b0	 mov	 ecx, DWORD PTR $T24[ebp+20]
; File C:\Users\Marian\Desktop\Aeldra\ProjectA-main\Binary\Client\PRTerrainLib\TextureSet.cpp

; 66   : 		const CTokenVector & rVector = stTokenVectorMap[szTextureName];

  0060b	c6 45 fc 00	 mov	 BYTE PTR __$EHRec$[ebp+8], 0
; File C:\Program Files\Microsoft Visual Studio\2022\Community\VC\Tools\MSVC\14.34.31933\include\xstring

; 5011 :         if (_My_data._Large_string_engaged()) {

  0060f	83 f9 10	 cmp	 ecx, 16			; 00000010H
  00612	72 2c		 jb	 SHORT $LN648@Load
; File C:\Program Files\Microsoft Visual Studio\2022\Community\VC\Tools\MSVC\14.34.31933\include\xmemory

; 830  :         _Deallocate<_New_alignof<_Ty>>(_Ptr, sizeof(_Ty) * _Count);

  00614	8b 55 9c	 mov	 edx, DWORD PTR $T24[ebp]
; File C:\Program Files\Microsoft Visual Studio\2022\Community\VC\Tools\MSVC\14.34.31933\include\xstring

; 5016 :             _Al.deallocate(_Ptr, _My_data._Myres + 1);

  00617	41		 inc	 ecx
; File C:\Program Files\Microsoft Visual Studio\2022\Community\VC\Tools\MSVC\14.34.31933\include\xmemory

; 830  :         _Deallocate<_New_alignof<_Ty>>(_Ptr, sizeof(_Ty) * _Count);

  00618	8b c2		 mov	 eax, edx

; 251  :         if (_Bytes >= _Big_allocation_threshold) { // boost the alignment of big allocations to help autovectorization

  0061a	81 f9 00 10 00
	00		 cmp	 ecx, 4096		; 00001000H
  00620	72 14		 jb	 SHORT $LN658@Load

; 150  :     const uintptr_t _Ptr_container   = _Ptr_user[-1];

  00622	8b 50 fc	 mov	 edx, DWORD PTR [eax-4]
  00625	83 c1 23	 add	 ecx, 35			; 00000023H
  00628	2b c2		 sub	 eax, edx

; 151  : 
; 152  :     // If the following asserts, it likely means that we are performing
; 153  :     // an aligned delete on memory coming from an unaligned allocation.
; 154  :     _STL_ASSERT(_Ptr_user[-2] == _Big_allocation_sentinel, "invalid argument");
; 155  : 
; 156  :     // Extra paranoia on aligned allocation/deallocation; ensure _Ptr_container is
; 157  :     // in range [_Min_back_shift, _Non_user_size]
; 158  : #ifdef _DEBUG
; 159  :     constexpr uintptr_t _Min_back_shift = 2 * sizeof(void*);
; 160  : #else // ^^^ _DEBUG ^^^ // vvv !_DEBUG vvv
; 161  :     constexpr uintptr_t _Min_back_shift = sizeof(void*);
; 162  : #endif // _DEBUG
; 163  :     const uintptr_t _Back_shift = reinterpret_cast<uintptr_t>(_Ptr) - _Ptr_container;
; 164  :     _STL_VERIFY(_Back_shift >= _Min_back_shift && _Back_shift <= _Non_user_size, "invalid argument");

  0062a	83 c0 fc	 add	 eax, -4			; fffffffcH
  0062d	83 f8 1f	 cmp	 eax, 31			; 0000001fH
  00630	0f 87 29 07 00
	00		 ja	 $LN655@Load
$LN658@Load:

; 255  :         ::operator delete(_Ptr, _Bytes);

  00636	51		 push	 ecx
  00637	52		 push	 edx
  00638	e8 00 00 00 00	 call	 ??3@YAXPAXI@Z		; operator delete
  0063d	83 c4 08	 add	 esp, 8
$LN648@Load:
; File C:\Program Files\Microsoft Visual Studio\2022\Community\VC\Tools\MSVC\14.34.31933\include\xstring

; 5019 :         _My_data._Mysize = 0;

  00640	c7 45 ac 00 00
	00 00		 mov	 DWORD PTR $T24[ebp+16], 0

; 5020 :         _My_data._Myres  = _BUF_SIZE - 1;

  00647	c7 45 b0 0f 00
	00 00		 mov	 DWORD PTR $T24[ebp+20], 15 ; 0000000fH

; 5021 :         // the _Traits::assign is last so the codegen doesn't think the char write can alias this
; 5022 :         _Traits::assign(_My_data._Bx._Buf[0], _Elem());

  0064e	c6 45 9c 00	 mov	 BYTE PTR $T24[ebp], 0

; 4259 :         return _Mypair._Myval2._Myptr();

  00652	8b 56 28	 mov	 edx, DWORD PTR [esi+40]

; 2293 :         if (_Large_string_engaged()) {

  00655	83 7a 14 10	 cmp	 DWORD PTR [edx+20], 16	; 00000010H
  00659	72 02		 jb	 SHORT $LN668@Load

; 2294 :             _Result = _Unfancy(_Bx._Ptr);

  0065b	8b 12		 mov	 edx, DWORD PTR [edx]
$LN668@Load:

; 418  :         return _CSTD strlen(reinterpret_cast<const char*>(_First));

  0065d	8b ca		 mov	 ecx, edx

; 2349 :     size_type _Mysize = 0; // current length of string

  0065f	c7 45 c4 00 00
	00 00		 mov	 DWORD PTR _$S1$26[ebp+16], 0
  00666	0f 57 c0	 xorps	 xmm0, xmm0

; 2350 :     size_type _Myres  = 0; // current storage reserved for string

  00669	c7 45 c8 00 00
	00 00		 mov	 DWORD PTR _$S1$26[ebp+20], 0

; 2341 :         _CONSTEXPR20 _Bxty() noexcept : _Buf() {} // user-provided, for fancy pointers

  00670	0f 11 45 b4	 movups	 XMMWORD PTR _$S1$26[ebp], xmm0

; 418  :         return _CSTD strlen(reinterpret_cast<const char*>(_First));

  00674	8d 79 01	 lea	 edi, DWORD PTR [ecx+1]
$LL1152@Load:
  00677	8a 01		 mov	 al, BYTE PTR [ecx]
  00679	41		 inc	 ecx
  0067a	84 c0		 test	 al, al
  0067c	75 f9		 jne	 SHORT $LL1152@Load
  0067e	2b cf		 sub	 ecx, edi

; 2675 :         _Construct<_Construct_strategy::_From_ptr>(_Ptr, _Convert_size<size_type>(_Traits::length(_Ptr)));

  00680	51		 push	 ecx
  00681	52		 push	 edx
  00682	8d 4d b4	 lea	 ecx, DWORD PTR _$S1$26[ebp]
  00685	e8 00 00 00 00	 call	 ??$_Construct@$00PBD@?$basic_string@DU?$char_traits@D@std@@V?$allocator@D@2@@std@@AAEXQBDI@Z ; std::basic_string<char,std::char_traits<char>,std::allocator<char> >::_Construct<1,char const *>
; File C:\Program Files\Microsoft Visual Studio\2022\Community\VC\Tools\MSVC\14.34.31933\include\vector

; 1962 :         return _My_data._Myfirst[_Pos];

  0068a	8b 56 28	 mov	 edx, DWORD PTR [esi+40]
  0068d	83 c2 18	 add	 edx, 24			; 00000018H
; File C:\Users\Marian\Desktop\Aeldra\ProjectA-main\Binary\Client\PRTerrainLib\TextureSet.cpp

; 68   : 		const std::string & c_rstrFileName	= rVector[0].c_str();

  00690	c6 45 fc 05	 mov	 BYTE PTR __$EHRec$[ebp+8], 5
; File C:\Program Files\Microsoft Visual Studio\2022\Community\VC\Tools\MSVC\14.34.31933\include\xstring

; 2293 :         if (_Large_string_engaged()) {

  00694	83 7a 14 10	 cmp	 DWORD PTR [edx+20], 16	; 00000010H
  00698	72 02		 jb	 SHORT $LN689@Load

; 2294 :             _Result = _Unfancy(_Bx._Ptr);

  0069a	8b 12		 mov	 edx, DWORD PTR [edx]
$LN689@Load:

; 418  :         return _CSTD strlen(reinterpret_cast<const char*>(_First));

  0069c	8b ca		 mov	 ecx, edx

; 2349 :     size_type _Mysize = 0; // current length of string

  0069e	c7 85 ec fe ff
	ff 00 00 00 00	 mov	 DWORD PTR _$S2$15[ebp+16], 0
  006a8	0f 57 c0	 xorps	 xmm0, xmm0

; 2350 :     size_type _Myres  = 0; // current storage reserved for string

  006ab	c7 85 f0 fe ff
	ff 00 00 00 00	 mov	 DWORD PTR _$S2$15[ebp+20], 0

; 2341 :         _CONSTEXPR20 _Bxty() noexcept : _Buf() {} // user-provided, for fancy pointers

  006b5	0f 11 85 dc fe
	ff ff		 movups	 XMMWORD PTR _$S2$15[ebp], xmm0

; 418  :         return _CSTD strlen(reinterpret_cast<const char*>(_First));

  006bc	8d 79 01	 lea	 edi, DWORD PTR [ecx+1]
  006bf	90		 npad	 1
$LL1153@Load:
  006c0	8a 01		 mov	 al, BYTE PTR [ecx]
  006c2	41		 inc	 ecx
  006c3	84 c0		 test	 al, al
  006c5	75 f9		 jne	 SHORT $LL1153@Load
  006c7	2b cf		 sub	 ecx, edi

; 2675 :         _Construct<_Construct_strategy::_From_ptr>(_Ptr, _Convert_size<size_type>(_Traits::length(_Ptr)));

  006c9	51		 push	 ecx
  006ca	52		 push	 edx
  006cb	8d 8d dc fe ff
	ff		 lea	 ecx, DWORD PTR _$S2$15[ebp]
  006d1	e8 00 00 00 00	 call	 ??$_Construct@$00PBD@?$basic_string@DU?$char_traits@D@std@@V?$allocator@D@2@@std@@AAEXQBDI@Z ; std::basic_string<char,std::char_traits<char>,std::allocator<char> >::_Construct<1,char const *>
; File C:\Program Files\Microsoft Visual Studio\2022\Community\VC\Tools\MSVC\14.34.31933\include\vector

; 1962 :         return _My_data._Myfirst[_Pos];

  006d6	8b 56 28	 mov	 edx, DWORD PTR [esi+40]
  006d9	83 c2 30	 add	 edx, 48			; 00000030H
; File C:\Users\Marian\Desktop\Aeldra\ProjectA-main\Binary\Client\PRTerrainLib\TextureSet.cpp

; 69   : 		const std::string & c_rstrUScale	= rVector[1].c_str();

  006dc	c6 45 fc 06	 mov	 BYTE PTR __$EHRec$[ebp+8], 6
; File C:\Program Files\Microsoft Visual Studio\2022\Community\VC\Tools\MSVC\14.34.31933\include\xstring

; 2293 :         if (_Large_string_engaged()) {

  006e0	83 7a 14 10	 cmp	 DWORD PTR [edx+20], 16	; 00000010H
  006e4	72 02		 jb	 SHORT $LN270@Load

; 2294 :             _Result = _Unfancy(_Bx._Ptr);

  006e6	8b 12		 mov	 edx, DWORD PTR [edx]
$LN270@Load:

; 418  :         return _CSTD strlen(reinterpret_cast<const char*>(_First));

  006e8	8b ca		 mov	 ecx, edx

; 2349 :     size_type _Mysize = 0; // current length of string

  006ea	c7 85 04 ff ff
	ff 00 00 00 00	 mov	 DWORD PTR _$S3$16[ebp+16], 0
  006f4	0f 57 c0	 xorps	 xmm0, xmm0

; 2350 :     size_type _Myres  = 0; // current storage reserved for string

  006f7	c7 85 08 ff ff
	ff 00 00 00 00	 mov	 DWORD PTR _$S3$16[ebp+20], 0

; 2341 :         _CONSTEXPR20 _Bxty() noexcept : _Buf() {} // user-provided, for fancy pointers

  00701	0f 11 85 f4 fe
	ff ff		 movups	 XMMWORD PTR _$S3$16[ebp], xmm0

; 418  :         return _CSTD strlen(reinterpret_cast<const char*>(_First));

  00708	8d 79 01	 lea	 edi, DWORD PTR [ecx+1]
  0070b	0f 1f 44 00 00	 npad	 5
$LL1154@Load:
  00710	8a 01		 mov	 al, BYTE PTR [ecx]
  00712	41		 inc	 ecx
  00713	84 c0		 test	 al, al
  00715	75 f9		 jne	 SHORT $LL1154@Load
  00717	2b cf		 sub	 ecx, edi

; 2675 :         _Construct<_Construct_strategy::_From_ptr>(_Ptr, _Convert_size<size_type>(_Traits::length(_Ptr)));

  00719	51		 push	 ecx
  0071a	52		 push	 edx
  0071b	8d 8d f4 fe ff
	ff		 lea	 ecx, DWORD PTR _$S3$16[ebp]
  00721	e8 00 00 00 00	 call	 ??$_Construct@$00PBD@?$basic_string@DU?$char_traits@D@std@@V?$allocator@D@2@@std@@AAEXQBDI@Z ; std::basic_string<char,std::char_traits<char>,std::allocator<char> >::_Construct<1,char const *>
; File C:\Program Files\Microsoft Visual Studio\2022\Community\VC\Tools\MSVC\14.34.31933\include\vector

; 1962 :         return _My_data._Myfirst[_Pos];

  00726	8b 56 28	 mov	 edx, DWORD PTR [esi+40]
  00729	83 c2 48	 add	 edx, 72			; 00000048H
; File C:\Users\Marian\Desktop\Aeldra\ProjectA-main\Binary\Client\PRTerrainLib\TextureSet.cpp

; 70   : 		const std::string & c_rstrVScale	= rVector[2].c_str();

  0072c	c6 45 fc 07	 mov	 BYTE PTR __$EHRec$[ebp+8], 7
; File C:\Program Files\Microsoft Visual Studio\2022\Community\VC\Tools\MSVC\14.34.31933\include\xstring

; 2293 :         if (_Large_string_engaged()) {

  00730	83 7a 14 10	 cmp	 DWORD PTR [edx+20], 16	; 00000010H
  00734	72 02		 jb	 SHORT $LN731@Load

; 2294 :             _Result = _Unfancy(_Bx._Ptr);

  00736	8b 12		 mov	 edx, DWORD PTR [edx]
$LN731@Load:

; 418  :         return _CSTD strlen(reinterpret_cast<const char*>(_First));

  00738	8b ca		 mov	 ecx, edx

; 2349 :     size_type _Mysize = 0; // current length of string

  0073a	c7 85 1c ff ff
	ff 00 00 00 00	 mov	 DWORD PTR _$S4$17[ebp+16], 0
  00744	0f 57 c0	 xorps	 xmm0, xmm0

; 2350 :     size_type _Myres  = 0; // current storage reserved for string

  00747	c7 85 20 ff ff
	ff 00 00 00 00	 mov	 DWORD PTR _$S4$17[ebp+20], 0

; 2341 :         _CONSTEXPR20 _Bxty() noexcept : _Buf() {} // user-provided, for fancy pointers

  00751	0f 11 85 0c ff
	ff ff		 movups	 XMMWORD PTR _$S4$17[ebp], xmm0

; 418  :         return _CSTD strlen(reinterpret_cast<const char*>(_First));

  00758	8d 79 01	 lea	 edi, DWORD PTR [ecx+1]
  0075b	0f 1f 44 00 00	 npad	 5
$LL1155@Load:
  00760	8a 01		 mov	 al, BYTE PTR [ecx]
  00762	41		 inc	 ecx
  00763	84 c0		 test	 al, al
  00765	75 f9		 jne	 SHORT $LL1155@Load
  00767	2b cf		 sub	 ecx, edi

; 2675 :         _Construct<_Construct_strategy::_From_ptr>(_Ptr, _Convert_size<size_type>(_Traits::length(_Ptr)));

  00769	51		 push	 ecx
  0076a	52		 push	 edx
  0076b	8d 8d 0c ff ff
	ff		 lea	 ecx, DWORD PTR _$S4$17[ebp]
  00771	e8 00 00 00 00	 call	 ??$_Construct@$00PBD@?$basic_string@DU?$char_traits@D@std@@V?$allocator@D@2@@std@@AAEXQBDI@Z ; std::basic_string<char,std::char_traits<char>,std::allocator<char> >::_Construct<1,char const *>
; File C:\Program Files\Microsoft Visual Studio\2022\Community\VC\Tools\MSVC\14.34.31933\include\vector

; 1962 :         return _My_data._Myfirst[_Pos];

  00776	8b 56 28	 mov	 edx, DWORD PTR [esi+40]
  00779	83 c2 60	 add	 edx, 96			; 00000060H
; File C:\Users\Marian\Desktop\Aeldra\ProjectA-main\Binary\Client\PRTerrainLib\TextureSet.cpp

; 71   : 		const std::string & c_rstrUOffset	= rVector[3].c_str();

  0077c	c6 45 fc 08	 mov	 BYTE PTR __$EHRec$[ebp+8], 8
; File C:\Program Files\Microsoft Visual Studio\2022\Community\VC\Tools\MSVC\14.34.31933\include\xstring

; 2293 :         if (_Large_string_engaged()) {

  00780	83 7a 14 10	 cmp	 DWORD PTR [edx+20], 16	; 00000010H
  00784	72 02		 jb	 SHORT $LN752@Load

; 2294 :             _Result = _Unfancy(_Bx._Ptr);

  00786	8b 12		 mov	 edx, DWORD PTR [edx]
$LN752@Load:

; 418  :         return _CSTD strlen(reinterpret_cast<const char*>(_First));

  00788	8b ca		 mov	 ecx, edx

; 2349 :     size_type _Mysize = 0; // current length of string

  0078a	c7 85 34 ff ff
	ff 00 00 00 00	 mov	 DWORD PTR _$S5$18[ebp+16], 0
  00794	0f 57 c0	 xorps	 xmm0, xmm0

; 2350 :     size_type _Myres  = 0; // current storage reserved for string

  00797	c7 85 38 ff ff
	ff 00 00 00 00	 mov	 DWORD PTR _$S5$18[ebp+20], 0

; 2341 :         _CONSTEXPR20 _Bxty() noexcept : _Buf() {} // user-provided, for fancy pointers

  007a1	0f 11 85 24 ff
	ff ff		 movups	 XMMWORD PTR _$S5$18[ebp], xmm0

; 418  :         return _CSTD strlen(reinterpret_cast<const char*>(_First));

  007a8	8d 79 01	 lea	 edi, DWORD PTR [ecx+1]
  007ab	0f 1f 44 00 00	 npad	 5
$LL1156@Load:
  007b0	8a 01		 mov	 al, BYTE PTR [ecx]
  007b2	41		 inc	 ecx
  007b3	84 c0		 test	 al, al
  007b5	75 f9		 jne	 SHORT $LL1156@Load
  007b7	2b cf		 sub	 ecx, edi

; 2675 :         _Construct<_Construct_strategy::_From_ptr>(_Ptr, _Convert_size<size_type>(_Traits::length(_Ptr)));

  007b9	51		 push	 ecx
  007ba	52		 push	 edx
  007bb	8d 8d 24 ff ff
	ff		 lea	 ecx, DWORD PTR _$S5$18[ebp]
  007c1	e8 00 00 00 00	 call	 ??$_Construct@$00PBD@?$basic_string@DU?$char_traits@D@std@@V?$allocator@D@2@@std@@AAEXQBDI@Z ; std::basic_string<char,std::char_traits<char>,std::allocator<char> >::_Construct<1,char const *>
; File C:\Program Files\Microsoft Visual Studio\2022\Community\VC\Tools\MSVC\14.34.31933\include\vector

; 1962 :         return _My_data._Myfirst[_Pos];

  007c6	8b 56 28	 mov	 edx, DWORD PTR [esi+40]
  007c9	83 c2 78	 add	 edx, 120		; 00000078H
; File C:\Users\Marian\Desktop\Aeldra\ProjectA-main\Binary\Client\PRTerrainLib\TextureSet.cpp

; 72   : 		const std::string & c_rstrVOffset	= rVector[4].c_str();

  007cc	c6 45 fc 09	 mov	 BYTE PTR __$EHRec$[ebp+8], 9
; File C:\Program Files\Microsoft Visual Studio\2022\Community\VC\Tools\MSVC\14.34.31933\include\xstring

; 2293 :         if (_Large_string_engaged()) {

  007d0	83 7a 14 10	 cmp	 DWORD PTR [edx+20], 16	; 00000010H
  007d4	72 02		 jb	 SHORT $LN773@Load

; 2294 :             _Result = _Unfancy(_Bx._Ptr);

  007d6	8b 12		 mov	 edx, DWORD PTR [edx]
$LN773@Load:

; 418  :         return _CSTD strlen(reinterpret_cast<const char*>(_First));

  007d8	8b ca		 mov	 ecx, edx

; 2349 :     size_type _Mysize = 0; // current length of string

  007da	c7 85 4c ff ff
	ff 00 00 00 00	 mov	 DWORD PTR _$S6$19[ebp+16], 0
  007e4	0f 57 c0	 xorps	 xmm0, xmm0

; 2350 :     size_type _Myres  = 0; // current storage reserved for string

  007e7	c7 85 50 ff ff
	ff 00 00 00 00	 mov	 DWORD PTR _$S6$19[ebp+20], 0

; 2341 :         _CONSTEXPR20 _Bxty() noexcept : _Buf() {} // user-provided, for fancy pointers

  007f1	0f 11 85 3c ff
	ff ff		 movups	 XMMWORD PTR _$S6$19[ebp], xmm0

; 418  :         return _CSTD strlen(reinterpret_cast<const char*>(_First));

  007f8	8d 79 01	 lea	 edi, DWORD PTR [ecx+1]
  007fb	0f 1f 44 00 00	 npad	 5
$LL1157@Load:
  00800	8a 01		 mov	 al, BYTE PTR [ecx]
  00802	41		 inc	 ecx
  00803	84 c0		 test	 al, al
  00805	75 f9		 jne	 SHORT $LL1157@Load
  00807	2b cf		 sub	 ecx, edi

; 2675 :         _Construct<_Construct_strategy::_From_ptr>(_Ptr, _Convert_size<size_type>(_Traits::length(_Ptr)));

  00809	51		 push	 ecx
  0080a	52		 push	 edx
  0080b	8d 8d 3c ff ff
	ff		 lea	 ecx, DWORD PTR _$S6$19[ebp]
  00811	e8 00 00 00 00	 call	 ??$_Construct@$00PBD@?$basic_string@DU?$char_traits@D@std@@V?$allocator@D@2@@std@@AAEXQBDI@Z ; std::basic_string<char,std::char_traits<char>,std::allocator<char> >::_Construct<1,char const *>
; File C:\Program Files\Microsoft Visual Studio\2022\Community\VC\Tools\MSVC\14.34.31933\include\vector

; 1962 :         return _My_data._Myfirst[_Pos];

  00816	8b 56 28	 mov	 edx, DWORD PTR [esi+40]
  00819	81 c2 90 00 00
	00		 add	 edx, 144		; 00000090H
; File C:\Users\Marian\Desktop\Aeldra\ProjectA-main\Binary\Client\PRTerrainLib\TextureSet.cpp

; 73   : 		const std::string & c_rstrbSplat	= rVector[5].c_str();

  0081f	c6 45 fc 0a	 mov	 BYTE PTR __$EHRec$[ebp+8], 10 ; 0000000aH
; File C:\Program Files\Microsoft Visual Studio\2022\Community\VC\Tools\MSVC\14.34.31933\include\xstring

; 2293 :         if (_Large_string_engaged()) {

  00823	83 7a 14 10	 cmp	 DWORD PTR [edx+20], 16	; 00000010H
  00827	72 02		 jb	 SHORT $LN794@Load

; 2294 :             _Result = _Unfancy(_Bx._Ptr);

  00829	8b 12		 mov	 edx, DWORD PTR [edx]
$LN794@Load:

; 418  :         return _CSTD strlen(reinterpret_cast<const char*>(_First));

  0082b	8b ca		 mov	 ecx, edx

; 2349 :     size_type _Mysize = 0; // current length of string

  0082d	c7 85 64 ff ff
	ff 00 00 00 00	 mov	 DWORD PTR _$S7$20[ebp+16], 0
  00837	0f 57 c0	 xorps	 xmm0, xmm0

; 2350 :     size_type _Myres  = 0; // current storage reserved for string

  0083a	c7 85 68 ff ff
	ff 00 00 00 00	 mov	 DWORD PTR _$S7$20[ebp+20], 0

; 2341 :         _CONSTEXPR20 _Bxty() noexcept : _Buf() {} // user-provided, for fancy pointers

  00844	0f 11 85 54 ff
	ff ff		 movups	 XMMWORD PTR _$S7$20[ebp], xmm0

; 418  :         return _CSTD strlen(reinterpret_cast<const char*>(_First));

  0084b	8d 79 01	 lea	 edi, DWORD PTR [ecx+1]
  0084e	66 90		 npad	 2
$LL1158@Load:
  00850	8a 01		 mov	 al, BYTE PTR [ecx]
  00852	41		 inc	 ecx
  00853	84 c0		 test	 al, al
  00855	75 f9		 jne	 SHORT $LL1158@Load
  00857	2b cf		 sub	 ecx, edi

; 2675 :         _Construct<_Construct_strategy::_From_ptr>(_Ptr, _Convert_size<size_type>(_Traits::length(_Ptr)));

  00859	51		 push	 ecx
  0085a	52		 push	 edx
  0085b	8d 8d 54 ff ff
	ff		 lea	 ecx, DWORD PTR _$S7$20[ebp]
  00861	e8 00 00 00 00	 call	 ??$_Construct@$00PBD@?$basic_string@DU?$char_traits@D@std@@V?$allocator@D@2@@std@@AAEXQBDI@Z ; std::basic_string<char,std::char_traits<char>,std::allocator<char> >::_Construct<1,char const *>
; File C:\Program Files\Microsoft Visual Studio\2022\Community\VC\Tools\MSVC\14.34.31933\include\vector

; 1962 :         return _My_data._Myfirst[_Pos];

  00866	8b 56 28	 mov	 edx, DWORD PTR [esi+40]
  00869	81 c2 a8 00 00
	00		 add	 edx, 168		; 000000a8H
; File C:\Users\Marian\Desktop\Aeldra\ProjectA-main\Binary\Client\PRTerrainLib\TextureSet.cpp

; 74   : 		const std::string & c_rstrBegin		= rVector[6].c_str();

  0086f	c6 45 fc 0b	 mov	 BYTE PTR __$EHRec$[ebp+8], 11 ; 0000000bH
; File C:\Program Files\Microsoft Visual Studio\2022\Community\VC\Tools\MSVC\14.34.31933\include\xstring

; 2293 :         if (_Large_string_engaged()) {

  00873	83 7a 14 10	 cmp	 DWORD PTR [edx+20], 16	; 00000010H
  00877	72 02		 jb	 SHORT $LN815@Load

; 2294 :             _Result = _Unfancy(_Bx._Ptr);

  00879	8b 12		 mov	 edx, DWORD PTR [edx]
$LN815@Load:

; 418  :         return _CSTD strlen(reinterpret_cast<const char*>(_First));

  0087b	8b ca		 mov	 ecx, edx

; 2349 :     size_type _Mysize = 0; // current length of string

  0087d	c7 85 7c ff ff
	ff 00 00 00 00	 mov	 DWORD PTR _$S8$21[ebp+16], 0
  00887	0f 57 c0	 xorps	 xmm0, xmm0

; 2350 :     size_type _Myres  = 0; // current storage reserved for string

  0088a	c7 45 80 00 00
	00 00		 mov	 DWORD PTR _$S8$21[ebp+20], 0

; 2341 :         _CONSTEXPR20 _Bxty() noexcept : _Buf() {} // user-provided, for fancy pointers

  00891	0f 11 85 6c ff
	ff ff		 movups	 XMMWORD PTR _$S8$21[ebp], xmm0

; 418  :         return _CSTD strlen(reinterpret_cast<const char*>(_First));

  00898	8d 71 01	 lea	 esi, DWORD PTR [ecx+1]
  0089b	0f 1f 44 00 00	 npad	 5
$LL1159@Load:
  008a0	8a 01		 mov	 al, BYTE PTR [ecx]
  008a2	41		 inc	 ecx
  008a3	84 c0		 test	 al, al
  008a5	75 f9		 jne	 SHORT $LL1159@Load
  008a7	2b ce		 sub	 ecx, esi

; 2675 :         _Construct<_Construct_strategy::_From_ptr>(_Ptr, _Convert_size<size_type>(_Traits::length(_Ptr)));

  008a9	51		 push	 ecx
  008aa	52		 push	 edx
  008ab	8d 8d 6c ff ff
	ff		 lea	 ecx, DWORD PTR _$S8$21[ebp]
  008b1	e8 00 00 00 00	 call	 ??$_Construct@$00PBD@?$basic_string@DU?$char_traits@D@std@@V?$allocator@D@2@@std@@AAEXQBDI@Z ; std::basic_string<char,std::char_traits<char>,std::allocator<char> >::_Construct<1,char const *>

; 2293 :         if (_Large_string_engaged()) {

  008b6	83 bd f0 fe ff
	ff 10		 cmp	 DWORD PTR _$S2$15[ebp+20], 16 ; 00000010H
  008bd	8d 85 dc fe ff
	ff		 lea	 eax, DWORD PTR _$S2$15[ebp]
; File C:\Users\Marian\Desktop\Aeldra\ProjectA-main\Binary\Client\PRTerrainLib\TextureSet.cpp

; 75   : 		const std::string & c_rstrEnd		= rVector[7].c_str();

  008c3	c6 45 fc 0c	 mov	 BYTE PTR __$EHRec$[ebp+8], 12 ; 0000000cH
; File C:\Program Files\Microsoft Visual Studio\2022\Community\VC\Tools\MSVC\14.34.31933\include\xstring

; 2293 :         if (_Large_string_engaged()) {

  008c7	0f 43 85 dc fe
	ff ff		 cmovae	 eax, DWORD PTR _$S2$15[ebp]
; File C:\Users\Marian\Desktop\Aeldra\ProjectA-main\Binary\Client\PRTerrainLib\TextureSet.cpp

; 81   : 		fuScale	= atof(c_rstrUScale.c_str());

  008ce	50		 push	 eax
  008cf	e8 00 00 00 00	 call	 _atof
; File C:\Program Files\Microsoft Visual Studio\2022\Community\VC\Tools\MSVC\14.34.31933\include\xstring

; 2293 :         if (_Large_string_engaged()) {

  008d4	83 bd 08 ff ff
	ff 10		 cmp	 DWORD PTR _$S3$16[ebp+20], 16 ; 00000010H
  008db	8d 85 f4 fe ff
	ff		 lea	 eax, DWORD PTR _$S3$16[ebp]
; File C:\Users\Marian\Desktop\Aeldra\ProjectA-main\Binary\Client\PRTerrainLib\TextureSet.cpp

; 81   : 		fuScale	= atof(c_rstrUScale.c_str());

  008e1	d9 9d a0 fe ff
	ff		 fstp	 DWORD PTR _fuScale$2[ebp]
; File C:\Program Files\Microsoft Visual Studio\2022\Community\VC\Tools\MSVC\14.34.31933\include\xstring

; 2293 :         if (_Large_string_engaged()) {

  008e7	0f 43 85 f4 fe
	ff ff		 cmovae	 eax, DWORD PTR _$S3$16[ebp]
; File C:\Users\Marian\Desktop\Aeldra\ProjectA-main\Binary\Client\PRTerrainLib\TextureSet.cpp

; 82   : 		fvScale = atof(c_rstrVScale.c_str());

  008ee	50		 push	 eax
  008ef	e8 00 00 00 00	 call	 _atof
; File C:\Program Files\Microsoft Visual Studio\2022\Community\VC\Tools\MSVC\14.34.31933\include\xstring

; 2293 :         if (_Large_string_engaged()) {

  008f4	83 bd 20 ff ff
	ff 10		 cmp	 DWORD PTR _$S4$17[ebp+20], 16 ; 00000010H
  008fb	8d 85 0c ff ff
	ff		 lea	 eax, DWORD PTR _$S4$17[ebp]
; File C:\Users\Marian\Desktop\Aeldra\ProjectA-main\Binary\Client\PRTerrainLib\TextureSet.cpp

; 82   : 		fvScale = atof(c_rstrVScale.c_str());

  00901	d9 9d a4 fe ff
	ff		 fstp	 DWORD PTR _fvScale$3[ebp]
; File C:\Program Files\Microsoft Visual Studio\2022\Community\VC\Tools\MSVC\14.34.31933\include\xstring

; 2293 :         if (_Large_string_engaged()) {

  00907	0f 43 85 0c ff
	ff ff		 cmovae	 eax, DWORD PTR _$S4$17[ebp]
; File C:\Users\Marian\Desktop\Aeldra\ProjectA-main\Binary\Client\PRTerrainLib\TextureSet.cpp

; 83   : 		fuOffset = atof(c_rstrUOffset.c_str());

  0090e	50		 push	 eax
  0090f	e8 00 00 00 00	 call	 _atof
; File C:\Program Files\Microsoft Visual Studio\2022\Community\VC\Tools\MSVC\14.34.31933\include\xstring

; 2293 :         if (_Large_string_engaged()) {

  00914	83 bd 38 ff ff
	ff 10		 cmp	 DWORD PTR _$S5$18[ebp+20], 16 ; 00000010H
  0091b	8d 85 24 ff ff
	ff		 lea	 eax, DWORD PTR _$S5$18[ebp]
; File C:\Users\Marian\Desktop\Aeldra\ProjectA-main\Binary\Client\PRTerrainLib\TextureSet.cpp

; 83   : 		fuOffset = atof(c_rstrUOffset.c_str());

  00921	d9 9d a8 fe ff
	ff		 fstp	 DWORD PTR _fuOffset$4[ebp]
; File C:\Program Files\Microsoft Visual Studio\2022\Community\VC\Tools\MSVC\14.34.31933\include\xstring

; 2293 :         if (_Large_string_engaged()) {

  00927	0f 43 85 24 ff
	ff ff		 cmovae	 eax, DWORD PTR _$S5$18[ebp]
; File C:\Users\Marian\Desktop\Aeldra\ProjectA-main\Binary\Client\PRTerrainLib\TextureSet.cpp

; 84   : 		fvOffset = atof(c_rstrVOffset.c_str());

  0092e	50		 push	 eax
  0092f	e8 00 00 00 00	 call	 _atof
; File C:\Program Files\Microsoft Visual Studio\2022\Community\VC\Tools\MSVC\14.34.31933\include\xstring

; 2293 :         if (_Large_string_engaged()) {

  00934	83 bd 50 ff ff
	ff 10		 cmp	 DWORD PTR _$S6$19[ebp+20], 16 ; 00000010H
  0093b	8d 85 3c ff ff
	ff		 lea	 eax, DWORD PTR _$S6$19[ebp]
; File C:\Users\Marian\Desktop\Aeldra\ProjectA-main\Binary\Client\PRTerrainLib\TextureSet.cpp

; 84   : 		fvOffset = atof(c_rstrVOffset.c_str());

  00941	d9 9d b8 fe ff
	ff		 fstp	 DWORD PTR _fvOffset$7[ebp]
; File C:\Program Files\Microsoft Visual Studio\2022\Community\VC\Tools\MSVC\14.34.31933\include\xstring

; 2293 :         if (_Large_string_engaged()) {

  00947	0f 43 85 3c ff
	ff ff		 cmovae	 eax, DWORD PTR _$S6$19[ebp]
; File C:\Users\Marian\Desktop\Aeldra\ProjectA-main\Binary\Client\PRTerrainLib\TextureSet.cpp

; 85   : 		bSplat = 0 != atoi(c_rstrbSplat.c_str());

  0094e	50		 push	 eax
  0094f	e8 00 00 00 00	 call	 __atoi64
  00954	83 c4 14	 add	 esp, 20			; 00000014H
  00957	85 c0		 test	 eax, eax
  00959	75 0a		 jne	 SHORT $LN1160@Load
  0095b	88 85 c8 fe ff
	ff		 mov	 BYTE PTR _bSplat$12[ebp], al
  00961	85 d2		 test	 edx, edx
  00963	74 07		 je	 SHORT $LN12@Load
$LN1160@Load:
  00965	c6 85 c8 fe ff
	ff 01		 mov	 BYTE PTR _bSplat$12[ebp], 1
$LN12@Load:
; File C:\Program Files\Microsoft Visual Studio\2022\Community\VC\Tools\MSVC\14.34.31933\include\xstring

; 2293 :         if (_Large_string_engaged()) {

  0096c	83 bd 68 ff ff
	ff 10		 cmp	 DWORD PTR _$S7$20[ebp+20], 16 ; 00000010H
  00973	8d 85 54 ff ff
	ff		 lea	 eax, DWORD PTR _$S7$20[ebp]
  00979	0f 43 85 54 ff
	ff ff		 cmovae	 eax, DWORD PTR _$S7$20[ebp]
; File C:\Users\Marian\Desktop\Aeldra\ProjectA-main\Binary\Client\PRTerrainLib\TextureSet.cpp

; 86   : 		usBegin = static_cast<unsigned short>(atoi(c_rstrBegin.c_str()));

  00980	50		 push	 eax
  00981	e8 00 00 00 00	 call	 __atoi64
; File C:\Program Files\Microsoft Visual Studio\2022\Community\VC\Tools\MSVC\14.34.31933\include\xstring

; 2293 :         if (_Large_string_engaged()) {

  00986	83 7d 80 10	 cmp	 DWORD PTR _$S8$21[ebp+20], 16 ; 00000010H
; File C:\Users\Marian\Desktop\Aeldra\ProjectA-main\Binary\Client\PRTerrainLib\TextureSet.cpp

; 86   : 		usBegin = static_cast<unsigned short>(atoi(c_rstrBegin.c_str()));

  0098a	0f b7 f0	 movzx	 esi, ax
; File C:\Program Files\Microsoft Visual Studio\2022\Community\VC\Tools\MSVC\14.34.31933\include\xstring

; 2292 :         const value_type* _Result = _Bx._Buf;

  0098d	8d 85 6c ff ff
	ff		 lea	 eax, DWORD PTR _$S8$21[ebp]

; 2293 :         if (_Large_string_engaged()) {

  00993	0f 43 85 6c ff
	ff ff		 cmovae	 eax, DWORD PTR _$S8$21[ebp]
; File C:\Users\Marian\Desktop\Aeldra\ProjectA-main\Binary\Client\PRTerrainLib\TextureSet.cpp

; 87   : 		usEnd = static_cast<unsigned short>(atoi(c_rstrEnd.c_str()));

  0099a	50		 push	 eax
  0099b	e8 00 00 00 00	 call	 __atoi64
; File C:\Program Files\Microsoft Visual Studio\2022\Community\VC\Tools\MSVC\14.34.31933\include\xstring

; 2293 :         if (_Large_string_engaged()) {

  009a0	83 7d c8 10	 cmp	 DWORD PTR _$S1$26[ebp+20], 16 ; 00000010H
  009a4	8d 4d b4	 lea	 ecx, DWORD PTR _$S1$26[ebp]
; File C:\Users\Marian\Desktop\Aeldra\ProjectA-main\Binary\Client\PRTerrainLib\TextureSet.cpp

; 89   : 		if (!SetTexture(i + 1, c_rstrFileName.c_str(), fuScale, fvScale, fuOffset, fvOffset, bSplat, usBegin, usEnd, fTerrainTexCoordBase))

  009a7	f3 0f 10 45 0c	 movss	 xmm0, DWORD PTR _fTerrainTexCoordBase$[ebp]
; File C:\Program Files\Microsoft Visual Studio\2022\Community\VC\Tools\MSVC\14.34.31933\include\xstring

; 2293 :         if (_Large_string_engaged()) {

  009ac	0f 43 4d b4	 cmovae	 ecx, DWORD PTR _$S1$26[ebp]
; File C:\Users\Marian\Desktop\Aeldra\ProjectA-main\Binary\Client\PRTerrainLib\TextureSet.cpp

; 89   : 		if (!SetTexture(i + 1, c_rstrFileName.c_str(), fuScale, fvScale, fuOffset, fvOffset, bSplat, usBegin, usEnd, fTerrainTexCoordBase))

  009b0	83 c4 04	 add	 esp, 4
  009b3	0f b7 c0	 movzx	 eax, ax
  009b6	f3 0f 11 04 24	 movss	 DWORD PTR [esp], xmm0
  009bb	f3 0f 10 85 b8
	fe ff ff	 movss	 xmm0, DWORD PTR _fvOffset$7[ebp]
  009c3	50		 push	 eax
  009c4	56		 push	 esi
  009c5	ff b5 c8 fe ff
	ff		 push	 DWORD PTR _bSplat$12[ebp]
  009cb	83 ec 10	 sub	 esp, 16			; 00000010H
  009ce	f3 0f 11 44 24
	0c		 movss	 DWORD PTR [esp+12], xmm0
  009d4	f3 0f 10 85 a8
	fe ff ff	 movss	 xmm0, DWORD PTR _fuOffset$4[ebp]
  009dc	f3 0f 11 44 24
	08		 movss	 DWORD PTR [esp+8], xmm0
  009e2	f3 0f 10 85 a4
	fe ff ff	 movss	 xmm0, DWORD PTR _fvScale$3[ebp]
  009ea	f3 0f 11 44 24
	04		 movss	 DWORD PTR [esp+4], xmm0
  009f0	f3 0f 10 85 a0
	fe ff ff	 movss	 xmm0, DWORD PTR _fuScale$2[ebp]
  009f8	f3 0f 11 04 24	 movss	 DWORD PTR [esp], xmm0
  009fd	51		 push	 ecx
  009fe	ff b5 9c fe ff
	ff		 push	 DWORD PTR tv4905[ebp]
  00a04	8b 8d cc fe ff
	ff		 mov	 ecx, DWORD PTR _this$1$[ebp]
  00a0a	e8 00 00 00 00	 call	 ?SetTexture@CTextureSet@@QAE_NKPBDMMMM_NGGM@Z ; CTextureSet::SetTexture
  00a0f	84 c0		 test	 al, al
  00a11	75 19		 jne	 SHORT $LN9@Load
; File C:\Program Files\Microsoft Visual Studio\2022\Community\VC\Tools\MSVC\14.34.31933\include\xstring

; 2293 :         if (_Large_string_engaged()) {

  00a13	83 7d c8 10	 cmp	 DWORD PTR _$S1$26[ebp+20], 16 ; 00000010H
  00a17	8d 45 b4	 lea	 eax, DWORD PTR _$S1$26[ebp]
  00a1a	0f 43 45 b4	 cmovae	 eax, DWORD PTR _$S1$26[ebp]
; File C:\Users\Marian\Desktop\Aeldra\ProjectA-main\Binary\Client\PRTerrainLib\TextureSet.cpp

; 90   : 			TraceError("CTextureSet::Load : SetTexture failed : Filename: %s", c_rstrFileName.c_str());

  00a1e	50		 push	 eax
  00a1f	68 00 00 00 00	 push	 OFFSET ??_C@_0DF@CFOIFDDM@CTextureSet?3?3Load?5?3?5SetTexture?5@
  00a24	e8 00 00 00 00	 call	 ?TraceError@@YAXPBDZZ	; TraceError
  00a29	83 c4 08	 add	 esp, 8
$LN9@Load:
; File C:\Program Files\Microsoft Visual Studio\2022\Community\VC\Tools\MSVC\14.34.31933\include\xstring

; 5011 :         if (_My_data._Large_string_engaged()) {

  00a2c	8b 4d 80	 mov	 ecx, DWORD PTR _$S8$21[ebp+20]
; File C:\Users\Marian\Desktop\Aeldra\ProjectA-main\Binary\Client\PRTerrainLib\TextureSet.cpp

; 91   : 	}

  00a2f	c6 45 fc 0b	 mov	 BYTE PTR __$EHRec$[ebp+8], 11 ; 0000000bH
; File C:\Program Files\Microsoft Visual Studio\2022\Community\VC\Tools\MSVC\14.34.31933\include\xstring

; 5011 :         if (_My_data._Large_string_engaged()) {

  00a33	83 f9 10	 cmp	 ecx, 16			; 00000010H
  00a36	72 2f		 jb	 SHORT $LN293@Load
; File C:\Program Files\Microsoft Visual Studio\2022\Community\VC\Tools\MSVC\14.34.31933\include\xmemory

; 830  :         _Deallocate<_New_alignof<_Ty>>(_Ptr, sizeof(_Ty) * _Count);

  00a38	8b 95 6c ff ff
	ff		 mov	 edx, DWORD PTR _$S8$21[ebp]
; File C:\Program Files\Microsoft Visual Studio\2022\Community\VC\Tools\MSVC\14.34.31933\include\xstring

; 5016 :             _Al.deallocate(_Ptr, _My_data._Myres + 1);

  00a3e	41		 inc	 ecx
; File C:\Program Files\Microsoft Visual Studio\2022\Community\VC\Tools\MSVC\14.34.31933\include\xmemory

; 830  :         _Deallocate<_New_alignof<_Ty>>(_Ptr, sizeof(_Ty) * _Count);

  00a3f	8b c2		 mov	 eax, edx

; 251  :         if (_Bytes >= _Big_allocation_threshold) { // boost the alignment of big allocations to help autovectorization

  00a41	81 f9 00 10 00
	00		 cmp	 ecx, 4096		; 00001000H
  00a47	72 14		 jb	 SHORT $LN303@Load

; 150  :     const uintptr_t _Ptr_container   = _Ptr_user[-1];

  00a49	8b 50 fc	 mov	 edx, DWORD PTR [eax-4]
  00a4c	83 c1 23	 add	 ecx, 35			; 00000023H
  00a4f	2b c2		 sub	 eax, edx

; 151  : 
; 152  :     // If the following asserts, it likely means that we are performing
; 153  :     // an aligned delete on memory coming from an unaligned allocation.
; 154  :     _STL_ASSERT(_Ptr_user[-2] == _Big_allocation_sentinel, "invalid argument");
; 155  : 
; 156  :     // Extra paranoia on aligned allocation/deallocation; ensure _Ptr_container is
; 157  :     // in range [_Min_back_shift, _Non_user_size]
; 158  : #ifdef _DEBUG
; 159  :     constexpr uintptr_t _Min_back_shift = 2 * sizeof(void*);
; 160  : #else // ^^^ _DEBUG ^^^ // vvv !_DEBUG vvv
; 161  :     constexpr uintptr_t _Min_back_shift = sizeof(void*);
; 162  : #endif // _DEBUG
; 163  :     const uintptr_t _Back_shift = reinterpret_cast<uintptr_t>(_Ptr) - _Ptr_container;
; 164  :     _STL_VERIFY(_Back_shift >= _Min_back_shift && _Back_shift <= _Non_user_size, "invalid argument");

  00a51	83 c0 fc	 add	 eax, -4			; fffffffcH
  00a54	83 f8 1f	 cmp	 eax, 31			; 0000001fH
  00a57	0f 87 02 03 00
	00		 ja	 $LN655@Load
$LN303@Load:

; 255  :         ::operator delete(_Ptr, _Bytes);

  00a5d	51		 push	 ecx
  00a5e	52		 push	 edx
  00a5f	e8 00 00 00 00	 call	 ??3@YAXPAXI@Z		; operator delete
  00a64	83 c4 08	 add	 esp, 8
$LN293@Load:
; File C:\Program Files\Microsoft Visual Studio\2022\Community\VC\Tools\MSVC\14.34.31933\include\xstring

; 5011 :         if (_My_data._Large_string_engaged()) {

  00a67	8b 8d 68 ff ff
	ff		 mov	 ecx, DWORD PTR _$S7$20[ebp+20]

; 5019 :         _My_data._Mysize = 0;

  00a6d	c7 85 7c ff ff
	ff 00 00 00 00	 mov	 DWORD PTR _$S8$21[ebp+16], 0

; 5020 :         _My_data._Myres  = _BUF_SIZE - 1;

  00a77	c7 45 80 0f 00
	00 00		 mov	 DWORD PTR _$S8$21[ebp+20], 15 ; 0000000fH

; 5021 :         // the _Traits::assign is last so the codegen doesn't think the char write can alias this
; 5022 :         _Traits::assign(_My_data._Bx._Buf[0], _Elem());

  00a7e	c6 85 6c ff ff
	ff 00		 mov	 BYTE PTR _$S8$21[ebp], 0
; File C:\Users\Marian\Desktop\Aeldra\ProjectA-main\Binary\Client\PRTerrainLib\TextureSet.cpp

; 91   : 	}

  00a85	c6 45 fc 0a	 mov	 BYTE PTR __$EHRec$[ebp+8], 10 ; 0000000aH
; File C:\Program Files\Microsoft Visual Studio\2022\Community\VC\Tools\MSVC\14.34.31933\include\xstring

; 5011 :         if (_My_data._Large_string_engaged()) {

  00a89	83 f9 10	 cmp	 ecx, 16			; 00000010H
  00a8c	72 2f		 jb	 SHORT $LN482@Load
; File C:\Program Files\Microsoft Visual Studio\2022\Community\VC\Tools\MSVC\14.34.31933\include\xmemory

; 830  :         _Deallocate<_New_alignof<_Ty>>(_Ptr, sizeof(_Ty) * _Count);

  00a8e	8b 95 54 ff ff
	ff		 mov	 edx, DWORD PTR _$S7$20[ebp]
; File C:\Program Files\Microsoft Visual Studio\2022\Community\VC\Tools\MSVC\14.34.31933\include\xstring

; 5016 :             _Al.deallocate(_Ptr, _My_data._Myres + 1);

  00a94	41		 inc	 ecx
; File C:\Program Files\Microsoft Visual Studio\2022\Community\VC\Tools\MSVC\14.34.31933\include\xmemory

; 830  :         _Deallocate<_New_alignof<_Ty>>(_Ptr, sizeof(_Ty) * _Count);

  00a95	8b c2		 mov	 eax, edx

; 251  :         if (_Bytes >= _Big_allocation_threshold) { // boost the alignment of big allocations to help autovectorization

  00a97	81 f9 00 10 00
	00		 cmp	 ecx, 4096		; 00001000H
  00a9d	72 14		 jb	 SHORT $LN492@Load

; 150  :     const uintptr_t _Ptr_container   = _Ptr_user[-1];

  00a9f	8b 50 fc	 mov	 edx, DWORD PTR [eax-4]
  00aa2	83 c1 23	 add	 ecx, 35			; 00000023H
  00aa5	2b c2		 sub	 eax, edx

; 151  : 
; 152  :     // If the following asserts, it likely means that we are performing
; 153  :     // an aligned delete on memory coming from an unaligned allocation.
; 154  :     _STL_ASSERT(_Ptr_user[-2] == _Big_allocation_sentinel, "invalid argument");
; 155  : 
; 156  :     // Extra paranoia on aligned allocation/deallocation; ensure _Ptr_container is
; 157  :     // in range [_Min_back_shift, _Non_user_size]
; 158  : #ifdef _DEBUG
; 159  :     constexpr uintptr_t _Min_back_shift = 2 * sizeof(void*);
; 160  : #else // ^^^ _DEBUG ^^^ // vvv !_DEBUG vvv
; 161  :     constexpr uintptr_t _Min_back_shift = sizeof(void*);
; 162  : #endif // _DEBUG
; 163  :     const uintptr_t _Back_shift = reinterpret_cast<uintptr_t>(_Ptr) - _Ptr_container;
; 164  :     _STL_VERIFY(_Back_shift >= _Min_back_shift && _Back_shift <= _Non_user_size, "invalid argument");

  00aa7	83 c0 fc	 add	 eax, -4			; fffffffcH
  00aaa	83 f8 1f	 cmp	 eax, 31			; 0000001fH
  00aad	0f 87 ac 02 00
	00		 ja	 $LN655@Load
$LN492@Load:

; 255  :         ::operator delete(_Ptr, _Bytes);

  00ab3	51		 push	 ecx
  00ab4	52		 push	 edx
  00ab5	e8 00 00 00 00	 call	 ??3@YAXPAXI@Z		; operator delete
  00aba	83 c4 08	 add	 esp, 8
$LN482@Load:
; File C:\Program Files\Microsoft Visual Studio\2022\Community\VC\Tools\MSVC\14.34.31933\include\xstring

; 5011 :         if (_My_data._Large_string_engaged()) {

  00abd	8b 8d 50 ff ff
	ff		 mov	 ecx, DWORD PTR _$S6$19[ebp+20]

; 5019 :         _My_data._Mysize = 0;

  00ac3	c7 85 64 ff ff
	ff 00 00 00 00	 mov	 DWORD PTR _$S7$20[ebp+16], 0

; 5020 :         _My_data._Myres  = _BUF_SIZE - 1;

  00acd	c7 85 68 ff ff
	ff 0f 00 00 00	 mov	 DWORD PTR _$S7$20[ebp+20], 15 ; 0000000fH

; 5021 :         // the _Traits::assign is last so the codegen doesn't think the char write can alias this
; 5022 :         _Traits::assign(_My_data._Bx._Buf[0], _Elem());

  00ad7	c6 85 54 ff ff
	ff 00		 mov	 BYTE PTR _$S7$20[ebp], 0
; File C:\Users\Marian\Desktop\Aeldra\ProjectA-main\Binary\Client\PRTerrainLib\TextureSet.cpp

; 91   : 	}

  00ade	c6 45 fc 09	 mov	 BYTE PTR __$EHRec$[ebp+8], 9
; File C:\Program Files\Microsoft Visual Studio\2022\Community\VC\Tools\MSVC\14.34.31933\include\xstring

; 5011 :         if (_My_data._Large_string_engaged()) {

  00ae2	83 f9 10	 cmp	 ecx, 16			; 00000010H
  00ae5	72 2f		 jb	 SHORT $LN320@Load
; File C:\Program Files\Microsoft Visual Studio\2022\Community\VC\Tools\MSVC\14.34.31933\include\xmemory

; 830  :         _Deallocate<_New_alignof<_Ty>>(_Ptr, sizeof(_Ty) * _Count);

  00ae7	8b 95 3c ff ff
	ff		 mov	 edx, DWORD PTR _$S6$19[ebp]
; File C:\Program Files\Microsoft Visual Studio\2022\Community\VC\Tools\MSVC\14.34.31933\include\xstring

; 5016 :             _Al.deallocate(_Ptr, _My_data._Myres + 1);

  00aed	41		 inc	 ecx
; File C:\Program Files\Microsoft Visual Studio\2022\Community\VC\Tools\MSVC\14.34.31933\include\xmemory

; 830  :         _Deallocate<_New_alignof<_Ty>>(_Ptr, sizeof(_Ty) * _Count);

  00aee	8b c2		 mov	 eax, edx

; 251  :         if (_Bytes >= _Big_allocation_threshold) { // boost the alignment of big allocations to help autovectorization

  00af0	81 f9 00 10 00
	00		 cmp	 ecx, 4096		; 00001000H
  00af6	72 14		 jb	 SHORT $LN330@Load

; 150  :     const uintptr_t _Ptr_container   = _Ptr_user[-1];

  00af8	8b 50 fc	 mov	 edx, DWORD PTR [eax-4]
  00afb	83 c1 23	 add	 ecx, 35			; 00000023H
  00afe	2b c2		 sub	 eax, edx

; 151  : 
; 152  :     // If the following asserts, it likely means that we are performing
; 153  :     // an aligned delete on memory coming from an unaligned allocation.
; 154  :     _STL_ASSERT(_Ptr_user[-2] == _Big_allocation_sentinel, "invalid argument");
; 155  : 
; 156  :     // Extra paranoia on aligned allocation/deallocation; ensure _Ptr_container is
; 157  :     // in range [_Min_back_shift, _Non_user_size]
; 158  : #ifdef _DEBUG
; 159  :     constexpr uintptr_t _Min_back_shift = 2 * sizeof(void*);
; 160  : #else // ^^^ _DEBUG ^^^ // vvv !_DEBUG vvv
; 161  :     constexpr uintptr_t _Min_back_shift = sizeof(void*);
; 162  : #endif // _DEBUG
; 163  :     const uintptr_t _Back_shift = reinterpret_cast<uintptr_t>(_Ptr) - _Ptr_container;
; 164  :     _STL_VERIFY(_Back_shift >= _Min_back_shift && _Back_shift <= _Non_user_size, "invalid argument");

  00b00	83 c0 fc	 add	 eax, -4			; fffffffcH
  00b03	83 f8 1f	 cmp	 eax, 31			; 0000001fH
  00b06	0f 87 53 02 00
	00		 ja	 $LN655@Load
$LN330@Load:

; 255  :         ::operator delete(_Ptr, _Bytes);

  00b0c	51		 push	 ecx
  00b0d	52		 push	 edx
  00b0e	e8 00 00 00 00	 call	 ??3@YAXPAXI@Z		; operator delete
  00b13	83 c4 08	 add	 esp, 8
$LN320@Load:
; File C:\Program Files\Microsoft Visual Studio\2022\Community\VC\Tools\MSVC\14.34.31933\include\xstring

; 5011 :         if (_My_data._Large_string_engaged()) {

  00b16	8b 8d 38 ff ff
	ff		 mov	 ecx, DWORD PTR _$S5$18[ebp+20]

; 5019 :         _My_data._Mysize = 0;

  00b1c	c7 85 4c ff ff
	ff 00 00 00 00	 mov	 DWORD PTR _$S6$19[ebp+16], 0

; 5020 :         _My_data._Myres  = _BUF_SIZE - 1;

  00b26	c7 85 50 ff ff
	ff 0f 00 00 00	 mov	 DWORD PTR _$S6$19[ebp+20], 15 ; 0000000fH

; 5021 :         // the _Traits::assign is last so the codegen doesn't think the char write can alias this
; 5022 :         _Traits::assign(_My_data._Bx._Buf[0], _Elem());

  00b30	c6 85 3c ff ff
	ff 00		 mov	 BYTE PTR _$S6$19[ebp], 0
; File C:\Users\Marian\Desktop\Aeldra\ProjectA-main\Binary\Client\PRTerrainLib\TextureSet.cpp

; 91   : 	}

  00b37	c6 45 fc 08	 mov	 BYTE PTR __$EHRec$[ebp+8], 8
; File C:\Program Files\Microsoft Visual Studio\2022\Community\VC\Tools\MSVC\14.34.31933\include\xstring

; 5011 :         if (_My_data._Large_string_engaged()) {

  00b3b	83 f9 10	 cmp	 ecx, 16			; 00000010H
  00b3e	72 2f		 jb	 SHORT $LN347@Load
; File C:\Program Files\Microsoft Visual Studio\2022\Community\VC\Tools\MSVC\14.34.31933\include\xmemory

; 830  :         _Deallocate<_New_alignof<_Ty>>(_Ptr, sizeof(_Ty) * _Count);

  00b40	8b 95 24 ff ff
	ff		 mov	 edx, DWORD PTR _$S5$18[ebp]
; File C:\Program Files\Microsoft Visual Studio\2022\Community\VC\Tools\MSVC\14.34.31933\include\xstring

; 5016 :             _Al.deallocate(_Ptr, _My_data._Myres + 1);

  00b46	41		 inc	 ecx
; File C:\Program Files\Microsoft Visual Studio\2022\Community\VC\Tools\MSVC\14.34.31933\include\xmemory

; 830  :         _Deallocate<_New_alignof<_Ty>>(_Ptr, sizeof(_Ty) * _Count);

  00b47	8b c2		 mov	 eax, edx

; 251  :         if (_Bytes >= _Big_allocation_threshold) { // boost the alignment of big allocations to help autovectorization

  00b49	81 f9 00 10 00
	00		 cmp	 ecx, 4096		; 00001000H
  00b4f	72 14		 jb	 SHORT $LN357@Load

; 150  :     const uintptr_t _Ptr_container   = _Ptr_user[-1];

  00b51	8b 50 fc	 mov	 edx, DWORD PTR [eax-4]
  00b54	83 c1 23	 add	 ecx, 35			; 00000023H
  00b57	2b c2		 sub	 eax, edx

; 151  : 
; 152  :     // If the following asserts, it likely means that we are performing
; 153  :     // an aligned delete on memory coming from an unaligned allocation.
; 154  :     _STL_ASSERT(_Ptr_user[-2] == _Big_allocation_sentinel, "invalid argument");
; 155  : 
; 156  :     // Extra paranoia on aligned allocation/deallocation; ensure _Ptr_container is
; 157  :     // in range [_Min_back_shift, _Non_user_size]
; 158  : #ifdef _DEBUG
; 159  :     constexpr uintptr_t _Min_back_shift = 2 * sizeof(void*);
; 160  : #else // ^^^ _DEBUG ^^^ // vvv !_DEBUG vvv
; 161  :     constexpr uintptr_t _Min_back_shift = sizeof(void*);
; 162  : #endif // _DEBUG
; 163  :     const uintptr_t _Back_shift = reinterpret_cast<uintptr_t>(_Ptr) - _Ptr_container;
; 164  :     _STL_VERIFY(_Back_shift >= _Min_back_shift && _Back_shift <= _Non_user_size, "invalid argument");

  00b59	83 c0 fc	 add	 eax, -4			; fffffffcH
  00b5c	83 f8 1f	 cmp	 eax, 31			; 0000001fH
  00b5f	0f 87 fa 01 00
	00		 ja	 $LN655@Load
$LN357@Load:

; 255  :         ::operator delete(_Ptr, _Bytes);

  00b65	51		 push	 ecx
  00b66	52		 push	 edx
  00b67	e8 00 00 00 00	 call	 ??3@YAXPAXI@Z		; operator delete
  00b6c	83 c4 08	 add	 esp, 8
$LN347@Load:
; File C:\Program Files\Microsoft Visual Studio\2022\Community\VC\Tools\MSVC\14.34.31933\include\xstring

; 5011 :         if (_My_data._Large_string_engaged()) {

  00b6f	8b 8d 20 ff ff
	ff		 mov	 ecx, DWORD PTR _$S4$17[ebp+20]

; 5019 :         _My_data._Mysize = 0;

  00b75	c7 85 34 ff ff
	ff 00 00 00 00	 mov	 DWORD PTR _$S5$18[ebp+16], 0

; 5020 :         _My_data._Myres  = _BUF_SIZE - 1;

  00b7f	c7 85 38 ff ff
	ff 0f 00 00 00	 mov	 DWORD PTR _$S5$18[ebp+20], 15 ; 0000000fH

; 5021 :         // the _Traits::assign is last so the codegen doesn't think the char write can alias this
; 5022 :         _Traits::assign(_My_data._Bx._Buf[0], _Elem());

  00b89	c6 85 24 ff ff
	ff 00		 mov	 BYTE PTR _$S5$18[ebp], 0
; File C:\Users\Marian\Desktop\Aeldra\ProjectA-main\Binary\Client\PRTerrainLib\TextureSet.cpp

; 91   : 	}

  00b90	c6 45 fc 07	 mov	 BYTE PTR __$EHRec$[ebp+8], 7
; File C:\Program Files\Microsoft Visual Studio\2022\Community\VC\Tools\MSVC\14.34.31933\include\xstring

; 5011 :         if (_My_data._Large_string_engaged()) {

  00b94	83 f9 10	 cmp	 ecx, 16			; 00000010H
  00b97	72 2f		 jb	 SHORT $LN374@Load
; File C:\Program Files\Microsoft Visual Studio\2022\Community\VC\Tools\MSVC\14.34.31933\include\xmemory

; 830  :         _Deallocate<_New_alignof<_Ty>>(_Ptr, sizeof(_Ty) * _Count);

  00b99	8b 95 0c ff ff
	ff		 mov	 edx, DWORD PTR _$S4$17[ebp]
; File C:\Program Files\Microsoft Visual Studio\2022\Community\VC\Tools\MSVC\14.34.31933\include\xstring

; 5016 :             _Al.deallocate(_Ptr, _My_data._Myres + 1);

  00b9f	41		 inc	 ecx
; File C:\Program Files\Microsoft Visual Studio\2022\Community\VC\Tools\MSVC\14.34.31933\include\xmemory

; 830  :         _Deallocate<_New_alignof<_Ty>>(_Ptr, sizeof(_Ty) * _Count);

  00ba0	8b c2		 mov	 eax, edx

; 251  :         if (_Bytes >= _Big_allocation_threshold) { // boost the alignment of big allocations to help autovectorization

  00ba2	81 f9 00 10 00
	00		 cmp	 ecx, 4096		; 00001000H
  00ba8	72 14		 jb	 SHORT $LN384@Load

; 150  :     const uintptr_t _Ptr_container   = _Ptr_user[-1];

  00baa	8b 50 fc	 mov	 edx, DWORD PTR [eax-4]
  00bad	83 c1 23	 add	 ecx, 35			; 00000023H
  00bb0	2b c2		 sub	 eax, edx

; 151  : 
; 152  :     // If the following asserts, it likely means that we are performing
; 153  :     // an aligned delete on memory coming from an unaligned allocation.
; 154  :     _STL_ASSERT(_Ptr_user[-2] == _Big_allocation_sentinel, "invalid argument");
; 155  : 
; 156  :     // Extra paranoia on aligned allocation/deallocation; ensure _Ptr_container is
; 157  :     // in range [_Min_back_shift, _Non_user_size]
; 158  : #ifdef _DEBUG
; 159  :     constexpr uintptr_t _Min_back_shift = 2 * sizeof(void*);
; 160  : #else // ^^^ _DEBUG ^^^ // vvv !_DEBUG vvv
; 161  :     constexpr uintptr_t _Min_back_shift = sizeof(void*);
; 162  : #endif // _DEBUG
; 163  :     const uintptr_t _Back_shift = reinterpret_cast<uintptr_t>(_Ptr) - _Ptr_container;
; 164  :     _STL_VERIFY(_Back_shift >= _Min_back_shift && _Back_shift <= _Non_user_size, "invalid argument");

  00bb2	83 c0 fc	 add	 eax, -4			; fffffffcH
  00bb5	83 f8 1f	 cmp	 eax, 31			; 0000001fH
  00bb8	0f 87 a1 01 00
	00		 ja	 $LN655@Load
$LN384@Load:

; 255  :         ::operator delete(_Ptr, _Bytes);

  00bbe	51		 push	 ecx
  00bbf	52		 push	 edx
  00bc0	e8 00 00 00 00	 call	 ??3@YAXPAXI@Z		; operator delete
  00bc5	83 c4 08	 add	 esp, 8
$LN374@Load:
; File C:\Program Files\Microsoft Visual Studio\2022\Community\VC\Tools\MSVC\14.34.31933\include\xstring

; 5011 :         if (_My_data._Large_string_engaged()) {

  00bc8	8b 8d 08 ff ff
	ff		 mov	 ecx, DWORD PTR _$S3$16[ebp+20]

; 5019 :         _My_data._Mysize = 0;

  00bce	c7 85 1c ff ff
	ff 00 00 00 00	 mov	 DWORD PTR _$S4$17[ebp+16], 0

; 5020 :         _My_data._Myres  = _BUF_SIZE - 1;

  00bd8	c7 85 20 ff ff
	ff 0f 00 00 00	 mov	 DWORD PTR _$S4$17[ebp+20], 15 ; 0000000fH

; 5021 :         // the _Traits::assign is last so the codegen doesn't think the char write can alias this
; 5022 :         _Traits::assign(_My_data._Bx._Buf[0], _Elem());

  00be2	c6 85 0c ff ff
	ff 00		 mov	 BYTE PTR _$S4$17[ebp], 0
; File C:\Users\Marian\Desktop\Aeldra\ProjectA-main\Binary\Client\PRTerrainLib\TextureSet.cpp

; 91   : 	}

  00be9	c6 45 fc 06	 mov	 BYTE PTR __$EHRec$[ebp+8], 6
; File C:\Program Files\Microsoft Visual Studio\2022\Community\VC\Tools\MSVC\14.34.31933\include\xstring

; 5011 :         if (_My_data._Large_string_engaged()) {

  00bed	83 f9 10	 cmp	 ecx, 16			; 00000010H
  00bf0	72 2f		 jb	 SHORT $LN401@Load
; File C:\Program Files\Microsoft Visual Studio\2022\Community\VC\Tools\MSVC\14.34.31933\include\xmemory

; 830  :         _Deallocate<_New_alignof<_Ty>>(_Ptr, sizeof(_Ty) * _Count);

  00bf2	8b 95 f4 fe ff
	ff		 mov	 edx, DWORD PTR _$S3$16[ebp]
; File C:\Program Files\Microsoft Visual Studio\2022\Community\VC\Tools\MSVC\14.34.31933\include\xstring

; 5016 :             _Al.deallocate(_Ptr, _My_data._Myres + 1);

  00bf8	41		 inc	 ecx
; File C:\Program Files\Microsoft Visual Studio\2022\Community\VC\Tools\MSVC\14.34.31933\include\xmemory

; 830  :         _Deallocate<_New_alignof<_Ty>>(_Ptr, sizeof(_Ty) * _Count);

  00bf9	8b c2		 mov	 eax, edx

; 251  :         if (_Bytes >= _Big_allocation_threshold) { // boost the alignment of big allocations to help autovectorization

  00bfb	81 f9 00 10 00
	00		 cmp	 ecx, 4096		; 00001000H
  00c01	72 14		 jb	 SHORT $LN411@Load

; 150  :     const uintptr_t _Ptr_container   = _Ptr_user[-1];

  00c03	8b 50 fc	 mov	 edx, DWORD PTR [eax-4]
  00c06	83 c1 23	 add	 ecx, 35			; 00000023H
  00c09	2b c2		 sub	 eax, edx

; 151  : 
; 152  :     // If the following asserts, it likely means that we are performing
; 153  :     // an aligned delete on memory coming from an unaligned allocation.
; 154  :     _STL_ASSERT(_Ptr_user[-2] == _Big_allocation_sentinel, "invalid argument");
; 155  : 
; 156  :     // Extra paranoia on aligned allocation/deallocation; ensure _Ptr_container is
; 157  :     // in range [_Min_back_shift, _Non_user_size]
; 158  : #ifdef _DEBUG
; 159  :     constexpr uintptr_t _Min_back_shift = 2 * sizeof(void*);
; 160  : #else // ^^^ _DEBUG ^^^ // vvv !_DEBUG vvv
; 161  :     constexpr uintptr_t _Min_back_shift = sizeof(void*);
; 162  : #endif // _DEBUG
; 163  :     const uintptr_t _Back_shift = reinterpret_cast<uintptr_t>(_Ptr) - _Ptr_container;
; 164  :     _STL_VERIFY(_Back_shift >= _Min_back_shift && _Back_shift <= _Non_user_size, "invalid argument");

  00c0b	83 c0 fc	 add	 eax, -4			; fffffffcH
  00c0e	83 f8 1f	 cmp	 eax, 31			; 0000001fH
  00c11	0f 87 48 01 00
	00		 ja	 $LN655@Load
$LN411@Load:

; 255  :         ::operator delete(_Ptr, _Bytes);

  00c17	51		 push	 ecx
  00c18	52		 push	 edx
  00c19	e8 00 00 00 00	 call	 ??3@YAXPAXI@Z		; operator delete
  00c1e	83 c4 08	 add	 esp, 8
$LN401@Load:
; File C:\Program Files\Microsoft Visual Studio\2022\Community\VC\Tools\MSVC\14.34.31933\include\xstring

; 5011 :         if (_My_data._Large_string_engaged()) {

  00c21	8b 8d f0 fe ff
	ff		 mov	 ecx, DWORD PTR _$S2$15[ebp+20]

; 5019 :         _My_data._Mysize = 0;

  00c27	c7 85 04 ff ff
	ff 00 00 00 00	 mov	 DWORD PTR _$S3$16[ebp+16], 0

; 5020 :         _My_data._Myres  = _BUF_SIZE - 1;

  00c31	c7 85 08 ff ff
	ff 0f 00 00 00	 mov	 DWORD PTR _$S3$16[ebp+20], 15 ; 0000000fH

; 5021 :         // the _Traits::assign is last so the codegen doesn't think the char write can alias this
; 5022 :         _Traits::assign(_My_data._Bx._Buf[0], _Elem());

  00c3b	c6 85 f4 fe ff
	ff 00		 mov	 BYTE PTR _$S3$16[ebp], 0
; File C:\Users\Marian\Desktop\Aeldra\ProjectA-main\Binary\Client\PRTerrainLib\TextureSet.cpp

; 91   : 	}

  00c42	c6 45 fc 05	 mov	 BYTE PTR __$EHRec$[ebp+8], 5
; File C:\Program Files\Microsoft Visual Studio\2022\Community\VC\Tools\MSVC\14.34.31933\include\xstring

; 5011 :         if (_My_data._Large_string_engaged()) {

  00c46	83 f9 10	 cmp	 ecx, 16			; 00000010H
  00c49	72 2f		 jb	 SHORT $LN428@Load
; File C:\Program Files\Microsoft Visual Studio\2022\Community\VC\Tools\MSVC\14.34.31933\include\xmemory

; 830  :         _Deallocate<_New_alignof<_Ty>>(_Ptr, sizeof(_Ty) * _Count);

  00c4b	8b 95 dc fe ff
	ff		 mov	 edx, DWORD PTR _$S2$15[ebp]
; File C:\Program Files\Microsoft Visual Studio\2022\Community\VC\Tools\MSVC\14.34.31933\include\xstring

; 5016 :             _Al.deallocate(_Ptr, _My_data._Myres + 1);

  00c51	41		 inc	 ecx
; File C:\Program Files\Microsoft Visual Studio\2022\Community\VC\Tools\MSVC\14.34.31933\include\xmemory

; 830  :         _Deallocate<_New_alignof<_Ty>>(_Ptr, sizeof(_Ty) * _Count);

  00c52	8b c2		 mov	 eax, edx

; 251  :         if (_Bytes >= _Big_allocation_threshold) { // boost the alignment of big allocations to help autovectorization

  00c54	81 f9 00 10 00
	00		 cmp	 ecx, 4096		; 00001000H
  00c5a	72 14		 jb	 SHORT $LN438@Load

; 150  :     const uintptr_t _Ptr_container   = _Ptr_user[-1];

  00c5c	8b 50 fc	 mov	 edx, DWORD PTR [eax-4]
  00c5f	83 c1 23	 add	 ecx, 35			; 00000023H
  00c62	2b c2		 sub	 eax, edx

; 151  : 
; 152  :     // If the following asserts, it likely means that we are performing
; 153  :     // an aligned delete on memory coming from an unaligned allocation.
; 154  :     _STL_ASSERT(_Ptr_user[-2] == _Big_allocation_sentinel, "invalid argument");
; 155  : 
; 156  :     // Extra paranoia on aligned allocation/deallocation; ensure _Ptr_container is
; 157  :     // in range [_Min_back_shift, _Non_user_size]
; 158  : #ifdef _DEBUG
; 159  :     constexpr uintptr_t _Min_back_shift = 2 * sizeof(void*);
; 160  : #else // ^^^ _DEBUG ^^^ // vvv !_DEBUG vvv
; 161  :     constexpr uintptr_t _Min_back_shift = sizeof(void*);
; 162  : #endif // _DEBUG
; 163  :     const uintptr_t _Back_shift = reinterpret_cast<uintptr_t>(_Ptr) - _Ptr_container;
; 164  :     _STL_VERIFY(_Back_shift >= _Min_back_shift && _Back_shift <= _Non_user_size, "invalid argument");

  00c64	83 c0 fc	 add	 eax, -4			; fffffffcH
  00c67	83 f8 1f	 cmp	 eax, 31			; 0000001fH
  00c6a	0f 87 ef 00 00
	00		 ja	 $LN655@Load
$LN438@Load:

; 255  :         ::operator delete(_Ptr, _Bytes);

  00c70	51		 push	 ecx
  00c71	52		 push	 edx
  00c72	e8 00 00 00 00	 call	 ??3@YAXPAXI@Z		; operator delete
  00c77	83 c4 08	 add	 esp, 8
$LN428@Load:
; File C:\Program Files\Microsoft Visual Studio\2022\Community\VC\Tools\MSVC\14.34.31933\include\xstring

; 2301 :         return _BUF_SIZE <= _Myres;

  00c7a	8b 4d c8	 mov	 ecx, DWORD PTR _$S1$26[ebp+20]

; 5019 :         _My_data._Mysize = 0;

  00c7d	c7 85 ec fe ff
	ff 00 00 00 00	 mov	 DWORD PTR _$S2$15[ebp+16], 0

; 5020 :         _My_data._Myres  = _BUF_SIZE - 1;

  00c87	c7 85 f0 fe ff
	ff 0f 00 00 00	 mov	 DWORD PTR _$S2$15[ebp+20], 15 ; 0000000fH

; 5021 :         // the _Traits::assign is last so the codegen doesn't think the char write can alias this
; 5022 :         _Traits::assign(_My_data._Bx._Buf[0], _Elem());

  00c91	c6 85 dc fe ff
	ff 00		 mov	 BYTE PTR _$S2$15[ebp], 0
; File C:\Users\Marian\Desktop\Aeldra\ProjectA-main\Binary\Client\PRTerrainLib\TextureSet.cpp

; 91   : 	}

  00c98	c6 45 fc 00	 mov	 BYTE PTR __$EHRec$[ebp+8], 0
; File C:\Program Files\Microsoft Visual Studio\2022\Community\VC\Tools\MSVC\14.34.31933\include\xstring

; 2301 :         return _BUF_SIZE <= _Myres;

  00c9c	83 f9 10	 cmp	 ecx, 16			; 00000010H

; 5011 :         if (_My_data._Large_string_engaged()) {

  00c9f	72 2c		 jb	 SHORT $LN2@Load
; File C:\Program Files\Microsoft Visual Studio\2022\Community\VC\Tools\MSVC\14.34.31933\include\xmemory

; 830  :         _Deallocate<_New_alignof<_Ty>>(_Ptr, sizeof(_Ty) * _Count);

  00ca1	8b 55 b4	 mov	 edx, DWORD PTR _$S1$26[ebp]
; File C:\Program Files\Microsoft Visual Studio\2022\Community\VC\Tools\MSVC\14.34.31933\include\xstring

; 5016 :             _Al.deallocate(_Ptr, _My_data._Myres + 1);

  00ca4	41		 inc	 ecx
; File C:\Program Files\Microsoft Visual Studio\2022\Community\VC\Tools\MSVC\14.34.31933\include\xmemory

; 830  :         _Deallocate<_New_alignof<_Ty>>(_Ptr, sizeof(_Ty) * _Count);

  00ca5	8b c2		 mov	 eax, edx

; 251  :         if (_Bytes >= _Big_allocation_threshold) { // boost the alignment of big allocations to help autovectorization

  00ca7	81 f9 00 10 00
	00		 cmp	 ecx, 4096		; 00001000H
  00cad	72 14		 jb	 SHORT $LN465@Load

; 150  :     const uintptr_t _Ptr_container   = _Ptr_user[-1];

  00caf	8b 50 fc	 mov	 edx, DWORD PTR [eax-4]
  00cb2	83 c1 23	 add	 ecx, 35			; 00000023H
  00cb5	2b c2		 sub	 eax, edx

; 151  : 
; 152  :     // If the following asserts, it likely means that we are performing
; 153  :     // an aligned delete on memory coming from an unaligned allocation.
; 154  :     _STL_ASSERT(_Ptr_user[-2] == _Big_allocation_sentinel, "invalid argument");
; 155  : 
; 156  :     // Extra paranoia on aligned allocation/deallocation; ensure _Ptr_container is
; 157  :     // in range [_Min_back_shift, _Non_user_size]
; 158  : #ifdef _DEBUG
; 159  :     constexpr uintptr_t _Min_back_shift = 2 * sizeof(void*);
; 160  : #else // ^^^ _DEBUG ^^^ // vvv !_DEBUG vvv
; 161  :     constexpr uintptr_t _Min_back_shift = sizeof(void*);
; 162  : #endif // _DEBUG
; 163  :     const uintptr_t _Back_shift = reinterpret_cast<uintptr_t>(_Ptr) - _Ptr_container;
; 164  :     _STL_VERIFY(_Back_shift >= _Min_back_shift && _Back_shift <= _Non_user_size, "invalid argument");

  00cb7	83 c0 fc	 add	 eax, -4			; fffffffcH
  00cba	83 f8 1f	 cmp	 eax, 31			; 0000001fH
  00cbd	0f 87 9c 00 00
	00		 ja	 $LN655@Load
$LN465@Load:

; 255  :         ::operator delete(_Ptr, _Bytes);

  00cc3	51		 push	 ecx
  00cc4	52		 push	 edx
  00cc5	e8 00 00 00 00	 call	 ??3@YAXPAXI@Z		; operator delete
  00cca	83 c4 08	 add	 esp, 8
$LN2@Load:
; File C:\Users\Marian\Desktop\Aeldra\ProjectA-main\Binary\Client\PRTerrainLib\TextureSet.cpp

; 59   : 	for (long i = 0; i < lCount; ++i)

  00ccd	8b 85 98 fe ff
	ff		 mov	 eax, DWORD PTR _i$1$[ebp]
  00cd3	3b 85 b4 fe ff
	ff		 cmp	 eax, DWORD PTR _lCount$1$[ebp]
  00cd9	0f 8c 13 f7 ff
	ff		 jl	 $LL4@Load
$LN1149@Load:
; File C:\Program Files\Microsoft Visual Studio\2022\Community\VC\Tools\MSVC\14.34.31933\include\xstring

; 418  :         return _CSTD strlen(reinterpret_cast<const char*>(_First));

  00cdf	8b 75 08	 mov	 esi, DWORD PTR _c_szTextureSetFileName$[ebp]
  00ce2	8b ce		 mov	 ecx, esi
  00ce4	8d 51 01	 lea	 edx, DWORD PTR [ecx+1]
$LL1161@Load:
  00ce7	8a 01		 mov	 al, BYTE PTR [ecx]
  00ce9	41		 inc	 ecx
  00cea	84 c0		 test	 al, al
  00cec	75 f9		 jne	 SHORT $LL1161@Load
  00cee	2b ca		 sub	 ecx, edx

; 3549 :         return assign(_Ptr, _Convert_size<size_type>(_Traits::length(_Ptr)));

  00cf0	51		 push	 ecx
; File C:\Users\Marian\Desktop\Aeldra\ProjectA-main\Binary\Client\PRTerrainLib\TextureSet.cpp

; 93   : 	m_stFileName.assign(c_szTextureSetFileName);

  00cf1	8b 8d cc fe ff
	ff		 mov	 ecx, DWORD PTR _this$1$[ebp]
; File C:\Program Files\Microsoft Visual Studio\2022\Community\VC\Tools\MSVC\14.34.31933\include\xstring

; 3549 :         return assign(_Ptr, _Convert_size<size_type>(_Traits::length(_Ptr)));

  00cf7	56		 push	 esi
; File C:\Users\Marian\Desktop\Aeldra\ProjectA-main\Binary\Client\PRTerrainLib\TextureSet.cpp

; 93   : 	m_stFileName.assign(c_szTextureSetFileName);

  00cf8	8d 89 ac 00 00
	00		 lea	 ecx, DWORD PTR [ecx+172]
; File C:\Program Files\Microsoft Visual Studio\2022\Community\VC\Tools\MSVC\14.34.31933\include\xstring

; 3549 :         return assign(_Ptr, _Convert_size<size_type>(_Traits::length(_Ptr)));

  00cfe	e8 00 00 00 00	 call	 ?assign@?$basic_string@DU?$char_traits@D@std@@V?$allocator@D@2@@std@@QAEAAV12@QBDI@Z ; std::basic_string<char,std::char_traits<char>,std::allocator<char> >::assign
; File C:\Users\Marian\Desktop\Aeldra\ProjectA-main\Binary\Client\PRTerrainLib\TextureSet.cpp

; 94   : 	NANOEND

  00d03	eb		 DB	 -21			; ffffffebH
  00d04	03		 DB	 3
  00d05	d6		 DB	 -42			; ffffffd6H
  00d06	d7		 DB	 -41			; ffffffd7H
  00d07	00		 DB	 0
  00d08	c6 85 db fe ff
	ff 01		 mov	 BYTE PTR $T13[ebp], 1
$LN29@Load:
; File C:\Program Files\Microsoft Visual Studio\2022\Community\VC\Tools\MSVC\14.34.31933\include\xtree

; 754  :         _Erase_tree(_Al, _Myhead->_Parent);

  00d0f	8b 85 d0 fe ff
	ff		 mov	 eax, DWORD PTR _stTokenVectorMap$[ebp]
  00d15	ff 70 04	 push	 DWORD PTR [eax+4]
  00d18	8d 85 d0 fe ff
	ff		 lea	 eax, DWORD PTR _stTokenVectorMap$[ebp]
  00d1e	50		 push	 eax
  00d1f	8b c8		 mov	 ecx, eax
  00d21	e8 00 00 00 00	 call	 ??$_Erase_tree@V?$allocator@U?$_Tree_node@U?$pair@$$CBV?$basic_string@DU?$char_traits@D@std@@V?$allocator@D@2@@std@@V?$vector@V?$basic_string@DU?$char_traits@D@std@@V?$allocator@D@2@@std@@V?$allocator@V?$basic_string@DU?$char_traits@D@std@@V?$allocator@D@2@@std@@@2@@2@@std@@PAX@std@@@std@@@?$_Tree_val@U?$_Tree_simple_types@U?$pair@$$CBV?$basic_string@DU?$char_traits@D@std@@V?$allocator@D@2@@std@@V?$vector@V?$basic_string@DU?$char_traits@D@std@@V?$allocator@D@2@@std@@V?$allocator@V?$basic_string@DU?$char_traits@D@std@@V?$allocator@D@2@@std@@@2@@2@@std@@@std@@@std@@QAEXAAV?$allocator@U?$_Tree_node@U?$pair@$$CBV?$basic_string@DU?$char_traits@D@std@@V?$allocator@D@2@@std@@V?$vector@V?$basic_string@DU?$char_traits@D@std@@V?$allocator@D@2@@std@@V?$allocator@V?$basic_string@DU?$char_traits@D@std@@V?$allocator@D@2@@std@@@2@@2@@std@@PAX@std@@@1@PAU?$_Tree_node@U?$pair@$$CBV?$basic_string@DU?$char_traits@D@std@@V?$allocator@D@2@@std@@V?$vector@V?$basic_string@DU?$char_traits@D@std@@V?$allocator@D@2@@std@@V?$allocator@V?$basic_string@DU?$char_traits@D@std@@V?$allocator@D@2@@std@@@2@@2@@std@@PAX@1@@Z ; std::_Tree_val<std::_Tree_simple_types<std::pair<std::basic_string<char,std::char_traits<char>,std::allocator<char> > const ,std::vector<std::basic_string<char,std::char_traits<char>,std::allocator<char> >,std::allocator<std::basic_string<char,std::char_traits<char>,std::allocator<char> > > > > > >::_Erase_tree<std::allocator<std::_Tree_node<std::pair<std::basic_string<char,std::char_traits<char>,std::allocator<char> > const ,std::vector<std::basic_string<char,std::char_traits<char>,std::allocator<char> >,std::allocator<std::basic_string<char,std::char_traits<char>,std::allocator<char> > > > >,void *> > >
; File C:\Program Files\Microsoft Visual Studio\2022\Community\VC\Tools\MSVC\14.34.31933\include\xmemory

; 255  :         ::operator delete(_Ptr, _Bytes);

  00d26	6a 34		 push	 52			; 00000034H
  00d28	ff b5 d0 fe ff
	ff		 push	 DWORD PTR _stTokenVectorMap$[ebp]
  00d2e	e8 00 00 00 00	 call	 ??3@YAXPAXI@Z		; operator delete
; File C:\Users\Marian\Desktop\Aeldra\ProjectA-main\Binary\Client\PRTerrainLib\TextureSet.cpp

; 94   : 	NANOEND

  00d33	8a 85 db fe ff
	ff		 mov	 al, BYTE PTR $T13[ebp]
; File C:\Program Files\Microsoft Visual Studio\2022\Community\VC\Tools\MSVC\14.34.31933\include\xmemory

; 255  :         ::operator delete(_Ptr, _Bytes);

  00d39	83 c4 08	 add	 esp, 8
; File C:\Users\Marian\Desktop\Aeldra\ProjectA-main\Binary\Client\PRTerrainLib\TextureSet.cpp

; 96   : }

  00d3c	8b 4d f4	 mov	 ecx, DWORD PTR __$EHRec$[ebp]
  00d3f	64 89 0d 00 00
	00 00		 mov	 DWORD PTR fs:0, ecx
  00d46	59		 pop	 ecx
  00d47	5f		 pop	 edi
  00d48	5e		 pop	 esi
  00d49	5b		 pop	 ebx
  00d4a	8b 4d f0	 mov	 ecx, DWORD PTR __$ArrayPad$[ebp]
  00d4d	33 cd		 xor	 ecx, ebp
  00d4f	e8 00 00 00 00	 call	 @__security_check_cookie@4
  00d54	8b e5		 mov	 esp, ebp
  00d56	5d		 pop	 ebp
  00d57	c2 08 00	 ret	 8
$LN1138@Load:
  00d5a	e8 00 00 00 00	 call	 ?_Throw_tree_length_error@std@@YAXXZ ; std::_Throw_tree_length_error
$LN655@Load:
  00d5f	e8 00 00 00 00	 call	 __invalid_parameter_noinfo_noreturn
$LN1163@Load:
  00d64	cc		 int	 3
_TEXT	ENDS
;	COMDAT text$x
text$x	SEGMENT
__unwindfunclet$?Load@CTextureSet@@QAE_NPBDM@Z$0:
  00000	8d 8d d0 fe ff
	ff		 lea	 ecx, DWORD PTR _stTokenVectorMap$[ebp]
  00006	e9 00 00 00 00	 jmp	 ??1?$map@V?$basic_string@DU?$char_traits@D@std@@V?$allocator@D@2@@std@@V?$vector@V?$basic_string@DU?$char_traits@D@std@@V?$allocator@D@2@@std@@V?$allocator@V?$basic_string@DU?$char_traits@D@std@@V?$allocator@D@2@@std@@@2@@2@U?$less@V?$basic_string@DU?$char_traits@D@std@@V?$allocator@D@2@@std@@@2@V?$allocator@U?$pair@$$CBV?$basic_string@DU?$char_traits@D@std@@V?$allocator@D@2@@std@@V?$vector@V?$basic_string@DU?$char_traits@D@std@@V?$allocator@D@2@@std@@V?$allocator@V?$basic_string@DU?$char_traits@D@std@@V?$allocator@D@2@@std@@@2@@2@@std@@@2@@std@@QAE@XZ
__unwindfunclet$?Load@CTextureSet@@QAE_NPBDM@Z$3:
  0000b	8d 4d 84	 lea	 ecx, DWORD PTR $T22[ebp]
  0000e	e9 00 00 00 00	 jmp	 ??1?$basic_string@DU?$char_traits@D@std@@V?$allocator@D@2@@std@@QAE@XZ ; std::basic_string<char,std::char_traits<char>,std::allocator<char> >::~basic_string<char,std::char_traits<char>,std::allocator<char> >
__unwindfunclet$?Load@CTextureSet@@QAE_NPBDM@Z$63:
  00013	8d 8d ac fe ff
	ff		 lea	 ecx, DWORD PTR $T5[ebp]
  00019	e9 00 00 00 00	 jmp	 ??1?$_Alloc_construct_ptr@V?$allocator@U?$_Tree_node@U?$pair@$$CBV?$basic_string@DU?$char_traits@D@std@@V?$allocator@D@2@@std@@V?$vector@V?$basic_string@DU?$char_traits@D@std@@V?$allocator@D@2@@std@@V?$allocator@V?$basic_string@DU?$char_traits@D@std@@V?$allocator@D@2@@std@@@2@@2@@std@@PAX@std@@@std@@@std@@QAE@XZ ; std::_Alloc_construct_ptr<std::allocator<std::_Tree_node<std::pair<std::basic_string<char,std::char_traits<char>,std::allocator<char> > const ,std::vector<std::basic_string<char,std::char_traits<char>,std::allocator<char> >,std::allocator<std::basic_string<char,std::char_traits<char>,std::allocator<char> > > > >,void *> > >::~_Alloc_construct_ptr<std::allocator<std::_Tree_node<std::pair<std::basic_string<char,std::char_traits<char>,std::allocator<char> > const ,std::vector<std::basic_string<char,std::char_traits<char>,std::allocator<char> >,std::allocator<std::basic_string<char,std::char_traits<char>,std::allocator<char> > > > >,void *> > >
__unwindfunclet$?Load@CTextureSet@@QAE_NPBDM@Z$5:
  0001e	8d 4d 9c	 lea	 ecx, DWORD PTR $T24[ebp]
  00021	e9 00 00 00 00	 jmp	 ??1?$basic_string@DU?$char_traits@D@std@@V?$allocator@D@2@@std@@QAE@XZ ; std::basic_string<char,std::char_traits<char>,std::allocator<char> >::~basic_string<char,std::char_traits<char>,std::allocator<char> >
__unwindfunclet$?Load@CTextureSet@@QAE_NPBDM@Z$34:
  00026	8d 8d ac fe ff
	ff		 lea	 ecx, DWORD PTR $T6[ebp]
  0002c	e9 00 00 00 00	 jmp	 ??1?$_Alloc_construct_ptr@V?$allocator@U?$_Tree_node@U?$pair@$$CBV?$basic_string@DU?$char_traits@D@std@@V?$allocator@D@2@@std@@V?$vector@V?$basic_string@DU?$char_traits@D@std@@V?$allocator@D@2@@std@@V?$allocator@V?$basic_string@DU?$char_traits@D@std@@V?$allocator@D@2@@std@@@2@@2@@std@@PAX@std@@@std@@@std@@QAE@XZ ; std::_Alloc_construct_ptr<std::allocator<std::_Tree_node<std::pair<std::basic_string<char,std::char_traits<char>,std::allocator<char> > const ,std::vector<std::basic_string<char,std::char_traits<char>,std::allocator<char> >,std::allocator<std::basic_string<char,std::char_traits<char>,std::allocator<char> > > > >,void *> > >::~_Alloc_construct_ptr<std::allocator<std::_Tree_node<std::pair<std::basic_string<char,std::char_traits<char>,std::allocator<char> > const ,std::vector<std::basic_string<char,std::char_traits<char>,std::allocator<char> >,std::allocator<std::basic_string<char,std::char_traits<char>,std::allocator<char> > > > >,void *> > >
__unwindfunclet$?Load@CTextureSet@@QAE_NPBDM@Z$6:
  00031	8d 4d b4	 lea	 ecx, DWORD PTR _$S1$26[ebp]
  00034	e9 00 00 00 00	 jmp	 ??1?$basic_string@DU?$char_traits@D@std@@V?$allocator@D@2@@std@@QAE@XZ ; std::basic_string<char,std::char_traits<char>,std::allocator<char> >::~basic_string<char,std::char_traits<char>,std::allocator<char> >
__unwindfunclet$?Load@CTextureSet@@QAE_NPBDM@Z$7:
  00039	8d 8d dc fe ff
	ff		 lea	 ecx, DWORD PTR _$S2$15[ebp]
  0003f	e9 00 00 00 00	 jmp	 ??1?$basic_string@DU?$char_traits@D@std@@V?$allocator@D@2@@std@@QAE@XZ ; std::basic_string<char,std::char_traits<char>,std::allocator<char> >::~basic_string<char,std::char_traits<char>,std::allocator<char> >
__unwindfunclet$?Load@CTextureSet@@QAE_NPBDM@Z$8:
  00044	8d 8d f4 fe ff
	ff		 lea	 ecx, DWORD PTR _$S3$16[ebp]
  0004a	e9 00 00 00 00	 jmp	 ??1?$basic_string@DU?$char_traits@D@std@@V?$allocator@D@2@@std@@QAE@XZ ; std::basic_string<char,std::char_traits<char>,std::allocator<char> >::~basic_string<char,std::char_traits<char>,std::allocator<char> >
__unwindfunclet$?Load@CTextureSet@@QAE_NPBDM@Z$9:
  0004f	8d 8d 0c ff ff
	ff		 lea	 ecx, DWORD PTR _$S4$17[ebp]
  00055	e9 00 00 00 00	 jmp	 ??1?$basic_string@DU?$char_traits@D@std@@V?$allocator@D@2@@std@@QAE@XZ ; std::basic_string<char,std::char_traits<char>,std::allocator<char> >::~basic_string<char,std::char_traits<char>,std::allocator<char> >
__unwindfunclet$?Load@CTextureSet@@QAE_NPBDM@Z$10:
  0005a	8d 8d 24 ff ff
	ff		 lea	 ecx, DWORD PTR _$S5$18[ebp]
  00060	e9 00 00 00 00	 jmp	 ??1?$basic_string@DU?$char_traits@D@std@@V?$allocator@D@2@@std@@QAE@XZ ; std::basic_string<char,std::char_traits<char>,std::allocator<char> >::~basic_string<char,std::char_traits<char>,std::allocator<char> >
__unwindfunclet$?Load@CTextureSet@@QAE_NPBDM@Z$11:
  00065	8d 8d 3c ff ff
	ff		 lea	 ecx, DWORD PTR _$S6$19[ebp]
  0006b	e9 00 00 00 00	 jmp	 ??1?$basic_string@DU?$char_traits@D@std@@V?$allocator@D@2@@std@@QAE@XZ ; std::basic_string<char,std::char_traits<char>,std::allocator<char> >::~basic_string<char,std::char_traits<char>,std::allocator<char> >
__unwindfunclet$?Load@CTextureSet@@QAE_NPBDM@Z$12:
  00070	8d 8d 54 ff ff
	ff		 lea	 ecx, DWORD PTR _$S7$20[ebp]
  00076	e9 00 00 00 00	 jmp	 ??1?$basic_string@DU?$char_traits@D@std@@V?$allocator@D@2@@std@@QAE@XZ ; std::basic_string<char,std::char_traits<char>,std::allocator<char> >::~basic_string<char,std::char_traits<char>,std::allocator<char> >
__unwindfunclet$?Load@CTextureSet@@QAE_NPBDM@Z$13:
  0007b	8d 8d 6c ff ff
	ff		 lea	 ecx, DWORD PTR _$S8$21[ebp]
  00081	e9 00 00 00 00	 jmp	 ??1?$basic_string@DU?$char_traits@D@std@@V?$allocator@D@2@@std@@QAE@XZ ; std::basic_string<char,std::char_traits<char>,std::allocator<char> >::~basic_string<char,std::char_traits<char>,std::allocator<char> >
  00086	cc		 int	 3
  00087	cc		 int	 3
  00088	cc		 int	 3
  00089	cc		 int	 3
  0008a	cc		 int	 3
__ehhandler$?Load@CTextureSet@@QAE_NPBDM@Z:
  0008b	90		 npad	 1
  0008c	90		 npad	 1
  0008d	8b 54 24 08	 mov	 edx, DWORD PTR [esp+8]
  00091	8d 42 0c	 lea	 eax, DWORD PTR [edx+12]
  00094	8b 8a 94 fe ff
	ff		 mov	 ecx, DWORD PTR [edx-364]
  0009a	33 c8		 xor	 ecx, eax
  0009c	e8 00 00 00 00	 call	 @__security_check_cookie@4
  000a1	8b 4a fc	 mov	 ecx, DWORD PTR [edx-4]
  000a4	33 c8		 xor	 ecx, eax
  000a6	e8 00 00 00 00	 call	 @__security_check_cookie@4
  000ab	b8 00 00 00 00	 mov	 eax, OFFSET __ehfuncinfo$?Load@CTextureSet@@QAE_NPBDM@Z
  000b0	e9 00 00 00 00	 jmp	 ___CxxFrameHandler3
text$x	ENDS
?Load@CTextureSet@@QAE_NPBDM@Z ENDP			; CTextureSet::Load
; Function compile flags: /Ogtp
; File C:\Users\Marian\Desktop\Aeldra\ProjectA-main\Binary\Client\PRTerrainLib\TextureSet.cpp
;	COMDAT ?Create@CTextureSet@@QAEXXZ
_TEXT	SEGMENT
?Create@CTextureSet@@QAEXXZ PROC			; CTextureSet::Create, COMDAT
; _this$ = ecx

; 19   : {

  00000	56		 push	 esi
  00001	8b f1		 mov	 esi, ecx

; 20   : 	CResource * pResource = CResourceManager::Instance().GetResourcePointer("d:/ymir work/special/error.tga");

  00003	8b 0d 00 00 00
	00		 mov	 ecx, DWORD PTR ?ms_singleton@?$CSingleton@VCResourceManager@@@@0PAVCResourceManager@@A ; CSingleton<CResourceManager>::ms_singleton
  00009	68 00 00 00 00	 push	 OFFSET ??_C@_0BP@PGALBFBK@d?3?1ymir?5work?1special?1error?4tga@
  0000e	e8 00 00 00 00	 call	 ?GetResourcePointer@CResourceManager@@QAEPAVCResource@@PBD@Z ; CResourceManager::GetResourcePointer

; 21   : 	m_ErrorTexture.ImageInstance.SetImagePointer(static_cast<CGraphicImage *> (pResource));

  00013	50		 push	 eax
  00014	8d 4e 2c	 lea	 ecx, DWORD PTR [esi+44]
  00017	e8 00 00 00 00	 call	 ?SetImagePointer@CGraphicImageInstance@@QAEXPAVCGraphicImage@@@Z ; CGraphicImageInstance::SetImagePointer

; 22   : 	AddEmptyTexture();	//      

  0001c	8b ce		 mov	 ecx, esi
  0001e	5e		 pop	 esi
  0001f	e9 00 00 00 00	 jmp	 ?AddEmptyTexture@CTextureSet@@IAEXXZ ; CTextureSet::AddEmptyTexture
?Create@CTextureSet@@QAEXXZ ENDP			; CTextureSet::Create
_TEXT	ENDS
; Function compile flags: /Ogtp
; File C:\Users\Marian\Desktop\Aeldra\ProjectA-main\Binary\Client\PRTerrainLib\TextureSet.cpp
; File C:\Program Files\Microsoft Visual Studio\2022\Community\VC\Tools\MSVC\14.34.31933\include\vector
; File C:\Users\Marian\Desktop\Aeldra\ProjectA-main\Binary\Client\PRTerrainLib\TextureSet.cpp
; File C:\Program Files\Microsoft Visual Studio\2022\Community\VC\Tools\MSVC\14.34.31933\include\vector
; File C:\Users\Marian\Desktop\Aeldra\ProjectA-main\Binary\Client\PRTerrainLib\TextureSet.cpp
;	COMDAT ?Clear@CTextureSet@@QAEXXZ
_TEXT	SEGMENT
?Clear@CTextureSet@@QAEXXZ PROC				; CTextureSet::Clear, COMDAT
; _this$ = ecx

; 99   : {

  00000	56		 push	 esi
  00001	8b f1		 mov	 esi, ecx

; 100  : 	m_ErrorTexture.ImageInstance.Destroy();

  00003	8d 4e 2c	 lea	 ecx, DWORD PTR [esi+44]
  00006	e8 00 00 00 00	 call	 ?Destroy@CGraphicImageInstance@@QAEXXZ ; CGraphicImageInstance::Destroy
; File C:\Program Files\Microsoft Visual Studio\2022\Community\VC\Tools\MSVC\14.34.31933\include\vector

; 1829 :         if (_Myfirst == _Mylast) { // already empty, nothing to do

  0000b	8b 46 04	 mov	 eax, DWORD PTR [esi+4]
; File C:\Users\Marian\Desktop\Aeldra\ProjectA-main\Binary\Client\PRTerrainLib\TextureSet.cpp

; 101  : 	m_Textures.clear();

  0000e	83 c6 04	 add	 esi, 4
; File C:\Program Files\Microsoft Visual Studio\2022\Community\VC\Tools\MSVC\14.34.31933\include\vector

; 1829 :         if (_Myfirst == _Mylast) { // already empty, nothing to do

  00011	8b 4e 04	 mov	 ecx, DWORD PTR [esi+4]
  00014	3b c1		 cmp	 eax, ecx
  00016	74 10		 je	 SHORT $LN3@Clear

; 1830 :             // This is an optimization for debug mode: we can avoid taking the debug lock to invalidate iterators.
; 1831 :             // Note that when clearing an empty vector, this will preserve past-the-end iterators, which is allowed by
; 1832 :             // N4901 [tab:container.seq.req] "a.clear() [...] may invalidate the past-the-end iterator".
; 1833 :             return;
; 1834 :         }
; 1835 : 
; 1836 :         _My_data._Orphan_all();
; 1837 :         _Destroy_range(_Myfirst, _Mylast, _Getal());

  00018	56		 push	 esi
  00019	51		 push	 ecx
  0001a	50		 push	 eax
  0001b	e8 00 00 00 00	 call	 ??$_Destroy_range@V?$allocator@USTerrainTexture@@@std@@@std@@YAXPAUSTerrainTexture@@QAU1@AAV?$allocator@USTerrainTexture@@@0@@Z ; std::_Destroy_range<std::allocator<STerrainTexture> >

; 1838 :         _ASAN_VECTOR_MODIFY(static_cast<difference_type>(_Myfirst - _Mylast)); // negative when destroying elements
; 1839 :         _Mylast = _Myfirst;

  00020	8b 06		 mov	 eax, DWORD PTR [esi]
  00022	83 c4 0c	 add	 esp, 12			; 0000000cH
  00025	89 46 04	 mov	 DWORD PTR [esi+4], eax
$LN3@Clear:
  00028	5e		 pop	 esi
; File C:\Users\Marian\Desktop\Aeldra\ProjectA-main\Binary\Client\PRTerrainLib\TextureSet.cpp

; 103  : }

  00029	c3		 ret	 0
?Clear@CTextureSet@@QAEXXZ ENDP				; CTextureSet::Clear
_TEXT	ENDS
; Function compile flags: /Ogtp
; File C:\Users\Marian\Desktop\Aeldra\ProjectA-main\Binary\Client\PRTerrainLib\TextureSet.cpp
;	COMDAT ?Initialize@CTextureSet@@QAEXXZ
_TEXT	SEGMENT
?Initialize@CTextureSet@@QAEXXZ PROC			; CTextureSet::Initialize, COMDAT
; _this$ = ecx

; 16   : }

  00000	c2 00 00	 ret	 0
?Initialize@CTextureSet@@QAEXXZ ENDP			; CTextureSet::Initialize
_TEXT	ENDS
; Function compile flags: /Ogtp
; File C:\Users\Marian\Desktop\Aeldra\ProjectA-main\Binary\Client\PRTerrainLib\TextureSet.cpp
; File C:\Program Files\Microsoft Visual Studio\2022\Community\VC\Tools\MSVC\14.34.31933\include\xstring
; File C:\Program Files\Microsoft Visual Studio\2022\Community\VC\Tools\MSVC\14.34.31933\include\xmemory
; File C:\Program Files\Microsoft Visual Studio\2022\Community\VC\Tools\MSVC\14.34.31933\include\xstring
; File C:\Program Files\Microsoft Visual Studio\2022\Community\VC\Tools\MSVC\14.34.31933\include\xmemory
; File C:\Users\Marian\Desktop\Aeldra\ProjectA-main\Binary\Client\PRTerrainLib\TextureSet.h
; File C:\Program Files\Microsoft Visual Studio\2022\Community\VC\Tools\MSVC\14.34.31933\include\xstring
; File C:\Users\Marian\Desktop\Aeldra\ProjectA-main\Binary\Client\PRTerrainLib\TextureSet.h
; File C:\Program Files\Microsoft Visual Studio\2022\Community\VC\Tools\MSVC\14.34.31933\include\xstring
; File C:\Program Files\Microsoft Visual Studio\2022\Community\VC\Tools\MSVC\14.34.31933\include\xmemory
; File C:\Program Files\Microsoft Visual Studio\2022\Community\VC\Tools\MSVC\14.34.31933\include\xstring
; File C:\Program Files\Microsoft Visual Studio\2022\Community\VC\Tools\MSVC\14.34.31933\include\xmemory
; File C:\Users\Marian\Desktop\Aeldra\ProjectA-main\Binary\Client\PRTerrainLib\TextureSet.cpp
; File C:\Program Files\Microsoft Visual Studio\2022\Community\VC\Tools\MSVC\14.34.31933\include\xstring
; File C:\Users\Marian\Desktop\Aeldra\ProjectA-main\Binary\Client\PRTerrainLib\TextureSet.cpp
; File C:\Program Files\Microsoft Visual Studio\2022\Community\VC\Tools\MSVC\14.34.31933\include\xmemory
; File C:\Users\Marian\Desktop\Aeldra\ProjectA-main\Binary\Client\PRTerrainLib\TextureSet.cpp
;	COMDAT ??1CTextureSet@@UAE@XZ
_TEXT	SEGMENT
__$EHRec$ = -12						; size = 12
??1CTextureSet@@UAE@XZ PROC				; CTextureSet::~CTextureSet, COMDAT
; _this$ = ecx

; 10   : {

  00000	55		 push	 ebp
  00001	8b ec		 mov	 ebp, esp
  00003	6a ff		 push	 -1
  00005	68 00 00 00 00	 push	 __ehhandler$??1CTextureSet@@UAE@XZ
  0000a	64 a1 00 00 00
	00		 mov	 eax, DWORD PTR fs:0
  00010	50		 push	 eax
  00011	56		 push	 esi
  00012	a1 00 00 00 00	 mov	 eax, DWORD PTR ___security_cookie
  00017	33 c5		 xor	 eax, ebp
  00019	50		 push	 eax
  0001a	8d 45 f4	 lea	 eax, DWORD PTR __$EHRec$[ebp]
  0001d	64 a3 00 00 00
	00		 mov	 DWORD PTR fs:0, eax
  00023	8b f1		 mov	 esi, ecx
  00025	c7 06 00 00 00
	00		 mov	 DWORD PTR [esi], OFFSET ??_7CTextureSet@@6B@

; 11   : 	Clear();

  0002b	e8 00 00 00 00	 call	 ?Clear@CTextureSet@@QAEXXZ ; CTextureSet::Clear
; File C:\Program Files\Microsoft Visual Studio\2022\Community\VC\Tools\MSVC\14.34.31933\include\xstring

; 2301 :         return _BUF_SIZE <= _Myres;

  00030	8b 8e c0 00 00
	00		 mov	 ecx, DWORD PTR [esi+192]
  00036	83 f9 10	 cmp	 ecx, 16			; 00000010H

; 5011 :         if (_My_data._Large_string_engaged()) {

  00039	72 2f		 jb	 SHORT $LN15@CTextureSe
; File C:\Program Files\Microsoft Visual Studio\2022\Community\VC\Tools\MSVC\14.34.31933\include\xmemory

; 830  :         _Deallocate<_New_alignof<_Ty>>(_Ptr, sizeof(_Ty) * _Count);

  0003b	8b 86 ac 00 00
	00		 mov	 eax, DWORD PTR [esi+172]
; File C:\Program Files\Microsoft Visual Studio\2022\Community\VC\Tools\MSVC\14.34.31933\include\xstring

; 5016 :             _Al.deallocate(_Ptr, _My_data._Myres + 1);

  00041	41		 inc	 ecx
; File C:\Program Files\Microsoft Visual Studio\2022\Community\VC\Tools\MSVC\14.34.31933\include\xmemory

; 251  :         if (_Bytes >= _Big_allocation_threshold) { // boost the alignment of big allocations to help autovectorization

  00042	81 f9 00 10 00
	00		 cmp	 ecx, 4096		; 00001000H
  00048	72 16		 jb	 SHORT $LN25@CTextureSe

; 150  :     const uintptr_t _Ptr_container   = _Ptr_user[-1];

  0004a	8b 50 fc	 mov	 edx, DWORD PTR [eax-4]
  0004d	83 c1 23	 add	 ecx, 35			; 00000023H

; 151  : 
; 152  :     // If the following asserts, it likely means that we are performing
; 153  :     // an aligned delete on memory coming from an unaligned allocation.
; 154  :     _STL_ASSERT(_Ptr_user[-2] == _Big_allocation_sentinel, "invalid argument");
; 155  : 
; 156  :     // Extra paranoia on aligned allocation/deallocation; ensure _Ptr_container is
; 157  :     // in range [_Min_back_shift, _Non_user_size]
; 158  : #ifdef _DEBUG
; 159  :     constexpr uintptr_t _Min_back_shift = 2 * sizeof(void*);
; 160  : #else // ^^^ _DEBUG ^^^ // vvv !_DEBUG vvv
; 161  :     constexpr uintptr_t _Min_back_shift = sizeof(void*);
; 162  : #endif // _DEBUG
; 163  :     const uintptr_t _Back_shift = reinterpret_cast<uintptr_t>(_Ptr) - _Ptr_container;

  00050	2b c2		 sub	 eax, edx

; 164  :     _STL_VERIFY(_Back_shift >= _Min_back_shift && _Back_shift <= _Non_user_size, "invalid argument");

  00052	83 c0 fc	 add	 eax, -4			; fffffffcH
  00055	83 f8 1f	 cmp	 eax, 31			; 0000001fH
  00058	0f 87 89 00 00
	00		 ja	 $LN53@CTextureSe

; 165  :     _Ptr = reinterpret_cast<void*>(_Ptr_container);

  0005e	8b c2		 mov	 eax, edx
$LN25@CTextureSe:

; 255  :         ::operator delete(_Ptr, _Bytes);

  00060	51		 push	 ecx
  00061	50		 push	 eax
  00062	e8 00 00 00 00	 call	 ??3@YAXPAXI@Z		; operator delete
  00067	83 c4 08	 add	 esp, 8
$LN15@CTextureSe:
; File C:\Users\Marian\Desktop\Aeldra\ProjectA-main\Binary\Client\PRTerrainLib\TextureSet.h

; 21   : 	}

  0006a	8d 4e 2c	 lea	 ecx, DWORD PTR [esi+44]
; File C:\Program Files\Microsoft Visual Studio\2022\Community\VC\Tools\MSVC\14.34.31933\include\xstring

; 5019 :         _My_data._Mysize = 0;

  0006d	c7 86 bc 00 00
	00 00 00 00 00	 mov	 DWORD PTR [esi+188], 0

; 5020 :         _My_data._Myres  = _BUF_SIZE - 1;

  00077	c7 86 c0 00 00
	00 0f 00 00 00	 mov	 DWORD PTR [esi+192], 15	; 0000000fH

; 5021 :         // the _Traits::assign is last so the codegen doesn't think the char write can alias this
; 5022 :         _Traits::assign(_My_data._Bx._Buf[0], _Elem());

  00081	c6 86 ac 00 00
	00 00		 mov	 BYTE PTR [esi+172], 0
; File C:\Users\Marian\Desktop\Aeldra\ProjectA-main\Binary\Client\PRTerrainLib\TextureSet.h

; 21   : 	}

  00088	e8 00 00 00 00	 call	 ??1CGraphicImageInstance@@UAE@XZ ; CGraphicImageInstance::~CGraphicImageInstance
; File C:\Program Files\Microsoft Visual Studio\2022\Community\VC\Tools\MSVC\14.34.31933\include\xstring

; 2301 :         return _BUF_SIZE <= _Myres;

  0008d	8b 4e 24	 mov	 ecx, DWORD PTR [esi+36]
  00090	83 f9 10	 cmp	 ecx, 16			; 00000010H

; 5011 :         if (_My_data._Large_string_engaged()) {

  00093	72 28		 jb	 SHORT $LN46@CTextureSe
; File C:\Program Files\Microsoft Visual Studio\2022\Community\VC\Tools\MSVC\14.34.31933\include\xmemory

; 830  :         _Deallocate<_New_alignof<_Ty>>(_Ptr, sizeof(_Ty) * _Count);

  00095	8b 46 10	 mov	 eax, DWORD PTR [esi+16]
; File C:\Program Files\Microsoft Visual Studio\2022\Community\VC\Tools\MSVC\14.34.31933\include\xstring

; 5016 :             _Al.deallocate(_Ptr, _My_data._Myres + 1);

  00098	41		 inc	 ecx
; File C:\Program Files\Microsoft Visual Studio\2022\Community\VC\Tools\MSVC\14.34.31933\include\xmemory

; 251  :         if (_Bytes >= _Big_allocation_threshold) { // boost the alignment of big allocations to help autovectorization

  00099	81 f9 00 10 00
	00		 cmp	 ecx, 4096		; 00001000H
  0009f	72 12		 jb	 SHORT $LN56@CTextureSe

; 150  :     const uintptr_t _Ptr_container   = _Ptr_user[-1];

  000a1	8b 50 fc	 mov	 edx, DWORD PTR [eax-4]
  000a4	83 c1 23	 add	 ecx, 35			; 00000023H

; 151  : 
; 152  :     // If the following asserts, it likely means that we are performing
; 153  :     // an aligned delete on memory coming from an unaligned allocation.
; 154  :     _STL_ASSERT(_Ptr_user[-2] == _Big_allocation_sentinel, "invalid argument");
; 155  : 
; 156  :     // Extra paranoia on aligned allocation/deallocation; ensure _Ptr_container is
; 157  :     // in range [_Min_back_shift, _Non_user_size]
; 158  : #ifdef _DEBUG
; 159  :     constexpr uintptr_t _Min_back_shift = 2 * sizeof(void*);
; 160  : #else // ^^^ _DEBUG ^^^ // vvv !_DEBUG vvv
; 161  :     constexpr uintptr_t _Min_back_shift = sizeof(void*);
; 162  : #endif // _DEBUG
; 163  :     const uintptr_t _Back_shift = reinterpret_cast<uintptr_t>(_Ptr) - _Ptr_container;

  000a7	2b c2		 sub	 eax, edx

; 164  :     _STL_VERIFY(_Back_shift >= _Min_back_shift && _Back_shift <= _Non_user_size, "invalid argument");

  000a9	83 c0 fc	 add	 eax, -4			; fffffffcH
  000ac	83 f8 1f	 cmp	 eax, 31			; 0000001fH
  000af	77 36		 ja	 SHORT $LN53@CTextureSe

; 165  :     _Ptr = reinterpret_cast<void*>(_Ptr_container);

  000b1	8b c2		 mov	 eax, edx
$LN56@CTextureSe:

; 255  :         ::operator delete(_Ptr, _Bytes);

  000b3	51		 push	 ecx
  000b4	50		 push	 eax
  000b5	e8 00 00 00 00	 call	 ??3@YAXPAXI@Z		; operator delete
  000ba	83 c4 08	 add	 esp, 8
$LN46@CTextureSe:
; File C:\Users\Marian\Desktop\Aeldra\ProjectA-main\Binary\Client\PRTerrainLib\TextureSet.cpp

; 12   : }

  000bd	8d 4e 04	 lea	 ecx, DWORD PTR [esi+4]
; File C:\Program Files\Microsoft Visual Studio\2022\Community\VC\Tools\MSVC\14.34.31933\include\xstring

; 5019 :         _My_data._Mysize = 0;

  000c0	c7 46 20 00 00
	00 00		 mov	 DWORD PTR [esi+32], 0

; 5020 :         _My_data._Myres  = _BUF_SIZE - 1;

  000c7	c7 46 24 0f 00
	00 00		 mov	 DWORD PTR [esi+36], 15	; 0000000fH

; 5021 :         // the _Traits::assign is last so the codegen doesn't think the char write can alias this
; 5022 :         _Traits::assign(_My_data._Bx._Buf[0], _Elem());

  000ce	c6 46 10 00	 mov	 BYTE PTR [esi+16], 0
; File C:\Users\Marian\Desktop\Aeldra\ProjectA-main\Binary\Client\PRTerrainLib\TextureSet.cpp

; 12   : }

  000d2	e8 00 00 00 00	 call	 ??1?$vector@USTerrainTexture@@V?$allocator@USTerrainTexture@@@std@@@std@@QAE@XZ ; std::vector<STerrainTexture,std::allocator<STerrainTexture> >::~vector<STerrainTexture,std::allocator<STerrainTexture> >
  000d7	8b 4d f4	 mov	 ecx, DWORD PTR __$EHRec$[ebp]
  000da	64 89 0d 00 00
	00 00		 mov	 DWORD PTR fs:0, ecx
  000e1	59		 pop	 ecx
  000e2	5e		 pop	 esi
  000e3	8b e5		 mov	 esp, ebp
  000e5	5d		 pop	 ebp
  000e6	c3		 ret	 0
$LN53@CTextureSe:
; File C:\Program Files\Microsoft Visual Studio\2022\Community\VC\Tools\MSVC\14.34.31933\include\xmemory

; 164  :     _STL_VERIFY(_Back_shift >= _Min_back_shift && _Back_shift <= _Non_user_size, "invalid argument");

  000e7	e8 00 00 00 00	 call	 __invalid_parameter_noinfo_noreturn
$LN63@CTextureSe:
  000ec	cc		 int	 3
  000ed	cc		 int	 3
  000ee	cc		 int	 3
  000ef	cc		 int	 3
  000f0	cc		 int	 3
  000f1	cc		 int	 3
_TEXT	ENDS
;	COMDAT text$x
text$x	SEGMENT
__ehhandler$??1CTextureSet@@UAE@XZ:
  00000	90		 npad	 1
  00001	90		 npad	 1
  00002	8b 54 24 08	 mov	 edx, DWORD PTR [esp+8]
  00006	8d 42 0c	 lea	 eax, DWORD PTR [edx+12]
  00009	8b 4a f8	 mov	 ecx, DWORD PTR [edx-8]
  0000c	33 c8		 xor	 ecx, eax
  0000e	e8 00 00 00 00	 call	 @__security_check_cookie@4
  00013	b8 00 00 00 00	 mov	 eax, OFFSET __ehfuncinfo$??1CTextureSet@@UAE@XZ
  00018	e9 00 00 00 00	 jmp	 ___CxxFrameHandler3
text$x	ENDS
??1CTextureSet@@UAE@XZ ENDP				; CTextureSet::~CTextureSet
; Function compile flags: /Ogtp
; File C:\Users\Marian\Desktop\Aeldra\ProjectA-main\Binary\Client\PRTerrainLib\TextureSet.cpp
; File C:\Program Files\Microsoft Visual Studio\2022\Community\VC\Tools\MSVC\14.34.31933\include\vector
; File C:\Users\Marian\Desktop\Aeldra\ProjectA-main\Binary\Client\PRTerrainLib\TextureSet.cpp
; File C:\Program Files\Microsoft Visual Studio\2022\Community\VC\Tools\MSVC\14.34.31933\include\xstring
; File C:\Users\Marian\Desktop\Aeldra\ProjectA-main\Binary\Client\PRTerrainLib\TextureSet.cpp
;	COMDAT ??0CTextureSet@@QAE@XZ
_TEXT	SEGMENT
_this$ = -16						; size = 4
__$EHRec$ = -12						; size = 12
??0CTextureSet@@QAE@XZ PROC				; CTextureSet::CTextureSet, COMDAT
; _this$ = ecx

; 5    : {

  00000	55		 push	 ebp
  00001	8b ec		 mov	 ebp, esp
  00003	6a ff		 push	 -1
  00005	68 00 00 00 00	 push	 __ehhandler$??0CTextureSet@@QAE@XZ
  0000a	64 a1 00 00 00
	00		 mov	 eax, DWORD PTR fs:0
  00010	50		 push	 eax
  00011	51		 push	 ecx
  00012	56		 push	 esi
  00013	a1 00 00 00 00	 mov	 eax, DWORD PTR ___security_cookie
  00018	33 c5		 xor	 eax, ebp
  0001a	50		 push	 eax
  0001b	8d 45 f4	 lea	 eax, DWORD PTR __$EHRec$[ebp]
  0001e	64 a3 00 00 00
	00		 mov	 DWORD PTR fs:0, eax
  00024	8b f1		 mov	 esi, ecx
  00026	89 75 f0	 mov	 DWORD PTR _this$[ebp], esi
  00029	c7 06 00 00 00
	00		 mov	 DWORD PTR [esi], OFFSET ??_7CTextureSet@@6B@
; File C:\Program Files\Microsoft Visual Studio\2022\Community\VC\Tools\MSVC\14.34.31933\include\vector

; 390  :     _CONSTEXPR20 _Vector_val() noexcept : _Myfirst(), _Mylast(), _Myend() {}

  0002f	c7 46 04 00 00
	00 00		 mov	 DWORD PTR [esi+4], 0
  00036	c7 46 08 00 00
	00 00		 mov	 DWORD PTR [esi+8], 0
  0003d	c7 46 0c 00 00
	00 00		 mov	 DWORD PTR [esi+12], 0
; File C:\Users\Marian\Desktop\Aeldra\ProjectA-main\Binary\Client\PRTerrainLib\TextureSet.cpp

; 5    : {

  00044	8d 4e 10	 lea	 ecx, DWORD PTR [esi+16]
  00047	c7 45 fc 00 00
	00 00		 mov	 DWORD PTR __$EHRec$[ebp+8], 0
  0004e	e8 00 00 00 00	 call	 ??0STerrainTexture@@QAE@XZ ; STerrainTexture::STerrainTexture
  00053	0f 57 c0	 xorps	 xmm0, xmm0

; 7    : }

  00056	8b c6		 mov	 eax, esi
; File C:\Program Files\Microsoft Visual Studio\2022\Community\VC\Tools\MSVC\14.34.31933\include\xstring

; 2341 :         _CONSTEXPR20 _Bxty() noexcept : _Buf() {} // user-provided, for fancy pointers

  00058	0f 11 86 ac 00
	00 00		 movups	 XMMWORD PTR [esi+172], xmm0

; 4998 :         _My_data._Mysize = 0;

  0005f	c7 86 bc 00 00
	00 00 00 00 00	 mov	 DWORD PTR [esi+188], 0

; 4999 :         _My_data._Myres  = _BUF_SIZE - 1;

  00069	c7 86 c0 00 00
	00 0f 00 00 00	 mov	 DWORD PTR [esi+192], 15	; 0000000fH

; 5000 :         _My_data._Activate_SSO_buffer();
; 5001 : 
; 5002 :         // the _Traits::assign is last so the codegen doesn't think the char write can alias this
; 5003 :         _Traits::assign(_My_data._Bx._Buf[0], _Elem());

  00073	c6 86 ac 00 00
	00 00		 mov	 BYTE PTR [esi+172], 0
; File C:\Users\Marian\Desktop\Aeldra\ProjectA-main\Binary\Client\PRTerrainLib\TextureSet.cpp

; 7    : }

  0007a	8b 4d f4	 mov	 ecx, DWORD PTR __$EHRec$[ebp]
  0007d	64 89 0d 00 00
	00 00		 mov	 DWORD PTR fs:0, ecx
  00084	59		 pop	 ecx
  00085	5e		 pop	 esi
  00086	8b e5		 mov	 esp, ebp
  00088	5d		 pop	 ebp
  00089	c3		 ret	 0
_TEXT	ENDS
;	COMDAT text$x
text$x	SEGMENT
__unwindfunclet$??0CTextureSet@@QAE@XZ$0:
  00000	8b 4d f0	 mov	 ecx, DWORD PTR _this$[ebp]
  00003	83 c1 04	 add	 ecx, 4
  00006	e9 00 00 00 00	 jmp	 ??1?$vector@USTerrainTexture@@V?$allocator@USTerrainTexture@@@std@@@std@@QAE@XZ ; std::vector<STerrainTexture,std::allocator<STerrainTexture> >::~vector<STerrainTexture,std::allocator<STerrainTexture> >
  0000b	cc		 int	 3
  0000c	cc		 int	 3
  0000d	cc		 int	 3
  0000e	cc		 int	 3
  0000f	cc		 int	 3
__ehhandler$??0CTextureSet@@QAE@XZ:
  00010	90		 npad	 1
  00011	90		 npad	 1
  00012	8b 54 24 08	 mov	 edx, DWORD PTR [esp+8]
  00016	8d 42 0c	 lea	 eax, DWORD PTR [edx+12]
  00019	8b 4a f4	 mov	 ecx, DWORD PTR [edx-12]
  0001c	33 c8		 xor	 ecx, eax
  0001e	e8 00 00 00 00	 call	 @__security_check_cookie@4
  00023	b8 00 00 00 00	 mov	 eax, OFFSET __ehfuncinfo$??0CTextureSet@@QAE@XZ
  00028	e9 00 00 00 00	 jmp	 ___CxxFrameHandler3
text$x	ENDS
??0CTextureSet@@QAE@XZ ENDP				; CTextureSet::CTextureSet
; Function compile flags: /Ogtp
; File C:\Users\Marian\Desktop\Aeldra\ProjectA-main\Binary\Client\eterLib\Ref.h
;	COMDAT ??0STerrainTexture@@QAE@ABU0@@Z
_TEXT	SEGMENT
_this$ = -16						; size = 4
__$EHRec$ = -12						; size = 12
_this$ = 8						; size = 4
___that$ = 8						; size = 4
??0STerrainTexture@@QAE@ABU0@@Z PROC			; STerrainTexture::STerrainTexture, COMDAT
; _this$ = ecx
  00000	55		 push	 ebp
  00001	8b ec		 mov	 ebp, esp
  00003	6a ff		 push	 -1
  00005	68 00 00 00 00	 push	 __ehhandler$??0STerrainTexture@@QAE@ABU0@@Z
  0000a	64 a1 00 00 00
	00		 mov	 eax, DWORD PTR fs:0
  00010	50		 push	 eax
  00011	51		 push	 ecx
  00012	56		 push	 esi
  00013	57		 push	 edi
  00014	a1 00 00 00 00	 mov	 eax, DWORD PTR ___security_cookie
  00019	33 c5		 xor	 eax, ebp
  0001b	50		 push	 eax
  0001c	8d 45 f4	 lea	 eax, DWORD PTR __$EHRec$[ebp]
  0001f	64 a3 00 00 00
	00		 mov	 DWORD PTR fs:0, eax
  00025	8b f9		 mov	 edi, ecx
  00027	89 7d f0	 mov	 DWORD PTR _this$[ebp], edi

; 32   : 			m_pObject = NULL;

  0002a	8b 75 08	 mov	 esi, DWORD PTR ___that$[ebp]
  0002d	56		 push	 esi
  0002e	e8 00 00 00 00	 call	 ??0?$basic_string@DU?$char_traits@D@std@@V?$allocator@D@2@@std@@QAE@ABV01@@Z ; std::basic_string<char,std::char_traits<char>,std::allocator<char> >::basic_string<char,std::char_traits<char>,std::allocator<char> >
  00033	8b 46 18	 mov	 eax, DWORD PTR [esi+24]
  00036	8d 57 1c	 lea	 edx, DWORD PTR [edi+28]
  00039	89 47 18	 mov	 DWORD PTR [edi+24], eax
  0003c	c7 02 00 00 00
	00		 mov	 DWORD PTR [edx], OFFSET ??_7CGraphicImageInstance@@6B@
  00042	0f 10 46 20	 movups	 xmm0, XMMWORD PTR [esi+32]
  00046	c7 45 fc 00 00
	00 00		 mov	 DWORD PTR __$EHRec$[ebp+8], 0
  0004d	89 55 08	 mov	 DWORD PTR _this$[ebp], edx
  00050	0f 11 42 04	 movups	 XMMWORD PTR [edx+4], xmm0
  00054	8b 46 30	 mov	 eax, DWORD PTR [esi+48]
  00057	8b 4e 34	 mov	 ecx, DWORD PTR [esi+52]
  0005a	89 42 14	 mov	 DWORD PTR [edx+20], eax
  0005d	89 4a 18	 mov	 DWORD PTR [edx+24], ecx
  00060	8b 4e 3c	 mov	 ecx, DWORD PTR [esi+60]
  00063	8b 46 38	 mov	 eax, DWORD PTR [esi+56]
  00066	89 42 1c	 mov	 DWORD PTR [edx+28], eax
  00069	89 4a 20	 mov	 DWORD PTR [edx+32], ecx
  0006c	c7 42 24 00 00
	00 00		 mov	 DWORD PTR [edx+36], 0

; 94   : 			m_pObject = pObject;

  00073	8b 4e 40	 mov	 ecx, DWORD PTR [esi+64]
  00076	89 4a 24	 mov	 DWORD PTR [edx+36], ecx

; 95   : 
; 96   : 			if (m_pObject)

  00079	85 c9		 test	 ecx, ecx
  0007b	74 05		 je	 SHORT $LN11@STerrainTe

; 97   : 				m_pObject->AddReference();

  0007d	e8 00 00 00 00	 call	 ?AddReference@CReferenceObject@@QAEXXZ ; CReferenceObject::AddReference
$LN11@STerrainTe:
  00082	8b 46 44	 mov	 eax, DWORD PTR [esi+68]
  00085	89 47 44	 mov	 DWORD PTR [edi+68], eax
  00088	8b 46 48	 mov	 eax, DWORD PTR [esi+72]
  0008b	89 47 48	 mov	 DWORD PTR [edi+72], eax
  0008e	8b 46 4c	 mov	 eax, DWORD PTR [esi+76]
  00091	89 47 4c	 mov	 DWORD PTR [edi+76], eax
  00094	8b 46 50	 mov	 eax, DWORD PTR [esi+80]
  00097	89 47 50	 mov	 DWORD PTR [edi+80], eax
  0009a	8a 46 54	 mov	 al, BYTE PTR [esi+84]
  0009d	88 47 54	 mov	 BYTE PTR [edi+84], al
  000a0	0f b7 46 56	 movzx	 eax, WORD PTR [esi+86]
  000a4	66 89 47 56	 mov	 WORD PTR [edi+86], ax
  000a8	0f b7 46 58	 movzx	 eax, WORD PTR [esi+88]
  000ac	66 89 47 58	 mov	 WORD PTR [edi+88], ax
  000b0	8b c7		 mov	 eax, edi
  000b2	0f 10 46 5c	 movups	 xmm0, XMMWORD PTR [esi+92]
  000b6	0f 11 47 5c	 movups	 XMMWORD PTR [edi+92], xmm0
  000ba	0f 10 46 6c	 movups	 xmm0, XMMWORD PTR [esi+108]
  000be	0f 11 47 6c	 movups	 XMMWORD PTR [edi+108], xmm0
  000c2	0f 10 46 7c	 movups	 xmm0, XMMWORD PTR [esi+124]
  000c6	0f 11 47 7c	 movups	 XMMWORD PTR [edi+124], xmm0
  000ca	0f 10 86 8c 00
	00 00		 movups	 xmm0, XMMWORD PTR [esi+140]
  000d1	0f 11 87 8c 00
	00 00		 movups	 XMMWORD PTR [edi+140], xmm0
  000d8	8b 4d f4	 mov	 ecx, DWORD PTR __$EHRec$[ebp]
  000db	64 89 0d 00 00
	00 00		 mov	 DWORD PTR fs:0, ecx
  000e2	59		 pop	 ecx
  000e3	5f		 pop	 edi
  000e4	5e		 pop	 esi
  000e5	8b e5		 mov	 esp, ebp
  000e7	5d		 pop	 ebp
  000e8	c2 04 00	 ret	 4
_TEXT	ENDS
;	COMDAT text$x
text$x	SEGMENT
__unwindfunclet$??0STerrainTexture@@QAE@ABU0@@Z$0:
  00000	8b 4d f0	 mov	 ecx, DWORD PTR _this$[ebp]
  00003	e9 00 00 00 00	 jmp	 ??1?$basic_string@DU?$char_traits@D@std@@V?$allocator@D@2@@std@@QAE@XZ ; std::basic_string<char,std::char_traits<char>,std::allocator<char> >::~basic_string<char,std::char_traits<char>,std::allocator<char> >
  00008	cc		 int	 3
  00009	cc		 int	 3
  0000a	cc		 int	 3
  0000b	cc		 int	 3
  0000c	cc		 int	 3
__ehhandler$??0STerrainTexture@@QAE@ABU0@@Z:
  0000d	90		 npad	 1
  0000e	90		 npad	 1
  0000f	8b 54 24 08	 mov	 edx, DWORD PTR [esp+8]
  00013	8d 42 0c	 lea	 eax, DWORD PTR [edx+12]
  00016	8b 4a f0	 mov	 ecx, DWORD PTR [edx-16]
  00019	33 c8		 xor	 ecx, eax
  0001b	e8 00 00 00 00	 call	 @__security_check_cookie@4
  00020	b8 00 00 00 00	 mov	 eax, OFFSET __ehfuncinfo$??0STerrainTexture@@QAE@ABU0@@Z
  00025	e9 00 00 00 00	 jmp	 ___CxxFrameHandler3
text$x	ENDS
??0STerrainTexture@@QAE@ABU0@@Z ENDP			; STerrainTexture::STerrainTexture
; Function compile flags: /Ogtp
; File C:\Users\Marian\Desktop\Aeldra\ProjectA-main\Binary\Client\PRTerrainLib\TextureSet.h
; File C:\Program Files\Microsoft Visual Studio\2022\Community\VC\Tools\MSVC\14.34.31933\include\xstring
; File C:\Program Files\Microsoft Visual Studio\2022\Community\VC\Tools\MSVC\14.34.31933\include\xmemory
; File C:\Program Files\Microsoft Visual Studio\2022\Community\VC\Tools\MSVC\14.34.31933\include\xstring
; File C:\Program Files\Microsoft Visual Studio\2022\Community\VC\Tools\MSVC\14.34.31933\include\xmemory
; File C:\Program Files\Microsoft Visual Studio\2022\Community\VC\Tools\MSVC\14.34.31933\include\xstring
; File C:\Users\Marian\Desktop\Aeldra\ProjectA-main\Binary\Client\PRTerrainLib\TextureSet.h
; File C:\Program Files\Microsoft Visual Studio\2022\Community\VC\Tools\MSVC\14.34.31933\include\xmemory
; File C:\Users\Marian\Desktop\Aeldra\ProjectA-main\Binary\Client\PRTerrainLib\TextureSet.h
;	COMDAT ??1STerrainTexture@@QAE@XZ
_TEXT	SEGMENT
??1STerrainTexture@@QAE@XZ PROC				; STerrainTexture::~STerrainTexture, COMDAT
; _this$ = ecx

; 20   : 	{

  00000	56		 push	 esi
  00001	8b f1		 mov	 esi, ecx

; 21   : 	}

  00003	8d 4e 1c	 lea	 ecx, DWORD PTR [esi+28]
  00006	e8 00 00 00 00	 call	 ??1CGraphicImageInstance@@UAE@XZ ; CGraphicImageInstance::~CGraphicImageInstance
; File C:\Program Files\Microsoft Visual Studio\2022\Community\VC\Tools\MSVC\14.34.31933\include\xstring

; 2301 :         return _BUF_SIZE <= _Myres;

  0000b	8b 4e 14	 mov	 ecx, DWORD PTR [esi+20]
  0000e	83 f9 10	 cmp	 ecx, 16			; 00000010H

; 5011 :         if (_My_data._Large_string_engaged()) {

  00011	72 27		 jb	 SHORT $LN15@STerrainTe
; File C:\Program Files\Microsoft Visual Studio\2022\Community\VC\Tools\MSVC\14.34.31933\include\xmemory

; 830  :         _Deallocate<_New_alignof<_Ty>>(_Ptr, sizeof(_Ty) * _Count);

  00013	8b 06		 mov	 eax, DWORD PTR [esi]
; File C:\Program Files\Microsoft Visual Studio\2022\Community\VC\Tools\MSVC\14.34.31933\include\xstring

; 5016 :             _Al.deallocate(_Ptr, _My_data._Myres + 1);

  00015	41		 inc	 ecx
; File C:\Program Files\Microsoft Visual Studio\2022\Community\VC\Tools\MSVC\14.34.31933\include\xmemory

; 251  :         if (_Bytes >= _Big_allocation_threshold) { // boost the alignment of big allocations to help autovectorization

  00016	81 f9 00 10 00
	00		 cmp	 ecx, 4096		; 00001000H
  0001c	72 12		 jb	 SHORT $LN25@STerrainTe

; 150  :     const uintptr_t _Ptr_container   = _Ptr_user[-1];

  0001e	8b 50 fc	 mov	 edx, DWORD PTR [eax-4]
  00021	83 c1 23	 add	 ecx, 35			; 00000023H

; 151  : 
; 152  :     // If the following asserts, it likely means that we are performing
; 153  :     // an aligned delete on memory coming from an unaligned allocation.
; 154  :     _STL_ASSERT(_Ptr_user[-2] == _Big_allocation_sentinel, "invalid argument");
; 155  : 
; 156  :     // Extra paranoia on aligned allocation/deallocation; ensure _Ptr_container is
; 157  :     // in range [_Min_back_shift, _Non_user_size]
; 158  : #ifdef _DEBUG
; 159  :     constexpr uintptr_t _Min_back_shift = 2 * sizeof(void*);
; 160  : #else // ^^^ _DEBUG ^^^ // vvv !_DEBUG vvv
; 161  :     constexpr uintptr_t _Min_back_shift = sizeof(void*);
; 162  : #endif // _DEBUG
; 163  :     const uintptr_t _Back_shift = reinterpret_cast<uintptr_t>(_Ptr) - _Ptr_container;

  00024	2b c2		 sub	 eax, edx

; 164  :     _STL_VERIFY(_Back_shift >= _Min_back_shift && _Back_shift <= _Non_user_size, "invalid argument");

  00026	83 c0 fc	 add	 eax, -4			; fffffffcH
  00029	83 f8 1f	 cmp	 eax, 31			; 0000001fH
  0002c	77 1f		 ja	 SHORT $LN22@STerrainTe

; 165  :     _Ptr = reinterpret_cast<void*>(_Ptr_container);

  0002e	8b c2		 mov	 eax, edx
$LN25@STerrainTe:

; 255  :         ::operator delete(_Ptr, _Bytes);

  00030	51		 push	 ecx
  00031	50		 push	 eax
  00032	e8 00 00 00 00	 call	 ??3@YAXPAXI@Z		; operator delete
  00037	83 c4 08	 add	 esp, 8
$LN15@STerrainTe:
; File C:\Program Files\Microsoft Visual Studio\2022\Community\VC\Tools\MSVC\14.34.31933\include\xstring

; 5019 :         _My_data._Mysize = 0;

  0003a	c7 46 10 00 00
	00 00		 mov	 DWORD PTR [esi+16], 0

; 5020 :         _My_data._Myres  = _BUF_SIZE - 1;

  00041	c7 46 14 0f 00
	00 00		 mov	 DWORD PTR [esi+20], 15	; 0000000fH

; 5021 :         // the _Traits::assign is last so the codegen doesn't think the char write can alias this
; 5022 :         _Traits::assign(_My_data._Bx._Buf[0], _Elem());

  00048	c6 06 00	 mov	 BYTE PTR [esi], 0
  0004b	5e		 pop	 esi
; File C:\Users\Marian\Desktop\Aeldra\ProjectA-main\Binary\Client\PRTerrainLib\TextureSet.h

; 21   : 	}

  0004c	c3		 ret	 0
$LN22@STerrainTe:
; File C:\Program Files\Microsoft Visual Studio\2022\Community\VC\Tools\MSVC\14.34.31933\include\xmemory

; 164  :     _STL_VERIFY(_Back_shift >= _Min_back_shift && _Back_shift <= _Non_user_size, "invalid argument");

  0004d	e8 00 00 00 00	 call	 __invalid_parameter_noinfo_noreturn
$LN31@STerrainTe:
  00052	cc		 int	 3
??1STerrainTexture@@QAE@XZ ENDP				; STerrainTexture::~STerrainTexture
_TEXT	ENDS
; Function compile flags: /Ogtp
; File C:\Users\Marian\Desktop\Aeldra\ProjectA-main\Binary\Client\PRTerrainLib\TextureSet.h
; File C:\Program Files\Microsoft Visual Studio\2022\Community\VC\Tools\MSVC\14.34.31933\include\xstring
; File C:\Users\Marian\Desktop\Aeldra\ProjectA-main\Binary\Client\PRTerrainLib\TextureSet.h
;	COMDAT ??0STerrainTexture@@QAE@XZ
_TEXT	SEGMENT
_this$ = -16						; size = 4
__$EHRec$ = -12						; size = 12
??0STerrainTexture@@QAE@XZ PROC				; STerrainTexture::STerrainTexture, COMDAT
; _this$ = ecx

; 16   : 	{

  00000	55		 push	 ebp
  00001	8b ec		 mov	 ebp, esp
  00003	6a ff		 push	 -1
  00005	68 00 00 00 00	 push	 __ehhandler$??0STerrainTexture@@QAE@XZ
  0000a	64 a1 00 00 00
	00		 mov	 eax, DWORD PTR fs:0
  00010	50		 push	 eax
  00011	51		 push	 ecx
  00012	56		 push	 esi
  00013	a1 00 00 00 00	 mov	 eax, DWORD PTR ___security_cookie
  00018	33 c5		 xor	 eax, ebp
  0001a	50		 push	 eax
  0001b	8d 45 f4	 lea	 eax, DWORD PTR __$EHRec$[ebp]
  0001e	64 a3 00 00 00
	00		 mov	 DWORD PTR fs:0, eax
  00024	8b f1		 mov	 esi, ecx
  00026	89 75 f0	 mov	 DWORD PTR _this$[ebp], esi
  00029	0f 57 c0	 xorps	 xmm0, xmm0
; File C:\Program Files\Microsoft Visual Studio\2022\Community\VC\Tools\MSVC\14.34.31933\include\xstring

; 2341 :         _CONSTEXPR20 _Bxty() noexcept : _Buf() {} // user-provided, for fancy pointers

  0002c	0f 11 06	 movups	 XMMWORD PTR [esi], xmm0

; 2349 :     size_type _Mysize = 0; // current length of string

  0002f	c7 46 10 00 00
	00 00		 mov	 DWORD PTR [esi+16], 0

; 2350 :     size_type _Myres  = 0; // current storage reserved for string

  00036	c7 46 14 00 00
	00 00		 mov	 DWORD PTR [esi+20], 0

; 4998 :         _My_data._Mysize = 0;

  0003d	c7 46 10 00 00
	00 00		 mov	 DWORD PTR [esi+16], 0

; 4999 :         _My_data._Myres  = _BUF_SIZE - 1;

  00044	c7 46 14 0f 00
	00 00		 mov	 DWORD PTR [esi+20], 15	; 0000000fH

; 5000 :         _My_data._Activate_SSO_buffer();
; 5001 : 
; 5002 :         // the _Traits::assign is last so the codegen doesn't think the char write can alias this
; 5003 :         _Traits::assign(_My_data._Bx._Buf[0], _Elem());

  0004b	c6 06 00	 mov	 BYTE PTR [esi], 0
; File C:\Users\Marian\Desktop\Aeldra\ProjectA-main\Binary\Client\PRTerrainLib\TextureSet.h

; 16   : 	{

  0004e	8d 4e 1c	 lea	 ecx, DWORD PTR [esi+28]
  00051	c7 45 fc 00 00
	00 00		 mov	 DWORD PTR __$EHRec$[ebp+8], 0
  00058	c7 46 18 00 00
	00 00		 mov	 DWORD PTR [esi+24], 0
  0005f	e8 00 00 00 00	 call	 ??0CGraphicImageInstance@@QAE@XZ ; CGraphicImageInstance::CGraphicImageInstance
  00064	33 c0		 xor	 eax, eax
  00066	c7 46 44 00 00
	80 40		 mov	 DWORD PTR [esi+68], 1082130432 ; 40800000H
  0006d	89 46 56	 mov	 DWORD PTR [esi+86], eax

; 17   : 	}

  00070	8b c6		 mov	 eax, esi
  00072	c7 46 48 00 00
	80 40		 mov	 DWORD PTR [esi+72], 1082130432 ; 40800000H
  00079	c7 46 4c 00 00
	00 00		 mov	 DWORD PTR [esi+76], 0
  00080	c7 46 50 00 00
	00 00		 mov	 DWORD PTR [esi+80], 0
  00087	c6 46 54 01	 mov	 BYTE PTR [esi+84], 1
  0008b	8b 4d f4	 mov	 ecx, DWORD PTR __$EHRec$[ebp]
  0008e	64 89 0d 00 00
	00 00		 mov	 DWORD PTR fs:0, ecx
  00095	59		 pop	 ecx
  00096	5e		 pop	 esi
  00097	8b e5		 mov	 esp, ebp
  00099	5d		 pop	 ebp
  0009a	c3		 ret	 0
_TEXT	ENDS
;	COMDAT text$x
text$x	SEGMENT
__unwindfunclet$??0STerrainTexture@@QAE@XZ$0:
  00000	8b 4d f0	 mov	 ecx, DWORD PTR _this$[ebp]
  00003	e9 00 00 00 00	 jmp	 ??1?$basic_string@DU?$char_traits@D@std@@V?$allocator@D@2@@std@@QAE@XZ ; std::basic_string<char,std::char_traits<char>,std::allocator<char> >::~basic_string<char,std::char_traits<char>,std::allocator<char> >
  00008	cc		 int	 3
  00009	cc		 int	 3
  0000a	cc		 int	 3
  0000b	cc		 int	 3
  0000c	cc		 int	 3
__ehhandler$??0STerrainTexture@@QAE@XZ:
  0000d	90		 npad	 1
  0000e	90		 npad	 1
  0000f	8b 54 24 08	 mov	 edx, DWORD PTR [esp+8]
  00013	8d 42 0c	 lea	 eax, DWORD PTR [edx+12]
  00016	8b 4a f4	 mov	 ecx, DWORD PTR [edx-12]
  00019	33 c8		 xor	 ecx, eax
  0001b	e8 00 00 00 00	 call	 @__security_check_cookie@4
  00020	b8 00 00 00 00	 mov	 eax, OFFSET __ehfuncinfo$??0STerrainTexture@@QAE@XZ
  00025	e9 00 00 00 00	 jmp	 ___CxxFrameHandler3
text$x	ENDS
??0STerrainTexture@@QAE@XZ ENDP				; STerrainTexture::STerrainTexture
; Function compile flags: /Ogtp
;	COMDAT ??_GCGraphicImageInstance@@UAEPAXI@Z
_TEXT	SEGMENT
___flags$ = 8						; size = 4
??_GCGraphicImageInstance@@UAEPAXI@Z PROC		; CGraphicImageInstance::`scalar deleting destructor', COMDAT
; _this$ = ecx
  00000	55		 push	 ebp
  00001	8b ec		 mov	 ebp, esp
  00003	56		 push	 esi
  00004	8b f1		 mov	 esi, ecx
  00006	e8 00 00 00 00	 call	 ??1CGraphicImageInstance@@UAE@XZ ; CGraphicImageInstance::~CGraphicImageInstance
  0000b	f6 45 08 01	 test	 BYTE PTR ___flags$[ebp], 1
  0000f	74 0b		 je	 SHORT $LN4@scalar
  00011	6a 28		 push	 40			; 00000028H
  00013	56		 push	 esi
  00014	e8 00 00 00 00	 call	 ??3@YAXPAXI@Z		; operator delete
  00019	83 c4 08	 add	 esp, 8
$LN4@scalar:
  0001c	8b c6		 mov	 eax, esi
  0001e	5e		 pop	 esi
  0001f	5d		 pop	 ebp
  00020	c2 04 00	 ret	 4
??_GCGraphicImageInstance@@UAEPAXI@Z ENDP		; CGraphicImageInstance::`scalar deleting destructor'
_TEXT	ENDS
; Function compile flags: /Ogtp
; File C:\Program Files\Microsoft Visual Studio\2022\Community\VC\Tools\MSVC\14.34.31933\include\vector
; File C:\Program Files\Microsoft Visual Studio\2022\Community\VC\Tools\MSVC\14.34.31933\include\xmemory
; File C:\Program Files\Microsoft Visual Studio\2022\Community\VC\Tools\MSVC\14.34.31933\include\xstring
; File C:\Program Files\Microsoft Visual Studio\2022\Community\VC\Tools\MSVC\14.34.31933\include\xmemory
; File C:\Program Files\Microsoft Visual Studio\2022\Community\VC\Tools\MSVC\14.34.31933\include\xstring
; File C:\Program Files\Microsoft Visual Studio\2022\Community\VC\Tools\MSVC\14.34.31933\include\xmemory
; File C:\Program Files\Microsoft Visual Studio\2022\Community\VC\Tools\MSVC\14.34.31933\include\xstring
; File C:\Program Files\Microsoft Visual Studio\2022\Community\VC\Tools\MSVC\14.34.31933\include\xmemory
; File C:\Program Files\Microsoft Visual Studio\2022\Community\VC\Tools\MSVC\14.34.31933\include\vector
; File C:\Program Files\Microsoft Visual Studio\2022\Community\VC\Tools\MSVC\14.34.31933\include\xmemory
; File C:\Program Files\Microsoft Visual Studio\2022\Community\VC\Tools\MSVC\14.34.31933\include\vector
; File C:\Program Files\Microsoft Visual Studio\2022\Community\VC\Tools\MSVC\14.34.31933\include\xmemory
; File C:\Program Files\Microsoft Visual Studio\2022\Community\VC\Tools\MSVC\14.34.31933\include\vector
; File C:\Program Files\Microsoft Visual Studio\2022\Community\VC\Tools\MSVC\14.34.31933\include\xmemory
; File C:\Program Files\Microsoft Visual Studio\2022\Community\VC\Tools\MSVC\14.34.31933\include\vector
; File C:\Program Files\Microsoft Visual Studio\2022\Community\VC\Tools\MSVC\14.34.31933\include\xmemory
; File C:\Program Files\Microsoft Visual Studio\2022\Community\VC\Tools\MSVC\14.34.31933\include\vector
;	COMDAT ??1?$vector@V?$basic_string@DU?$char_traits@D@std@@V?$allocator@D@2@@std@@V?$allocator@V?$basic_string@DU?$char_traits@D@std@@V?$allocator@D@2@@std@@@2@@std@@QAE@XZ
_TEXT	SEGMENT
??1?$vector@V?$basic_string@DU?$char_traits@D@std@@V?$allocator@D@2@@std@@V?$allocator@V?$basic_string@DU?$char_traits@D@std@@V?$allocator@D@2@@std@@@2@@std@@QAE@XZ PROC ; std::vector<std::basic_string<char,std::char_traits<char>,std::allocator<char> >,std::allocator<std::basic_string<char,std::char_traits<char>,std::allocator<char> > > >::~vector<std::basic_string<char,std::char_traits<char>,std::allocator<char> >,std::allocator<std::basic_string<char,std::char_traits<char>,std::allocator<char> > > >, COMDAT
; _this$ = ecx

; 829  :     _CONSTEXPR20 ~vector() noexcept {

  00000	56		 push	 esi
  00001	57		 push	 edi
  00002	8b f9		 mov	 edi, ecx

; 2107 :         if (_Myfirst) { // destroy and deallocate old array

  00004	8b 37		 mov	 esi, DWORD PTR [edi]
  00006	85 f6		 test	 esi, esi
  00008	0f 84 a6 00 00
	00		 je	 $LN4@vector

; 2108 :             _Destroy_range(_Myfirst, _Mylast, _Al);

  0000e	53		 push	 ebx
  0000f	8b 5f 04	 mov	 ebx, DWORD PTR [edi+4]
; File C:\Program Files\Microsoft Visual Studio\2022\Community\VC\Tools\MSVC\14.34.31933\include\xmemory

; 947  :         for (; _First != _Last; ++_First) {

  00012	3b f3		 cmp	 esi, ebx
  00014	74 47		 je	 SHORT $LN8@vector
$LL9@vector:
; File C:\Program Files\Microsoft Visual Studio\2022\Community\VC\Tools\MSVC\14.34.31933\include\xstring

; 2301 :         return _BUF_SIZE <= _Myres;

  00016	8b 4e 14	 mov	 ecx, DWORD PTR [esi+20]
  00019	83 f9 10	 cmp	 ecx, 16			; 00000010H

; 5011 :         if (_My_data._Large_string_engaged()) {

  0001c	72 27		 jb	 SHORT $LN28@vector
; File C:\Program Files\Microsoft Visual Studio\2022\Community\VC\Tools\MSVC\14.34.31933\include\xmemory

; 830  :         _Deallocate<_New_alignof<_Ty>>(_Ptr, sizeof(_Ty) * _Count);

  0001e	8b 06		 mov	 eax, DWORD PTR [esi]
; File C:\Program Files\Microsoft Visual Studio\2022\Community\VC\Tools\MSVC\14.34.31933\include\xstring

; 5016 :             _Al.deallocate(_Ptr, _My_data._Myres + 1);

  00020	41		 inc	 ecx
; File C:\Program Files\Microsoft Visual Studio\2022\Community\VC\Tools\MSVC\14.34.31933\include\xmemory

; 251  :         if (_Bytes >= _Big_allocation_threshold) { // boost the alignment of big allocations to help autovectorization

  00021	81 f9 00 10 00
	00		 cmp	 ecx, 4096		; 00001000H
  00027	72 12		 jb	 SHORT $LN38@vector

; 150  :     const uintptr_t _Ptr_container   = _Ptr_user[-1];

  00029	8b 50 fc	 mov	 edx, DWORD PTR [eax-4]
  0002c	83 c1 23	 add	 ecx, 35			; 00000023H

; 151  : 
; 152  :     // If the following asserts, it likely means that we are performing
; 153  :     // an aligned delete on memory coming from an unaligned allocation.
; 154  :     _STL_ASSERT(_Ptr_user[-2] == _Big_allocation_sentinel, "invalid argument");
; 155  : 
; 156  :     // Extra paranoia on aligned allocation/deallocation; ensure _Ptr_container is
; 157  :     // in range [_Min_back_shift, _Non_user_size]
; 158  : #ifdef _DEBUG
; 159  :     constexpr uintptr_t _Min_back_shift = 2 * sizeof(void*);
; 160  : #else // ^^^ _DEBUG ^^^ // vvv !_DEBUG vvv
; 161  :     constexpr uintptr_t _Min_back_shift = sizeof(void*);
; 162  : #endif // _DEBUG
; 163  :     const uintptr_t _Back_shift = reinterpret_cast<uintptr_t>(_Ptr) - _Ptr_container;

  0002f	2b c2		 sub	 eax, edx

; 164  :     _STL_VERIFY(_Back_shift >= _Min_back_shift && _Back_shift <= _Non_user_size, "invalid argument");

  00031	83 c0 fc	 add	 eax, -4			; fffffffcH
  00034	83 f8 1f	 cmp	 eax, 31			; 0000001fH
  00037	77 7e		 ja	 SHORT $LN58@vector

; 165  :     _Ptr = reinterpret_cast<void*>(_Ptr_container);

  00039	8b c2		 mov	 eax, edx
$LN38@vector:

; 255  :         ::operator delete(_Ptr, _Bytes);

  0003b	51		 push	 ecx
  0003c	50		 push	 eax
  0003d	e8 00 00 00 00	 call	 ??3@YAXPAXI@Z		; operator delete
  00042	83 c4 08	 add	 esp, 8
$LN28@vector:
; File C:\Program Files\Microsoft Visual Studio\2022\Community\VC\Tools\MSVC\14.34.31933\include\xstring

; 5019 :         _My_data._Mysize = 0;

  00045	c7 46 10 00 00
	00 00		 mov	 DWORD PTR [esi+16], 0

; 5020 :         _My_data._Myres  = _BUF_SIZE - 1;

  0004c	c7 46 14 0f 00
	00 00		 mov	 DWORD PTR [esi+20], 15	; 0000000fH

; 5021 :         // the _Traits::assign is last so the codegen doesn't think the char write can alias this
; 5022 :         _Traits::assign(_My_data._Bx._Buf[0], _Elem());

  00053	c6 06 00	 mov	 BYTE PTR [esi], 0
; File C:\Program Files\Microsoft Visual Studio\2022\Community\VC\Tools\MSVC\14.34.31933\include\xmemory

; 947  :         for (; _First != _Last; ++_First) {

  00056	83 c6 18	 add	 esi, 24			; 00000018H
  00059	3b f3		 cmp	 esi, ebx
  0005b	75 b9		 jne	 SHORT $LL9@vector
$LN8@vector:
; File C:\Program Files\Microsoft Visual Studio\2022\Community\VC\Tools\MSVC\14.34.31933\include\vector

; 2110 :             _Al.deallocate(_Myfirst, static_cast<size_type>(_Myend - _Myfirst));

  0005d	8b 4f 08	 mov	 ecx, DWORD PTR [edi+8]
  00060	b8 ab aa aa 2a	 mov	 eax, 715827883		; 2aaaaaabH
  00065	8b 37		 mov	 esi, DWORD PTR [edi]
  00067	2b ce		 sub	 ecx, esi
  00069	f7 e9		 imul	 ecx
; File C:\Program Files\Microsoft Visual Studio\2022\Community\VC\Tools\MSVC\14.34.31933\include\xmemory

; 830  :         _Deallocate<_New_alignof<_Ty>>(_Ptr, sizeof(_Ty) * _Count);

  0006b	5b		 pop	 ebx
; File C:\Program Files\Microsoft Visual Studio\2022\Community\VC\Tools\MSVC\14.34.31933\include\vector

; 2110 :             _Al.deallocate(_Myfirst, static_cast<size_type>(_Myend - _Myfirst));

  0006c	c1 fa 02	 sar	 edx, 2
  0006f	8b c2		 mov	 eax, edx
  00071	c1 e8 1f	 shr	 eax, 31			; 0000001fH
  00074	03 c2		 add	 eax, edx
; File C:\Program Files\Microsoft Visual Studio\2022\Community\VC\Tools\MSVC\14.34.31933\include\xmemory

; 830  :         _Deallocate<_New_alignof<_Ty>>(_Ptr, sizeof(_Ty) * _Count);

  00076	8d 0c 40	 lea	 ecx, DWORD PTR [eax+eax*2]
  00079	c1 e1 03	 shl	 ecx, 3

; 251  :         if (_Bytes >= _Big_allocation_threshold) { // boost the alignment of big allocations to help autovectorization

  0007c	81 f9 00 10 00
	00		 cmp	 ecx, 4096		; 00001000H
  00082	72 12		 jb	 SHORT $LN61@vector

; 150  :     const uintptr_t _Ptr_container   = _Ptr_user[-1];

  00084	8b 56 fc	 mov	 edx, DWORD PTR [esi-4]
  00087	83 c1 23	 add	 ecx, 35			; 00000023H

; 151  : 
; 152  :     // If the following asserts, it likely means that we are performing
; 153  :     // an aligned delete on memory coming from an unaligned allocation.
; 154  :     _STL_ASSERT(_Ptr_user[-2] == _Big_allocation_sentinel, "invalid argument");
; 155  : 
; 156  :     // Extra paranoia on aligned allocation/deallocation; ensure _Ptr_container is
; 157  :     // in range [_Min_back_shift, _Non_user_size]
; 158  : #ifdef _DEBUG
; 159  :     constexpr uintptr_t _Min_back_shift = 2 * sizeof(void*);
; 160  : #else // ^^^ _DEBUG ^^^ // vvv !_DEBUG vvv
; 161  :     constexpr uintptr_t _Min_back_shift = sizeof(void*);
; 162  : #endif // _DEBUG
; 163  :     const uintptr_t _Back_shift = reinterpret_cast<uintptr_t>(_Ptr) - _Ptr_container;

  0008a	2b f2		 sub	 esi, edx

; 164  :     _STL_VERIFY(_Back_shift >= _Min_back_shift && _Back_shift <= _Non_user_size, "invalid argument");

  0008c	8d 46 fc	 lea	 eax, DWORD PTR [esi-4]
  0008f	83 f8 1f	 cmp	 eax, 31			; 0000001fH
  00092	77 23		 ja	 SHORT $LN58@vector

; 165  :     _Ptr = reinterpret_cast<void*>(_Ptr_container);

  00094	8b f2		 mov	 esi, edx
$LN61@vector:

; 255  :         ::operator delete(_Ptr, _Bytes);

  00096	51		 push	 ecx
  00097	56		 push	 esi
  00098	e8 00 00 00 00	 call	 ??3@YAXPAXI@Z		; operator delete
; File C:\Program Files\Microsoft Visual Studio\2022\Community\VC\Tools\MSVC\14.34.31933\include\vector

; 2112 :             _Myfirst = nullptr;

  0009d	c7 07 00 00 00
	00		 mov	 DWORD PTR [edi], 0
; File C:\Program Files\Microsoft Visual Studio\2022\Community\VC\Tools\MSVC\14.34.31933\include\xmemory

; 255  :         ::operator delete(_Ptr, _Bytes);

  000a3	83 c4 08	 add	 esp, 8
; File C:\Program Files\Microsoft Visual Studio\2022\Community\VC\Tools\MSVC\14.34.31933\include\vector

; 2113 :             _Mylast  = nullptr;

  000a6	c7 47 04 00 00
	00 00		 mov	 DWORD PTR [edi+4], 0

; 2114 :             _Myend   = nullptr;

  000ad	c7 47 08 00 00
	00 00		 mov	 DWORD PTR [edi+8], 0
$LN4@vector:
  000b4	5f		 pop	 edi

; 835  :     }

  000b5	5e		 pop	 esi
  000b6	c3		 ret	 0
$LN58@vector:
; File C:\Program Files\Microsoft Visual Studio\2022\Community\VC\Tools\MSVC\14.34.31933\include\xmemory

; 164  :     _STL_VERIFY(_Back_shift >= _Min_back_shift && _Back_shift <= _Non_user_size, "invalid argument");

  000b7	e8 00 00 00 00	 call	 __invalid_parameter_noinfo_noreturn
$LN69@vector:
  000bc	cc		 int	 3
??1?$vector@V?$basic_string@DU?$char_traits@D@std@@V?$allocator@D@2@@std@@V?$allocator@V?$basic_string@DU?$char_traits@D@std@@V?$allocator@D@2@@std@@@2@@std@@QAE@XZ ENDP ; std::vector<std::basic_string<char,std::char_traits<char>,std::allocator<char> >,std::allocator<std::basic_string<char,std::char_traits<char>,std::allocator<char> > > >::~vector<std::basic_string<char,std::char_traits<char>,std::allocator<char> >,std::allocator<std::basic_string<char,std::char_traits<char>,std::allocator<char> > > >
_TEXT	ENDS
; Function compile flags: /Ogtp
; File C:\Program Files\Microsoft Visual Studio\2022\Community\VC\Tools\MSVC\14.34.31933\include\xtree
;	COMDAT ?_Throw_tree_length_error@std@@YAXXZ
_TEXT	SEGMENT
?_Throw_tree_length_error@std@@YAXXZ PROC		; std::_Throw_tree_length_error, COMDAT

; 418  :     _Xlength_error("map/set too long");

  00000	68 00 00 00 00	 push	 OFFSET ??_C@_0BB@GCADKGJO@map?1set?5too?5long@
  00005	e8 00 00 00 00	 call	 ?_Xlength_error@std@@YAXPBD@Z ; std::_Xlength_error
$LN3@Throw_tree:
  0000a	cc		 int	 3
?_Throw_tree_length_error@std@@YAXXZ ENDP		; std::_Throw_tree_length_error
_TEXT	ENDS
; Function compile flags: /Ogtp
; File C:\Program Files\Microsoft Visual Studio\2022\Community\VC\Tools\MSVC\14.34.31933\include\xstring
; File C:\Program Files\Microsoft Visual Studio\2022\Community\VC\Tools\MSVC\14.34.31933\include\xmemory
; File C:\Program Files\Microsoft Visual Studio\2022\Community\VC\Tools\MSVC\14.34.31933\include\xstring
; File C:\Program Files\Microsoft Visual Studio\2022\Community\VC\Tools\MSVC\14.34.31933\include\xmemory
; File C:\Program Files\Microsoft Visual Studio\2022\Community\VC\Tools\MSVC\14.34.31933\include\xstring
; File C:\Program Files\Microsoft Visual Studio\2022\Community\VC\Tools\MSVC\14.34.31933\include\utility
; File C:\Program Files\Microsoft Visual Studio\2022\Community\VC\Tools\MSVC\14.34.31933\include\xstring
; File C:\Program Files\Microsoft Visual Studio\2022\Community\VC\Tools\MSVC\14.34.31933\include\xmemory
; File C:\Program Files\Microsoft Visual Studio\2022\Community\VC\Tools\MSVC\14.34.31933\include\xstring
; File C:\Program Files\Microsoft Visual Studio\2022\Community\VC\Tools\MSVC\14.34.31933\include\xmemory
; File C:\Program Files\Microsoft Visual Studio\2022\Community\VC\Tools\MSVC\14.34.31933\include\xstring
; File C:\Program Files\Microsoft Visual Studio\2022\Community\VC\Tools\MSVC\14.34.31933\include\xmemory
; File C:\Program Files\Microsoft Visual Studio\2022\Community\VC\Tools\MSVC\14.34.31933\include\xstring
;	COMDAT ?assign@?$basic_string@DU?$char_traits@D@std@@V?$allocator@D@2@@std@@QAEAAV12@QBDI@Z
_TEXT	SEGMENT
__Old$1$ = -4						; size = 4
__Ptr$ = 8						; size = 4
$T1 = 12						; size = 4
__Count$ = 12						; size = 4
?assign@?$basic_string@DU?$char_traits@D@std@@V?$allocator@D@2@@std@@QAEAAV12@QBDI@Z PROC ; std::basic_string<char,std::char_traits<char>,std::allocator<char> >::assign, COMDAT
; _this$ = ecx

; 3528 :         _In_reads_(_Count) const _Elem* const _Ptr, _CRT_GUARDOVERFLOW const size_type _Count) {

  00000	55		 push	 ebp
  00001	8b ec		 mov	 ebp, esp
  00003	51		 push	 ecx
  00004	53		 push	 ebx

; 3529 :         // assign [_Ptr, _Ptr + _Count)
; 3530 :         if (_Count <= _Mypair._Myval2._Myres) {

  00005	8b 5d 0c	 mov	 ebx, DWORD PTR __Count$[ebp]
  00008	56		 push	 esi
  00009	8b f1		 mov	 esi, ecx
  0000b	57		 push	 edi
  0000c	8b 4e 14	 mov	 ecx, DWORD PTR [esi+20]
  0000f	89 4d fc	 mov	 DWORD PTR __Old$1$[ebp], ecx
  00012	3b d9		 cmp	 ebx, ecx
  00014	77 28		 ja	 SHORT $LN2@assign

; 2283 :         value_type* _Result = _Bx._Buf;

  00016	8b fe		 mov	 edi, esi

; 2301 :         return _BUF_SIZE <= _Myres;

  00018	83 f9 10	 cmp	 ecx, 16			; 00000010H

; 2284 :         if (_Large_string_engaged()) {

  0001b	72 02		 jb	 SHORT $LN5@assign

; 2285 :             _Result = _Unfancy(_Bx._Ptr);

  0001d	8b 3e		 mov	 edi, DWORD PTR [esi]
$LN5@assign:

; 117  :         _CSTD memmove(_First1, _First2, _Count * sizeof(_Elem));

  0001f	53		 push	 ebx
  00020	ff 75 08	 push	 DWORD PTR __Ptr$[ebp]

; 3531 :             _ASAN_STRING_MODIFY(static_cast<difference_type>(_Count - _Mypair._Myval2._Mysize));
; 3532 :             _Elem* const _Old_ptr   = _Mypair._Myval2._Myptr();
; 3533 :             _Mypair._Myval2._Mysize = _Count;

  00023	89 5e 10	 mov	 DWORD PTR [esi+16], ebx

; 117  :         _CSTD memmove(_First1, _First2, _Count * sizeof(_Elem));

  00026	57		 push	 edi
  00027	e8 00 00 00 00	 call	 _memmove
  0002c	83 c4 0c	 add	 esp, 12			; 0000000cH

; 3534 :             _Traits::move(_Old_ptr, _Ptr, _Count);
; 3535 :             _Traits::assign(_Old_ptr[_Count], _Elem());

  0002f	c6 04 1f 00	 mov	 BYTE PTR [edi+ebx], 0

; 3544 :             },
; 3545 :             _Ptr);
; 3546 :     }

  00033	8b c6		 mov	 eax, esi
  00035	5f		 pop	 edi
  00036	5e		 pop	 esi
  00037	5b		 pop	 ebx
  00038	8b e5		 mov	 esp, ebp
  0003a	5d		 pop	 ebp
  0003b	c2 08 00	 ret	 8
$LN2@assign:

; 4903 :         if (_New_size > max_size()) {

  0003e	81 fb ff ff ff
	7f		 cmp	 ebx, 2147483647		; 7fffffffH
  00044	0f 87 d4 00 00
	00		 ja	 $LN60@assign

; 4883 :         const size_type _Masked = _Requested | _ALLOC_MASK;

  0004a	8b fb		 mov	 edi, ebx
  0004c	83 cf 0f	 or	 edi, 15			; 0000000fH
  0004f	81 ff ff ff ff
	7f		 cmp	 edi, 2147483647		; 7fffffffH

; 4884 :         if (_Masked > _Max) { // the mask overflows, settle for max_size()

  00055	76 15		 jbe	 SHORT $LN19@assign

; 4885 :             return _Max;

  00057	b8 00 00 00 80	 mov	 eax, -2147483648	; 80000000H
  0005c	bf ff ff ff 7f	 mov	 edi, 2147483647		; 7fffffffH
; File C:\Program Files\Microsoft Visual Studio\2022\Community\VC\Tools\MSVC\14.34.31933\include\xmemory

; 229  :             return _Allocate_manually_vector_aligned<_Traits>(_Bytes);

  00061	50		 push	 eax
  00062	e8 00 00 00 00	 call	 ??$_Allocate_manually_vector_aligned@U_Default_allocate_traits@std@@@std@@YAPAXI@Z ; std::_Allocate_manually_vector_aligned<std::_Default_allocate_traits>
  00067	83 c4 04	 add	 esp, 4
  0006a	eb 52		 jmp	 SHORT $LN58@assign
$LN19@assign:
; File C:\Program Files\Microsoft Visual Studio\2022\Community\VC\Tools\MSVC\14.34.31933\include\xstring

; 4888 :         if (_Old > _Max - _Old / 2) { // similarly, geometric overflows

  0006c	8b d1		 mov	 edx, ecx
  0006e	b8 ff ff ff 7f	 mov	 eax, 2147483647		; 7fffffffH
  00073	d1 ea		 shr	 edx, 1
  00075	2b c2		 sub	 eax, edx
  00077	3b c8		 cmp	 ecx, eax
  00079	76 15		 jbe	 SHORT $LN20@assign

; 4889 :             return _Max;

  0007b	b8 00 00 00 80	 mov	 eax, -2147483648	; 80000000H
  00080	bf ff ff ff 7f	 mov	 edi, 2147483647		; 7fffffffH
; File C:\Program Files\Microsoft Visual Studio\2022\Community\VC\Tools\MSVC\14.34.31933\include\xmemory

; 229  :             return _Allocate_manually_vector_aligned<_Traits>(_Bytes);

  00085	50		 push	 eax
  00086	e8 00 00 00 00	 call	 ??$_Allocate_manually_vector_aligned@U_Default_allocate_traits@std@@@std@@YAPAXI@Z ; std::_Allocate_manually_vector_aligned<std::_Default_allocate_traits>
  0008b	83 c4 04	 add	 esp, 4
  0008e	eb 2e		 jmp	 SHORT $LN58@assign
$LN20@assign:
; File C:\Program Files\Microsoft Visual Studio\2022\Community\VC\Tools\MSVC\14.34.31933\include\xstring

; 4892 :         return (_STD max)(_Masked, _Old + _Old / 2);

  00090	8d 04 0a	 lea	 eax, DWORD PTR [edx+ecx]
; File C:\Program Files\Microsoft Visual Studio\2022\Community\VC\Tools\MSVC\14.34.31933\include\utility

; 43   :     return _Left < _Right ? _Right : _Left;

  00093	3b f8		 cmp	 edi, eax
  00095	0f 42 f8	 cmovb	 edi, eax
; File C:\Program Files\Microsoft Visual Studio\2022\Community\VC\Tools\MSVC\14.34.31933\include\xstring

; 4910 :         const pointer _New_ptr        = _Al.allocate(_New_capacity + 1); // throws

  00098	8d 47 01	 lea	 eax, DWORD PTR [edi+1]
; File C:\Program Files\Microsoft Visual Studio\2022\Community\VC\Tools\MSVC\14.34.31933\include\xmemory

; 228  :         if (_Bytes >= _Big_allocation_threshold) { // boost the alignment of big allocations to help autovectorization

  0009b	3d 00 10 00 00	 cmp	 eax, 4096		; 00001000H
  000a0	72 0b		 jb	 SHORT $LN27@assign

; 229  :             return _Allocate_manually_vector_aligned<_Traits>(_Bytes);

  000a2	50		 push	 eax
  000a3	e8 00 00 00 00	 call	 ??$_Allocate_manually_vector_aligned@U_Default_allocate_traits@std@@@std@@YAPAXI@Z ; std::_Allocate_manually_vector_aligned<std::_Default_allocate_traits>
  000a8	83 c4 04	 add	 esp, 4
  000ab	eb 11		 jmp	 SHORT $LN58@assign
$LN27@assign:

; 230  :         }
; 231  :     }
; 232  : #endif // defined(_M_IX86) || defined(_M_X64)
; 233  : 
; 234  :     if (_Bytes != 0) {

  000ad	85 c0		 test	 eax, eax
  000af	74 0b		 je	 SHORT $LN28@assign

; 77   :         return ::operator new(_Bytes);

  000b1	50		 push	 eax
  000b2	e8 00 00 00 00	 call	 ??2@YAPAXI@Z		; operator new
  000b7	83 c4 04	 add	 esp, 4

; 235  :         return _Traits::_Allocate(_Bytes);

  000ba	eb 02		 jmp	 SHORT $LN58@assign
$LN28@assign:

; 236  :     }
; 237  : 
; 238  :     return nullptr;

  000bc	33 c0		 xor	 eax, eax
$LN58@assign:
; File C:\Program Files\Microsoft Visual Studio\2022\Community\VC\Tools\MSVC\14.34.31933\include\xstring

; 64   :         _CSTD memcpy(_First1, _First2, _Count * sizeof(_Elem));

  000be	53		 push	 ebx
  000bf	ff 75 08	 push	 DWORD PTR __Ptr$[ebp]

; 4919 :         _Mypair._Myval2._Mysize = _New_size;

  000c2	89 45 0c	 mov	 DWORD PTR $T1[ebp], eax

; 64   :         _CSTD memcpy(_First1, _First2, _Count * sizeof(_Elem));

  000c5	50		 push	 eax

; 4919 :         _Mypair._Myval2._Mysize = _New_size;

  000c6	89 5e 10	 mov	 DWORD PTR [esi+16], ebx

; 4920 :         _Mypair._Myval2._Myres  = _New_capacity;

  000c9	89 7e 14	 mov	 DWORD PTR [esi+20], edi

; 64   :         _CSTD memcpy(_First1, _First2, _Count * sizeof(_Elem));

  000cc	e8 00 00 00 00	 call	 _memcpy

; 3543 :                 _Traits::assign(_New_ptr[_Count], _Elem());

  000d1	8b 7d 0c	 mov	 edi, DWORD PTR $T1[ebp]

; 64   :         _CSTD memcpy(_First1, _First2, _Count * sizeof(_Elem));

  000d4	83 c4 0c	 add	 esp, 12			; 0000000cH

; 4922 :         if (_BUF_SIZE <= _Old_capacity) {

  000d7	8b 45 fc	 mov	 eax, DWORD PTR __Old$1$[ebp]

; 3543 :                 _Traits::assign(_New_ptr[_Count], _Elem());

  000da	c6 04 1f 00	 mov	 BYTE PTR [edi+ebx], 0

; 4922 :         if (_BUF_SIZE <= _Old_capacity) {

  000de	83 f8 10	 cmp	 eax, 16			; 00000010H
  000e1	72 29		 jb	 SHORT $LN13@assign

; 4923 :             _Al.deallocate(_Mypair._Myval2._Bx._Ptr, _Old_capacity + 1);

  000e3	8d 48 01	 lea	 ecx, DWORD PTR [eax+1]
; File C:\Program Files\Microsoft Visual Studio\2022\Community\VC\Tools\MSVC\14.34.31933\include\xmemory

; 830  :         _Deallocate<_New_alignof<_Ty>>(_Ptr, sizeof(_Ty) * _Count);

  000e6	8b 06		 mov	 eax, DWORD PTR [esi]

; 251  :         if (_Bytes >= _Big_allocation_threshold) { // boost the alignment of big allocations to help autovectorization

  000e8	81 f9 00 10 00
	00		 cmp	 ecx, 4096		; 00001000H
  000ee	72 12		 jb	 SHORT $LN50@assign

; 150  :     const uintptr_t _Ptr_container   = _Ptr_user[-1];

  000f0	8b 50 fc	 mov	 edx, DWORD PTR [eax-4]
  000f3	83 c1 23	 add	 ecx, 35			; 00000023H

; 151  : 
; 152  :     // If the following asserts, it likely means that we are performing
; 153  :     // an aligned delete on memory coming from an unaligned allocation.
; 154  :     _STL_ASSERT(_Ptr_user[-2] == _Big_allocation_sentinel, "invalid argument");
; 155  : 
; 156  :     // Extra paranoia on aligned allocation/deallocation; ensure _Ptr_container is
; 157  :     // in range [_Min_back_shift, _Non_user_size]
; 158  : #ifdef _DEBUG
; 159  :     constexpr uintptr_t _Min_back_shift = 2 * sizeof(void*);
; 160  : #else // ^^^ _DEBUG ^^^ // vvv !_DEBUG vvv
; 161  :     constexpr uintptr_t _Min_back_shift = sizeof(void*);
; 162  : #endif // _DEBUG
; 163  :     const uintptr_t _Back_shift = reinterpret_cast<uintptr_t>(_Ptr) - _Ptr_container;

  000f6	2b c2		 sub	 eax, edx

; 164  :     _STL_VERIFY(_Back_shift >= _Min_back_shift && _Back_shift <= _Non_user_size, "invalid argument");

  000f8	83 c0 fc	 add	 eax, -4			; fffffffcH
  000fb	83 f8 1f	 cmp	 eax, 31			; 0000001fH
  000fe	77 19		 ja	 SHORT $LN47@assign

; 165  :     _Ptr = reinterpret_cast<void*>(_Ptr_container);

  00100	8b c2		 mov	 eax, edx
$LN50@assign:

; 255  :         ::operator delete(_Ptr, _Bytes);

  00102	51		 push	 ecx
  00103	50		 push	 eax
  00104	e8 00 00 00 00	 call	 ??3@YAXPAXI@Z		; operator delete
  00109	83 c4 08	 add	 esp, 8
$LN13@assign:
; File C:\Program Files\Microsoft Visual Studio\2022\Community\VC\Tools\MSVC\14.34.31933\include\xstring

; 3539 :         return _Reallocate_for(

  0010c	89 3e		 mov	 DWORD PTR [esi], edi

; 3544 :             },
; 3545 :             _Ptr);
; 3546 :     }

  0010e	8b c6		 mov	 eax, esi
  00110	5f		 pop	 edi
  00111	5e		 pop	 esi
  00112	5b		 pop	 ebx
  00113	8b e5		 mov	 esp, ebp
  00115	5d		 pop	 ebp
  00116	c2 08 00	 ret	 8
$LN47@assign:
; File C:\Program Files\Microsoft Visual Studio\2022\Community\VC\Tools\MSVC\14.34.31933\include\xmemory

; 164  :     _STL_VERIFY(_Back_shift >= _Min_back_shift && _Back_shift <= _Non_user_size, "invalid argument");

  00119	e8 00 00 00 00	 call	 __invalid_parameter_noinfo_noreturn
$LN60@assign:
; File C:\Program Files\Microsoft Visual Studio\2022\Community\VC\Tools\MSVC\14.34.31933\include\xstring

; 4904 :             _Xlen_string(); // result too long

  0011e	e8 00 00 00 00	 call	 ?_Xlen_string@std@@YAXXZ ; std::_Xlen_string
$LN56@assign:
  00123	cc		 int	 3
?assign@?$basic_string@DU?$char_traits@D@std@@V?$allocator@D@2@@std@@QAEAAV12@QBDI@Z ENDP ; std::basic_string<char,std::char_traits<char>,std::allocator<char> >::assign
_TEXT	ENDS
; Function compile flags: /Ogtp
; File C:\Program Files\Microsoft Visual Studio\2022\Community\VC\Tools\MSVC\14.34.31933\include\xstring
; File C:\Program Files\Microsoft Visual Studio\2022\Community\VC\Tools\MSVC\14.34.31933\include\xmemory
; File C:\Program Files\Microsoft Visual Studio\2022\Community\VC\Tools\MSVC\14.34.31933\include\xstring
; File C:\Program Files\Microsoft Visual Studio\2022\Community\VC\Tools\MSVC\14.34.31933\include\xmemory
; File C:\Program Files\Microsoft Visual Studio\2022\Community\VC\Tools\MSVC\14.34.31933\include\xstring
; File C:\Program Files\Microsoft Visual Studio\2022\Community\VC\Tools\MSVC\14.34.31933\include\xmemory
; File C:\Program Files\Microsoft Visual Studio\2022\Community\VC\Tools\MSVC\14.34.31933\include\xstring
;	COMDAT ??1?$basic_string@DU?$char_traits@D@std@@V?$allocator@D@2@@std@@QAE@XZ
_TEXT	SEGMENT
??1?$basic_string@DU?$char_traits@D@std@@V?$allocator@D@2@@std@@QAE@XZ PROC ; std::basic_string<char,std::char_traits<char>,std::allocator<char> >::~basic_string<char,std::char_traits<char>,std::allocator<char> >, COMDAT
; _this$ = ecx

; 3270 :     _CONSTEXPR20 ~basic_string() noexcept {

  00000	56		 push	 esi
  00001	8b f1		 mov	 esi, ecx

; 2301 :         return _BUF_SIZE <= _Myres;

  00003	8b 4e 14	 mov	 ecx, DWORD PTR [esi+20]
  00006	83 f9 10	 cmp	 ecx, 16			; 00000010H

; 5011 :         if (_My_data._Large_string_engaged()) {

  00009	72 27		 jb	 SHORT $LN12@basic_stri
; File C:\Program Files\Microsoft Visual Studio\2022\Community\VC\Tools\MSVC\14.34.31933\include\xmemory

; 830  :         _Deallocate<_New_alignof<_Ty>>(_Ptr, sizeof(_Ty) * _Count);

  0000b	8b 06		 mov	 eax, DWORD PTR [esi]
; File C:\Program Files\Microsoft Visual Studio\2022\Community\VC\Tools\MSVC\14.34.31933\include\xstring

; 5016 :             _Al.deallocate(_Ptr, _My_data._Myres + 1);

  0000d	41		 inc	 ecx
; File C:\Program Files\Microsoft Visual Studio\2022\Community\VC\Tools\MSVC\14.34.31933\include\xmemory

; 251  :         if (_Bytes >= _Big_allocation_threshold) { // boost the alignment of big allocations to help autovectorization

  0000e	81 f9 00 10 00
	00		 cmp	 ecx, 4096		; 00001000H
  00014	72 12		 jb	 SHORT $LN22@basic_stri

; 150  :     const uintptr_t _Ptr_container   = _Ptr_user[-1];

  00016	8b 50 fc	 mov	 edx, DWORD PTR [eax-4]
  00019	83 c1 23	 add	 ecx, 35			; 00000023H

; 151  : 
; 152  :     // If the following asserts, it likely means that we are performing
; 153  :     // an aligned delete on memory coming from an unaligned allocation.
; 154  :     _STL_ASSERT(_Ptr_user[-2] == _Big_allocation_sentinel, "invalid argument");
; 155  : 
; 156  :     // Extra paranoia on aligned allocation/deallocation; ensure _Ptr_container is
; 157  :     // in range [_Min_back_shift, _Non_user_size]
; 158  : #ifdef _DEBUG
; 159  :     constexpr uintptr_t _Min_back_shift = 2 * sizeof(void*);
; 160  : #else // ^^^ _DEBUG ^^^ // vvv !_DEBUG vvv
; 161  :     constexpr uintptr_t _Min_back_shift = sizeof(void*);
; 162  : #endif // _DEBUG
; 163  :     const uintptr_t _Back_shift = reinterpret_cast<uintptr_t>(_Ptr) - _Ptr_container;

  0001c	2b c2		 sub	 eax, edx

; 164  :     _STL_VERIFY(_Back_shift >= _Min_back_shift && _Back_shift <= _Non_user_size, "invalid argument");

  0001e	83 c0 fc	 add	 eax, -4			; fffffffcH
  00021	83 f8 1f	 cmp	 eax, 31			; 0000001fH
  00024	77 1f		 ja	 SHORT $LN19@basic_stri

; 165  :     _Ptr = reinterpret_cast<void*>(_Ptr_container);

  00026	8b c2		 mov	 eax, edx
$LN22@basic_stri:

; 255  :         ::operator delete(_Ptr, _Bytes);

  00028	51		 push	 ecx
  00029	50		 push	 eax
  0002a	e8 00 00 00 00	 call	 ??3@YAXPAXI@Z		; operator delete
  0002f	83 c4 08	 add	 esp, 8
$LN12@basic_stri:
; File C:\Program Files\Microsoft Visual Studio\2022\Community\VC\Tools\MSVC\14.34.31933\include\xstring

; 5019 :         _My_data._Mysize = 0;

  00032	c7 46 10 00 00
	00 00		 mov	 DWORD PTR [esi+16], 0

; 5020 :         _My_data._Myres  = _BUF_SIZE - 1;

  00039	c7 46 14 0f 00
	00 00		 mov	 DWORD PTR [esi+20], 15	; 0000000fH

; 5021 :         // the _Traits::assign is last so the codegen doesn't think the char write can alias this
; 5022 :         _Traits::assign(_My_data._Bx._Buf[0], _Elem());

  00040	c6 06 00	 mov	 BYTE PTR [esi], 0
  00043	5e		 pop	 esi

; 3278 :     }

  00044	c3		 ret	 0
$LN19@basic_stri:
; File C:\Program Files\Microsoft Visual Studio\2022\Community\VC\Tools\MSVC\14.34.31933\include\xmemory

; 164  :     _STL_VERIFY(_Back_shift >= _Min_back_shift && _Back_shift <= _Non_user_size, "invalid argument");

  00045	e8 00 00 00 00	 call	 __invalid_parameter_noinfo_noreturn
$LN27@basic_stri:
  0004a	cc		 int	 3
??1?$basic_string@DU?$char_traits@D@std@@V?$allocator@D@2@@std@@QAE@XZ ENDP ; std::basic_string<char,std::char_traits<char>,std::allocator<char> >::~basic_string<char,std::char_traits<char>,std::allocator<char> >
_TEXT	ENDS
; Function compile flags: /Ogtp
; File C:\Program Files\Microsoft Visual Studio\2022\Community\VC\Tools\MSVC\14.34.31933\include\xstring
; File C:\Program Files\Microsoft Visual Studio\2022\Community\VC\Tools\MSVC\14.34.31933\include\xmemory
; File C:\Program Files\Microsoft Visual Studio\2022\Community\VC\Tools\MSVC\14.34.31933\include\utility
; File C:\Program Files\Microsoft Visual Studio\2022\Community\VC\Tools\MSVC\14.34.31933\include\xstring
; File C:\Program Files\Microsoft Visual Studio\2022\Community\VC\Tools\MSVC\14.34.31933\include\xmemory
; File C:\Program Files\Microsoft Visual Studio\2022\Community\VC\Tools\MSVC\14.34.31933\include\xstring
;	COMDAT ??0?$basic_string@DU?$char_traits@D@std@@V?$allocator@D@2@@std@@QAE@ABV01@@Z
_TEXT	SEGMENT
__Result$1$ = 8						; size = 4
__Right$ = 8						; size = 4
??0?$basic_string@DU?$char_traits@D@std@@V?$allocator@D@2@@std@@QAE@ABV01@@Z PROC ; std::basic_string<char,std::char_traits<char>,std::allocator<char> >::basic_string<char,std::char_traits<char>,std::allocator<char> >, COMDAT
; _this$ = ecx

; 2626 :         : _Mypair(_One_then_variadic_args_t{}, _Alty_traits::select_on_container_copy_construction(_Right._Getal())) {

  00000	55		 push	 ebp
  00001	8b ec		 mov	 ebp, esp
  00003	53		 push	 ebx

; 2292 :         const value_type* _Result = _Bx._Buf;

  00004	8b 5d 08	 mov	 ebx, DWORD PTR __Right$[ebp]
  00007	0f 57 c0	 xorps	 xmm0, xmm0

; 2626 :         : _Mypair(_One_then_variadic_args_t{}, _Alty_traits::select_on_container_copy_construction(_Right._Getal())) {

  0000a	57		 push	 edi
  0000b	8b f9		 mov	 edi, ecx

; 2292 :         const value_type* _Result = _Bx._Buf;

  0000d	89 5d 08	 mov	 DWORD PTR __Result$1$[ebp], ebx
  00010	8b c3		 mov	 eax, ebx

; 2341 :         _CONSTEXPR20 _Bxty() noexcept : _Buf() {} // user-provided, for fancy pointers

  00012	0f 11 07	 movups	 XMMWORD PTR [edi], xmm0

; 2349 :     size_type _Mysize = 0; // current length of string

  00015	c7 47 10 00 00
	00 00		 mov	 DWORD PTR [edi+16], 0

; 2350 :     size_type _Myres  = 0; // current storage reserved for string

  0001c	c7 47 14 00 00
	00 00		 mov	 DWORD PTR [edi+20], 0

; 2301 :         return _BUF_SIZE <= _Myres;

  00023	83 7b 14 10	 cmp	 DWORD PTR [ebx+20], 16	; 00000010H

; 2293 :         if (_Large_string_engaged()) {

  00027	72 05		 jb	 SHORT $LN12@basic_stri

; 2294 :             _Result = _Unfancy(_Bx._Ptr);

  00029	8b 03		 mov	 eax, DWORD PTR [ebx]
  0002b	89 45 08	 mov	 DWORD PTR __Result$1$[ebp], eax
$LN12@basic_stri:

; 2627 :         _Construct<_Construct_strategy::_From_string>(_Right._Mypair._Myval2._Myptr(), _Right._Mypair._Myval2._Mysize);

  0002e	8b 5b 10	 mov	 ebx, DWORD PTR [ebx+16]

; 2740 :         if (_Count > max_size()) {

  00031	81 fb ff ff ff
	7f		 cmp	 ebx, 2147483647		; 7fffffffH
  00037	0f 87 9d 00 00
	00		 ja	 $LN44@basic_stri

; 2742 :         }
; 2743 : 
; 2744 :         auto& _Al       = _Getal();
; 2745 :         auto&& _Alproxy = _GET_PROXY_ALLOCATOR(_Alty, _Al);
; 2746 :         _Container_proxy_ptr<_Alty> _Proxy(_Alproxy, _My_data);
; 2747 : 
; 2748 :         if (_Count < _BUF_SIZE) {

  0003d	c7 47 14 0f 00
	00 00		 mov	 DWORD PTR [edi+20], 15	; 0000000fH
  00044	83 fb 10	 cmp	 ebx, 16			; 00000010H
  00047	73 17		 jae	 SHORT $LN18@basic_stri

; 117  :         _CSTD memmove(_First1, _First2, _Count * sizeof(_Elem));

  00049	6a 10		 push	 16			; 00000010H
  0004b	50		 push	 eax
  0004c	57		 push	 edi

; 2749 :             _My_data._Mysize = _Count;

  0004d	89 5f 10	 mov	 DWORD PTR [edi+16], ebx

; 117  :         _CSTD memmove(_First1, _First2, _Count * sizeof(_Elem));

  00050	e8 00 00 00 00	 call	 _memmove
  00055	83 c4 0c	 add	 esp, 12			; 0000000cH

; 2628 :     }

  00058	8b c7		 mov	 eax, edi
  0005a	5f		 pop	 edi
  0005b	5b		 pop	 ebx
  0005c	5d		 pop	 ebp
  0005d	c2 04 00	 ret	 4
$LN18@basic_stri:
  00060	56		 push	 esi

; 4883 :         const size_type _Masked = _Requested | _ALLOC_MASK;

  00061	8b f3		 mov	 esi, ebx
  00063	83 ce 0f	 or	 esi, 15			; 0000000fH
  00066	81 fe ff ff ff
	7f		 cmp	 esi, 2147483647		; 7fffffffH

; 4884 :         if (_Masked > _Max) { // the mask overflows, settle for max_size()

  0006c	76 17		 jbe	 SHORT $LN25@basic_stri

; 4885 :             return _Max;

  0006e	b8 00 00 00 80	 mov	 eax, -2147483648	; 80000000H
  00073	be ff ff ff 7f	 mov	 esi, 2147483647		; 7fffffffH
; File C:\Program Files\Microsoft Visual Studio\2022\Community\VC\Tools\MSVC\14.34.31933\include\xmemory

; 229  :             return _Allocate_manually_vector_aligned<_Traits>(_Bytes);

  00078	50		 push	 eax
  00079	e8 00 00 00 00	 call	 ??$_Allocate_manually_vector_aligned@U_Default_allocate_traits@std@@@std@@YAPAXI@Z ; std::_Allocate_manually_vector_aligned<std::_Default_allocate_traits>
  0007e	83 c4 04	 add	 esp, 4
  00081	8b c8		 mov	 ecx, eax
  00083	eb 34		 jmp	 SHORT $LN32@basic_stri
$LN25@basic_stri:
; File C:\Program Files\Microsoft Visual Studio\2022\Community\VC\Tools\MSVC\14.34.31933\include\utility

; 43   :     return _Left < _Right ? _Right : _Left;

  00085	b8 16 00 00 00	 mov	 eax, 22			; 00000016H
  0008a	3b f0		 cmp	 esi, eax
  0008c	0f 42 f0	 cmovb	 esi, eax
; File C:\Program Files\Microsoft Visual Studio\2022\Community\VC\Tools\MSVC\14.34.31933\include\xstring

; 2772 :         const pointer _New_ptr        = _Al.allocate(_New_capacity + 1); // throws

  0008f	8d 46 01	 lea	 eax, DWORD PTR [esi+1]
; File C:\Program Files\Microsoft Visual Studio\2022\Community\VC\Tools\MSVC\14.34.31933\include\xmemory

; 228  :         if (_Bytes >= _Big_allocation_threshold) { // boost the alignment of big allocations to help autovectorization

  00092	3d 00 10 00 00	 cmp	 eax, 4096		; 00001000H
  00097	72 0d		 jb	 SHORT $LN33@basic_stri

; 229  :             return _Allocate_manually_vector_aligned<_Traits>(_Bytes);

  00099	50		 push	 eax
  0009a	e8 00 00 00 00	 call	 ??$_Allocate_manually_vector_aligned@U_Default_allocate_traits@std@@@std@@YAPAXI@Z ; std::_Allocate_manually_vector_aligned<std::_Default_allocate_traits>
  0009f	83 c4 04	 add	 esp, 4
  000a2	8b c8		 mov	 ecx, eax
  000a4	eb 13		 jmp	 SHORT $LN32@basic_stri
$LN33@basic_stri:

; 230  :         }
; 231  :     }
; 232  : #endif // defined(_M_IX86) || defined(_M_X64)
; 233  : 
; 234  :     if (_Bytes != 0) {

  000a6	85 c0		 test	 eax, eax
  000a8	74 0d		 je	 SHORT $LN34@basic_stri

; 77   :         return ::operator new(_Bytes);

  000aa	50		 push	 eax
  000ab	e8 00 00 00 00	 call	 ??2@YAPAXI@Z		; operator new
  000b0	83 c4 04	 add	 esp, 4

; 235  :         return _Traits::_Allocate(_Bytes);

  000b3	8b c8		 mov	 ecx, eax
  000b5	eb 02		 jmp	 SHORT $LN32@basic_stri
$LN34@basic_stri:

; 236  :     }
; 237  : 
; 238  :     return nullptr;

  000b7	33 c9		 xor	 ecx, ecx
$LN32@basic_stri:
; File C:\Program Files\Microsoft Visual Studio\2022\Community\VC\Tools\MSVC\14.34.31933\include\xstring

; 2790 :             _Traits::copy(_Unfancy(_New_ptr), _Arg, _Count + 1);

  000b9	8d 43 01	 lea	 eax, DWORD PTR [ebx+1]
  000bc	89 0f		 mov	 DWORD PTR [edi], ecx

; 64   :         _CSTD memcpy(_First1, _First2, _Count * sizeof(_Elem));

  000be	50		 push	 eax
  000bf	ff 75 08	 push	 DWORD PTR __Result$1$[ebp]

; 2781 :         _My_data._Mysize = _Count;

  000c2	89 5f 10	 mov	 DWORD PTR [edi+16], ebx

; 64   :         _CSTD memcpy(_First1, _First2, _Count * sizeof(_Elem));

  000c5	51		 push	 ecx

; 2782 :         _My_data._Myres  = _New_capacity;

  000c6	89 77 14	 mov	 DWORD PTR [edi+20], esi

; 64   :         _CSTD memcpy(_First1, _First2, _Count * sizeof(_Elem));

  000c9	e8 00 00 00 00	 call	 _memcpy
  000ce	83 c4 0c	 add	 esp, 12			; 0000000cH

; 2628 :     }

  000d1	8b c7		 mov	 eax, edi

; 64   :         _CSTD memcpy(_First1, _First2, _Count * sizeof(_Elem));

  000d3	5e		 pop	 esi

; 2628 :     }

  000d4	5f		 pop	 edi
  000d5	5b		 pop	 ebx
  000d6	5d		 pop	 ebp
  000d7	c2 04 00	 ret	 4
$LN44@basic_stri:

; 2741 :             _Xlen_string(); // result too long

  000da	e8 00 00 00 00	 call	 ?_Xlen_string@std@@YAXXZ ; std::_Xlen_string
$LN42@basic_stri:
  000df	cc		 int	 3
??0?$basic_string@DU?$char_traits@D@std@@V?$allocator@D@2@@std@@QAE@ABV01@@Z ENDP ; std::basic_string<char,std::char_traits<char>,std::allocator<char> >::basic_string<char,std::char_traits<char>,std::allocator<char> >
_TEXT	ENDS
; Function compile flags: /Ogtp
; File C:\Program Files\Microsoft Visual Studio\2022\Community\VC\Tools\MSVC\14.34.31933\include\xstring
;	COMDAT ?_Xlen_string@std@@YAXXZ
_TEXT	SEGMENT
?_Xlen_string@std@@YAXXZ PROC				; std::_Xlen_string, COMDAT

; 2368 :     _Xlength_error("string too long");

  00000	68 00 00 00 00	 push	 OFFSET ??_C@_0BA@JFNIOLAK@string?5too?5long@
  00005	e8 00 00 00 00	 call	 ?_Xlength_error@std@@YAXPBD@Z ; std::_Xlength_error
$LN3@Xlen_strin:
  0000a	cc		 int	 3
?_Xlen_string@std@@YAXXZ ENDP				; std::_Xlen_string
_TEXT	ENDS
; Function compile flags: /Ogtp
; File C:\Program Files\Microsoft Visual Studio\2022\Community\VC\Tools\MSVC\14.34.31933\include\exception
;	COMDAT ?_Throw_bad_array_new_length@std@@YAXXZ
_TEXT	SEGMENT
$T1 = -12						; size = 12
?_Throw_bad_array_new_length@std@@YAXXZ PROC		; std::_Throw_bad_array_new_length, COMDAT

; 323  : [[noreturn]] inline void _Throw_bad_array_new_length() {

  00000	55		 push	 ebp
  00001	8b ec		 mov	 ebp, esp
  00003	83 ec 0c	 sub	 esp, 12			; 0000000cH

; 324  :     _THROW(bad_array_new_length{});

  00006	8d 4d f4	 lea	 ecx, DWORD PTR $T1[ebp]
  00009	e8 00 00 00 00	 call	 ??0bad_array_new_length@std@@QAE@XZ ; std::bad_array_new_length::bad_array_new_length
  0000e	68 00 00 00 00	 push	 OFFSET __TI3?AVbad_array_new_length@std@@
  00013	8d 45 f4	 lea	 eax, DWORD PTR $T1[ebp]
  00016	50		 push	 eax
  00017	e8 00 00 00 00	 call	 __CxxThrowException@8
$LN3@Throw_bad_:
  0001c	cc		 int	 3
?_Throw_bad_array_new_length@std@@YAXXZ ENDP		; std::_Throw_bad_array_new_length
_TEXT	ENDS
; Function compile flags: /Ogtp
; File C:\Program Files\Microsoft Visual Studio\2022\Community\VC\Tools\MSVC\14.34.31933\include\vcruntime_exception.h
;	COMDAT ??_Gbad_array_new_length@std@@UAEPAXI@Z
_TEXT	SEGMENT
___flags$ = 8						; size = 4
??_Gbad_array_new_length@std@@UAEPAXI@Z PROC		; std::bad_array_new_length::`scalar deleting destructor', COMDAT
; _this$ = ecx
  00000	55		 push	 ebp
  00001	8b ec		 mov	 ebp, esp

; 89   :     {

  00003	56		 push	 esi
  00004	8b f1		 mov	 esi, ecx

; 90   :         __std_exception_destroy(&_Data);

  00006	8d 46 04	 lea	 eax, DWORD PTR [esi+4]
  00009	c7 06 00 00 00
	00		 mov	 DWORD PTR [esi], OFFSET ??_7exception@std@@6B@
  0000f	50		 push	 eax
  00010	e8 00 00 00 00	 call	 ___std_exception_destroy
  00015	83 c4 04	 add	 esp, 4
  00018	f6 45 08 01	 test	 BYTE PTR ___flags$[ebp], 1
  0001c	74 0b		 je	 SHORT $LN12@scalar
  0001e	6a 0c		 push	 12			; 0000000cH
  00020	56		 push	 esi
  00021	e8 00 00 00 00	 call	 ??3@YAXPAXI@Z		; operator delete
  00026	83 c4 08	 add	 esp, 8
$LN12@scalar:
  00029	8b c6		 mov	 eax, esi
  0002b	5e		 pop	 esi
  0002c	5d		 pop	 ebp
  0002d	c2 04 00	 ret	 4
??_Gbad_array_new_length@std@@UAEPAXI@Z ENDP		; std::bad_array_new_length::`scalar deleting destructor'
_TEXT	ENDS
; Function compile flags: /Ogtp
; File C:\Program Files\Microsoft Visual Studio\2022\Community\VC\Tools\MSVC\14.34.31933\include\vcruntime_exception.h
;	COMDAT ??0bad_array_new_length@std@@QAE@ABV01@@Z
_TEXT	SEGMENT
___that$ = 8						; size = 4
??0bad_array_new_length@std@@QAE@ABV01@@Z PROC		; std::bad_array_new_length::bad_array_new_length, COMDAT
; _this$ = ecx
  00000	55		 push	 ebp
  00001	8b ec		 mov	 ebp, esp

; 72   :     {

  00003	56		 push	 esi
  00004	8b f1		 mov	 esi, ecx
  00006	0f 57 c0	 xorps	 xmm0, xmm0

; 71   :         : _Data()

  00009	8d 46 04	 lea	 eax, DWORD PTR [esi+4]

; 73   :         __std_exception_copy(&_Other._Data, &_Data);

  0000c	50		 push	 eax
  0000d	c7 06 00 00 00
	00		 mov	 DWORD PTR [esi], OFFSET ??_7exception@std@@6B@
  00013	66 0f d6 00	 movq	 QWORD PTR [eax], xmm0
  00017	8b 45 08	 mov	 eax, DWORD PTR ___that$[ebp]
  0001a	83 c0 04	 add	 eax, 4
  0001d	50		 push	 eax
  0001e	e8 00 00 00 00	 call	 ___std_exception_copy
  00023	83 c4 08	 add	 esp, 8
  00026	c7 06 00 00 00
	00		 mov	 DWORD PTR [esi], OFFSET ??_7bad_array_new_length@std@@6B@
  0002c	8b c6		 mov	 eax, esi
  0002e	5e		 pop	 esi
  0002f	5d		 pop	 ebp
  00030	c2 04 00	 ret	 4
??0bad_array_new_length@std@@QAE@ABV01@@Z ENDP		; std::bad_array_new_length::bad_array_new_length
_TEXT	ENDS
; Function compile flags: /Ogtp
; File C:\Program Files\Microsoft Visual Studio\2022\Community\VC\Tools\MSVC\14.34.31933\include\vcruntime_exception.h
;	COMDAT ??1bad_array_new_length@std@@UAE@XZ
_TEXT	SEGMENT
??1bad_array_new_length@std@@UAE@XZ PROC		; std::bad_array_new_length::~bad_array_new_length, COMDAT
; _this$ = ecx

; 90   :         __std_exception_destroy(&_Data);

  00000	8d 41 04	 lea	 eax, DWORD PTR [ecx+4]
  00003	c7 01 00 00 00
	00		 mov	 DWORD PTR [ecx], OFFSET ??_7exception@std@@6B@
  00009	50		 push	 eax
  0000a	e8 00 00 00 00	 call	 ___std_exception_destroy
  0000f	59		 pop	 ecx
  00010	c3		 ret	 0
??1bad_array_new_length@std@@UAE@XZ ENDP		; std::bad_array_new_length::~bad_array_new_length
_TEXT	ENDS
; Function compile flags: /Ogtp
; File C:\Program Files\Microsoft Visual Studio\2022\Community\VC\Tools\MSVC\14.34.31933\include\vcruntime_exception.h
;	COMDAT ??0bad_array_new_length@std@@QAE@XZ
_TEXT	SEGMENT
??0bad_array_new_length@std@@QAE@XZ PROC		; std::bad_array_new_length::bad_array_new_length, COMDAT
; _this$ = ecx

; 141  :     {

  00000	0f 57 c0	 xorps	 xmm0, xmm0

; 142  :     }

  00003	8b c1		 mov	 eax, ecx

; 65   :         : _Data()

  00005	66 0f d6 41 04	 movq	 QWORD PTR [ecx+4], xmm0

; 66   :     {
; 67   :         _Data._What = _Message;

  0000a	c7 41 04 00 00
	00 00		 mov	 DWORD PTR [ecx+4], OFFSET ??_C@_0BF@KINCDENJ@bad?5array?5new?5length@

; 141  :     {

  00011	c7 01 00 00 00
	00		 mov	 DWORD PTR [ecx], OFFSET ??_7bad_array_new_length@std@@6B@

; 142  :     }

  00017	c3		 ret	 0
??0bad_array_new_length@std@@QAE@XZ ENDP		; std::bad_array_new_length::bad_array_new_length
_TEXT	ENDS
; Function compile flags: /Ogtp
; File C:\Program Files\Microsoft Visual Studio\2022\Community\VC\Tools\MSVC\14.34.31933\include\vcruntime_exception.h
;	COMDAT ??_Gbad_alloc@std@@UAEPAXI@Z
_TEXT	SEGMENT
___flags$ = 8						; size = 4
??_Gbad_alloc@std@@UAEPAXI@Z PROC			; std::bad_alloc::`scalar deleting destructor', COMDAT
; _this$ = ecx
  00000	55		 push	 ebp
  00001	8b ec		 mov	 ebp, esp

; 89   :     {

  00003	56		 push	 esi
  00004	8b f1		 mov	 esi, ecx

; 90   :         __std_exception_destroy(&_Data);

  00006	8d 46 04	 lea	 eax, DWORD PTR [esi+4]
  00009	c7 06 00 00 00
	00		 mov	 DWORD PTR [esi], OFFSET ??_7exception@std@@6B@
  0000f	50		 push	 eax
  00010	e8 00 00 00 00	 call	 ___std_exception_destroy
  00015	83 c4 04	 add	 esp, 4
  00018	f6 45 08 01	 test	 BYTE PTR ___flags$[ebp], 1
  0001c	74 0b		 je	 SHORT $LN9@scalar
  0001e	6a 0c		 push	 12			; 0000000cH
  00020	56		 push	 esi
  00021	e8 00 00 00 00	 call	 ??3@YAXPAXI@Z		; operator delete
  00026	83 c4 08	 add	 esp, 8
$LN9@scalar:
  00029	8b c6		 mov	 eax, esi
  0002b	5e		 pop	 esi
  0002c	5d		 pop	 ebp
  0002d	c2 04 00	 ret	 4
??_Gbad_alloc@std@@UAEPAXI@Z ENDP			; std::bad_alloc::`scalar deleting destructor'
_TEXT	ENDS
; Function compile flags: /Ogtp
; File C:\Program Files\Microsoft Visual Studio\2022\Community\VC\Tools\MSVC\14.34.31933\include\vcruntime_exception.h
;	COMDAT ??0bad_alloc@std@@QAE@ABV01@@Z
_TEXT	SEGMENT
___that$ = 8						; size = 4
??0bad_alloc@std@@QAE@ABV01@@Z PROC			; std::bad_alloc::bad_alloc, COMDAT
; _this$ = ecx
  00000	55		 push	 ebp
  00001	8b ec		 mov	 ebp, esp

; 72   :     {

  00003	56		 push	 esi
  00004	8b f1		 mov	 esi, ecx
  00006	0f 57 c0	 xorps	 xmm0, xmm0

; 71   :         : _Data()

  00009	8d 46 04	 lea	 eax, DWORD PTR [esi+4]

; 73   :         __std_exception_copy(&_Other._Data, &_Data);

  0000c	50		 push	 eax
  0000d	c7 06 00 00 00
	00		 mov	 DWORD PTR [esi], OFFSET ??_7exception@std@@6B@
  00013	66 0f d6 00	 movq	 QWORD PTR [eax], xmm0
  00017	8b 45 08	 mov	 eax, DWORD PTR ___that$[ebp]
  0001a	83 c0 04	 add	 eax, 4
  0001d	50		 push	 eax
  0001e	e8 00 00 00 00	 call	 ___std_exception_copy
  00023	83 c4 08	 add	 esp, 8
  00026	c7 06 00 00 00
	00		 mov	 DWORD PTR [esi], OFFSET ??_7bad_alloc@std@@6B@
  0002c	8b c6		 mov	 eax, esi
  0002e	5e		 pop	 esi
  0002f	5d		 pop	 ebp
  00030	c2 04 00	 ret	 4
??0bad_alloc@std@@QAE@ABV01@@Z ENDP			; std::bad_alloc::bad_alloc
_TEXT	ENDS
; Function compile flags: /Ogtp
; File C:\Program Files\Microsoft Visual Studio\2022\Community\VC\Tools\MSVC\14.34.31933\include\vcruntime_exception.h
;	COMDAT ??_Gexception@std@@UAEPAXI@Z
_TEXT	SEGMENT
___flags$ = 8						; size = 4
??_Gexception@std@@UAEPAXI@Z PROC			; std::exception::`scalar deleting destructor', COMDAT
; _this$ = ecx
  00000	55		 push	 ebp
  00001	8b ec		 mov	 ebp, esp

; 89   :     {

  00003	56		 push	 esi
  00004	8b f1		 mov	 esi, ecx

; 90   :         __std_exception_destroy(&_Data);

  00006	8d 46 04	 lea	 eax, DWORD PTR [esi+4]
  00009	c7 06 00 00 00
	00		 mov	 DWORD PTR [esi], OFFSET ??_7exception@std@@6B@
  0000f	50		 push	 eax
  00010	e8 00 00 00 00	 call	 ___std_exception_destroy
  00015	83 c4 04	 add	 esp, 4
  00018	f6 45 08 01	 test	 BYTE PTR ___flags$[ebp], 1
  0001c	74 0b		 je	 SHORT $LN6@scalar
  0001e	6a 0c		 push	 12			; 0000000cH
  00020	56		 push	 esi
  00021	e8 00 00 00 00	 call	 ??3@YAXPAXI@Z		; operator delete
  00026	83 c4 08	 add	 esp, 8
$LN6@scalar:
  00029	8b c6		 mov	 eax, esi
  0002b	5e		 pop	 esi
  0002c	5d		 pop	 ebp
  0002d	c2 04 00	 ret	 4
??_Gexception@std@@UAEPAXI@Z ENDP			; std::exception::`scalar deleting destructor'
_TEXT	ENDS
; Function compile flags: /Ogtp
; File C:\Program Files\Microsoft Visual Studio\2022\Community\VC\Tools\MSVC\14.34.31933\include\vcruntime_exception.h
;	COMDAT ?what@exception@std@@UBEPBDXZ
_TEXT	SEGMENT
?what@exception@std@@UBEPBDXZ PROC			; std::exception::what, COMDAT
; _this$ = ecx

; 95   :         return _Data._What ? _Data._What : "Unknown exception";

  00000	8b 49 04	 mov	 ecx, DWORD PTR [ecx+4]
  00003	b8 00 00 00 00	 mov	 eax, OFFSET ??_C@_0BC@EOODALEL@Unknown?5exception@
  00008	85 c9		 test	 ecx, ecx
  0000a	0f 45 c1	 cmovne	 eax, ecx

; 96   :     }

  0000d	c3		 ret	 0
?what@exception@std@@UBEPBDXZ ENDP			; std::exception::what
_TEXT	ENDS
; Function compile flags: /Ogtp
; File C:\Program Files\Microsoft Visual Studio\2022\Community\VC\Tools\MSVC\14.34.31933\include\vcruntime_exception.h
;	COMDAT ??1exception@std@@UAE@XZ
_TEXT	SEGMENT
??1exception@std@@UAE@XZ PROC				; std::exception::~exception, COMDAT
; _this$ = ecx

; 90   :         __std_exception_destroy(&_Data);

  00000	8d 41 04	 lea	 eax, DWORD PTR [ecx+4]
  00003	c7 01 00 00 00
	00		 mov	 DWORD PTR [ecx], OFFSET ??_7exception@std@@6B@
  00009	50		 push	 eax
  0000a	e8 00 00 00 00	 call	 ___std_exception_destroy
  0000f	59		 pop	 ecx

; 91   :     }

  00010	c3		 ret	 0
??1exception@std@@UAE@XZ ENDP				; std::exception::~exception
_TEXT	ENDS
; Function compile flags: /Ogtp
; File C:\Program Files\Microsoft Visual Studio\2022\Community\VC\Tools\MSVC\14.34.31933\include\vcruntime_exception.h
;	COMDAT ??0exception@std@@QAE@ABV01@@Z
_TEXT	SEGMENT
__Other$ = 8						; size = 4
??0exception@std@@QAE@ABV01@@Z PROC			; std::exception::exception, COMDAT
; _this$ = ecx

; 72   :     {

  00000	55		 push	 ebp
  00001	8b ec		 mov	 ebp, esp
  00003	56		 push	 esi
  00004	8b f1		 mov	 esi, ecx
  00006	0f 57 c0	 xorps	 xmm0, xmm0
  00009	8d 46 04	 lea	 eax, DWORD PTR [esi+4]

; 73   :         __std_exception_copy(&_Other._Data, &_Data);

  0000c	50		 push	 eax
  0000d	c7 06 00 00 00
	00		 mov	 DWORD PTR [esi], OFFSET ??_7exception@std@@6B@
  00013	66 0f d6 00	 movq	 QWORD PTR [eax], xmm0
  00017	8b 45 08	 mov	 eax, DWORD PTR __Other$[ebp]
  0001a	83 c0 04	 add	 eax, 4
  0001d	50		 push	 eax
  0001e	e8 00 00 00 00	 call	 ___std_exception_copy
  00023	83 c4 08	 add	 esp, 8

; 74   :     }

  00026	8b c6		 mov	 eax, esi
  00028	5e		 pop	 esi
  00029	5d		 pop	 ebp
  0002a	c2 04 00	 ret	 4
??0exception@std@@QAE@ABV01@@Z ENDP			; std::exception::exception
_TEXT	ENDS
; Function compile flags: /Ogtp
; File C:\Program Files (x86)\Windows Kits\10\Include\10.0.22000.0\ucrt\stdio.h
;	COMDAT __snprintf
_TEXT	SEGMENT
__Buffer$ = 8						; size = 4
__BufferCount$ = 12					; size = 4
__Format$ = 16						; size = 4
__snprintf PROC						; COMDAT

; 1947 :     {

  00000	55		 push	 ebp
  00001	8b ec		 mov	 ebp, esp

; 1392 :         int const _Result = __stdio_common_vsprintf(

  00003	8d 45 14	 lea	 eax, DWORD PTR __Format$[ebp+4]
  00006	50		 push	 eax
  00007	6a 00		 push	 0
  00009	ff 75 10	 push	 DWORD PTR __Format$[ebp]
  0000c	ff 75 0c	 push	 DWORD PTR __BufferCount$[ebp]
  0000f	ff 75 08	 push	 DWORD PTR __Buffer$[ebp]
  00012	e8 00 00 00 00	 call	 ___local_stdio_printf_options
  00017	8b 08		 mov	 ecx, DWORD PTR [eax]
  00019	ff 70 04	 push	 DWORD PTR [eax+4]
  0001c	83 c9 01	 or	 ecx, 1
  0001f	51		 push	 ecx
  00020	e8 00 00 00 00	 call	 ___stdio_common_vsprintf

; 1393 :             _CRT_INTERNAL_LOCAL_PRINTF_OPTIONS | _CRT_INTERNAL_PRINTF_LEGACY_VSPRINTF_NULL_TERMINATION,
; 1394 :             _Buffer, _BufferCount, _Format, _Locale, _ArgList);
; 1395 : 
; 1396 :         return _Result < 0 ? -1 : _Result;

  00025	83 c9 ff	 or	 ecx, -1
  00028	83 c4 1c	 add	 esp, 28			; 0000001cH
  0002b	85 c0		 test	 eax, eax
  0002d	0f 48 c1	 cmovs	 eax, ecx

; 1948 :         int _Result;
; 1949 :         va_list _ArgList;
; 1950 :         __crt_va_start(_ArgList, _Format);
; 1951 :         _Result = _vsnprintf(_Buffer, _BufferCount, _Format, _ArgList);
; 1952 :         __crt_va_end(_ArgList);
; 1953 :         return _Result;
; 1954 :     }

  00030	5d		 pop	 ebp
  00031	c3		 ret	 0
__snprintf ENDP
_TEXT	ENDS
; Function compile flags: /Ogtp
; File C:\Program Files (x86)\Windows Kits\10\Include\10.0.22000.0\ucrt\stdio.h
;	COMDAT _fprintf
_TEXT	SEGMENT
__Stream$ = 8						; size = 4
__Format$ = 12						; size = 4
_fprintf PROC						; COMDAT

; 837  :     {

  00000	55		 push	 ebp
  00001	8b ec		 mov	 ebp, esp

; 645  :         return __stdio_common_vfprintf(_CRT_INTERNAL_LOCAL_PRINTF_OPTIONS, _Stream, _Format, _Locale, _ArgList);

  00003	8d 45 10	 lea	 eax, DWORD PTR __Format$[ebp+4]
  00006	50		 push	 eax
  00007	6a 00		 push	 0
  00009	ff 75 0c	 push	 DWORD PTR __Format$[ebp]
  0000c	ff 75 08	 push	 DWORD PTR __Stream$[ebp]
  0000f	e8 00 00 00 00	 call	 ___local_stdio_printf_options
  00014	ff 70 04	 push	 DWORD PTR [eax+4]
  00017	ff 30		 push	 DWORD PTR [eax]
  00019	e8 00 00 00 00	 call	 ___stdio_common_vfprintf
  0001e	83 c4 18	 add	 esp, 24			; 00000018H

; 838  :         int _Result;
; 839  :         va_list _ArgList;
; 840  :         __crt_va_start(_ArgList, _Format);
; 841  :         _Result = _vfprintf_l(_Stream, _Format, NULL, _ArgList);
; 842  :         __crt_va_end(_ArgList);
; 843  :         return _Result;
; 844  :     }

  00021	5d		 pop	 ebp
  00022	c3		 ret	 0
_fprintf ENDP
_TEXT	ENDS
; Function compile flags: /Ogtp
; File C:\Program Files (x86)\Windows Kits\10\Include\10.0.22000.0\ucrt\corecrt_stdio_config.h
;	COMDAT ___local_stdio_printf_options
_TEXT	SEGMENT
___local_stdio_printf_options PROC			; COMDAT

; 91   :         static unsigned __int64 _OptionsStorage;
; 92   :         return &_OptionsStorage;

  00000	b8 00 00 00 00	 mov	 eax, OFFSET ?_OptionsStorage@?1??__local_stdio_printf_options@@9@4_KA ; `__local_stdio_printf_options'::`2'::_OptionsStorage

; 93   :     }

  00005	c3		 ret	 0
___local_stdio_printf_options ENDP
_TEXT	ENDS
END
