; Listing generated by Microsoft (R) Optimizing Compiler Version 19.34.31942.0 

	TITLE	C:\Users\Marian\Desktop\Aeldra\ProjectA-main\Binary\Client\PRTerrainLib\Distribute_Aeldra\TextureSet.obj
	.686P
	.XMM
	include listing.inc
	.model	flat

INCLUDELIB LIBCMT
INCLUDELIB OLDNAMES

CONST	SEGMENT
?_Fake_alloc@std@@3U_Fake_allocator@1@B	ORG $+1		; std::_Fake_alloc
?piecewise_construct@std@@3Upiecewise_construct_t@1@B	ORG $+1 ; std::piecewise_construct
CONST	ENDS
PUBLIC	___local_stdio_printf_options
PUBLIC	_fprintf
PUBLIC	__snprintf
PUBLIC	??0exception@std@@QAE@ABV01@@Z			; std::exception::exception
PUBLIC	??1exception@std@@UAE@XZ			; std::exception::~exception
PUBLIC	?what@exception@std@@UBEPBDXZ			; std::exception::what
PUBLIC	??_Gexception@std@@UAEPAXI@Z			; std::exception::`scalar deleting destructor'
PUBLIC	??0bad_alloc@std@@QAE@ABV01@@Z			; std::bad_alloc::bad_alloc
PUBLIC	??_Gbad_alloc@std@@UAEPAXI@Z			; std::bad_alloc::`scalar deleting destructor'
PUBLIC	??0bad_array_new_length@std@@QAE@XZ		; std::bad_array_new_length::bad_array_new_length
PUBLIC	??1bad_array_new_length@std@@UAE@XZ		; std::bad_array_new_length::~bad_array_new_length
PUBLIC	??0bad_array_new_length@std@@QAE@ABV01@@Z	; std::bad_array_new_length::bad_array_new_length
PUBLIC	??_Gbad_array_new_length@std@@UAEPAXI@Z		; std::bad_array_new_length::`scalar deleting destructor'
PUBLIC	?_Throw_bad_array_new_length@std@@YAXXZ		; std::_Throw_bad_array_new_length
PUBLIC	?_Xlen_string@std@@YAXXZ			; std::_Xlen_string
PUBLIC	??0?$basic_string@DU?$char_traits@D@std@@V?$allocator@D@2@@std@@QAE@ABV01@@Z ; std::basic_string<char,std::char_traits<char>,std::allocator<char> >::basic_string<char,std::char_traits<char>,std::allocator<char> >
PUBLIC	??1?$basic_string@DU?$char_traits@D@std@@V?$allocator@D@2@@std@@QAE@XZ ; std::basic_string<char,std::char_traits<char>,std::allocator<char> >::~basic_string<char,std::char_traits<char>,std::allocator<char> >
PUBLIC	?assign@?$basic_string@DU?$char_traits@D@std@@V?$allocator@D@2@@std@@QAEAAV12@QBDI@Z ; std::basic_string<char,std::char_traits<char>,std::allocator<char> >::assign
PUBLIC	?_Throw_tree_length_error@std@@YAXXZ		; std::_Throw_tree_length_error
PUBLIC	??1?$vector@V?$basic_string@DU?$char_traits@D@std@@V?$allocator@D@2@@std@@V?$allocator@V?$basic_string@DU?$char_traits@D@std@@V?$allocator@D@2@@std@@@2@@std@@QAE@XZ ; std::vector<std::basic_string<char,std::char_traits<char>,std::allocator<char> >,std::allocator<std::basic_string<char,std::char_traits<char>,std::allocator<char> > > >::~vector<std::basic_string<char,std::char_traits<char>,std::allocator<char> >,std::allocator<std::basic_string<char,std::char_traits<char>,std::allocator<char> > > >
PUBLIC	??_GCGraphicImageInstance@@UAEPAXI@Z		; CGraphicImageInstance::`scalar deleting destructor'
PUBLIC	??0STerrainTexture@@QAE@XZ			; STerrainTexture::STerrainTexture
PUBLIC	??1STerrainTexture@@QAE@XZ			; STerrainTexture::~STerrainTexture
PUBLIC	??0STerrainTexture@@QAE@ABU0@@Z			; STerrainTexture::STerrainTexture
PUBLIC	??0CTextureSet@@QAE@XZ				; CTextureSet::CTextureSet
PUBLIC	??1CTextureSet@@UAE@XZ				; CTextureSet::~CTextureSet
PUBLIC	?Initialize@CTextureSet@@QAEXXZ			; CTextureSet::Initialize
PUBLIC	?Clear@CTextureSet@@QAEXXZ			; CTextureSet::Clear
PUBLIC	?Create@CTextureSet@@QAEXXZ			; CTextureSet::Create
PUBLIC	?Load@CTextureSet@@QAE_NPBDM@Z			; CTextureSet::Load
PUBLIC	?Save@CTextureSet@@QAE_NPBD@Z			; CTextureSet::Save
PUBLIC	?GetTextureCount@CTextureSet@@QAEKXZ		; CTextureSet::GetTextureCount
PUBLIC	?GetTexture@CTextureSet@@QAEAAUSTerrainTexture@@K@Z ; CTextureSet::GetTexture
PUBLIC	?RemoveTexture@CTextureSet@@QAE_NK@Z		; CTextureSet::RemoveTexture
PUBLIC	?SetTexture@CTextureSet@@QAE_NKPBDMMMM_NGGM@Z	; CTextureSet::SetTexture
PUBLIC	?Reload@CTextureSet@@QAEXM@Z			; CTextureSet::Reload
PUBLIC	?AddTexture@CTextureSet@@QAE_NPBDMMMM_NGGM@Z	; CTextureSet::AddTexture
PUBLIC	?AddEmptyTexture@CTextureSet@@IAEXXZ		; CTextureSet::AddEmptyTexture
PUBLIC	?deallocate@?$allocator@USTerrainTexture@@@std@@QAEXQAUSTerrainTexture@@I@Z ; std::allocator<STerrainTexture>::deallocate
PUBLIC	??1?$vector@USTerrainTexture@@V?$allocator@USTerrainTexture@@@std@@@std@@QAE@XZ ; std::vector<STerrainTexture,std::allocator<STerrainTexture> >::~vector<STerrainTexture,std::allocator<STerrainTexture> >
PUBLIC	?_Reallocate_exactly@?$vector@USTerrainTexture@@V?$allocator@USTerrainTexture@@@std@@@std@@AAEXI@Z ; std::vector<STerrainTexture,std::allocator<STerrainTexture> >::_Reallocate_exactly
PUBLIC	?_Change_array@?$vector@USTerrainTexture@@V?$allocator@USTerrainTexture@@@std@@@std@@AAEXQAUSTerrainTexture@@II@Z ; std::vector<STerrainTexture,std::allocator<STerrainTexture> >::_Change_array
PUBLIC	?_Xlength@?$vector@USTerrainTexture@@V?$allocator@USTerrainTexture@@@std@@@std@@CAXXZ ; std::vector<STerrainTexture,std::allocator<STerrainTexture> >::_Xlength
PUBLIC	??_GCTextureSet@@UAEPAXI@Z			; CTextureSet::`scalar deleting destructor'
PUBLIC	?_Insert_node@?$_Tree_val@U?$_Tree_simple_types@U?$pair@$$CBV?$basic_string@DU?$char_traits@D@std@@V?$allocator@D@2@@std@@V?$vector@V?$basic_string@DU?$char_traits@D@std@@V?$allocator@D@2@@std@@V?$allocator@V?$basic_string@DU?$char_traits@D@std@@V?$allocator@D@2@@std@@@2@@2@@std@@@std@@@std@@QAEPAU?$_Tree_node@U?$pair@$$CBV?$basic_string@DU?$char_traits@D@std@@V?$allocator@D@2@@std@@V?$vector@V?$basic_string@DU?$char_traits@D@std@@V?$allocator@D@2@@std@@V?$allocator@V?$basic_string@DU?$char_traits@D@std@@V?$allocator@D@2@@std@@@2@@2@@std@@PAX@2@U?$_Tree_id@PAU?$_Tree_node@U?$pair@$$CBV?$basic_string@DU?$char_traits@D@std@@V?$allocator@D@2@@std@@V?$vector@V?$basic_string@DU?$char_traits@D@std@@V?$allocator@D@2@@std@@V?$allocator@V?$basic_string@DU?$char_traits@D@std@@V?$allocator@D@2@@std@@@2@@2@@std@@PAX@std@@@2@QAU32@@Z ; std::_Tree_val<std::_Tree_simple_types<std::pair<std::basic_string<char,std::char_traits<char>,std::allocator<char> > const ,std::vector<std::basic_string<char,std::char_traits<char>,std::allocator<char> >,std::allocator<std::basic_string<char,std::char_traits<char>,std::allocator<char> > > > > > >::_Insert_node
PUBLIC	??1?$map@V?$basic_string@DU?$char_traits@D@std@@V?$allocator@D@2@@std@@V?$vector@V?$basic_string@DU?$char_traits@D@std@@V?$allocator@D@2@@std@@V?$allocator@V?$basic_string@DU?$char_traits@D@std@@V?$allocator@D@2@@std@@@2@@2@U?$less@V?$basic_string@DU?$char_traits@D@std@@V?$allocator@D@2@@std@@@2@V?$allocator@U?$pair@$$CBV?$basic_string@DU?$char_traits@D@std@@V?$allocator@D@2@@std@@V?$vector@V?$basic_string@DU?$char_traits@D@std@@V?$allocator@D@2@@std@@V?$allocator@V?$basic_string@DU?$char_traits@D@std@@V?$allocator@D@2@@std@@@2@@2@@std@@@2@@std@@QAE@XZ ; std::map<std::basic_string<char,std::char_traits<char>,std::allocator<char> >,std::vector<std::basic_string<char,std::char_traits<char>,std::allocator<char> >,std::allocator<std::basic_string<char,std::char_traits<char>,std::allocator<char> > > >,std::less<std::basic_string<char,std::char_traits<char>,std::allocator<char> > >,std::allocator<std::pair<std::basic_string<char,std::char_traits<char>,std::allocator<char> > const ,std::vector<std::basic_string<char,std::char_traits<char>,std::allocator<char> >,std::allocator<std::basic_string<char,std::char_traits<char>,std::allocator<char> > > > > > >::~map<std::basic_string<char,std::char_traits<char>,std::allocator<char> >,std::vector<std::basic_string<char,std::char_traits<char>,std::allocator<char> >,std::allocator<std::basic_string<char,std::char_traits<char>,std::allocator<char> > > >,std::less<std::basic_string<char,std::char_traits<char>,std::allocator<char> > >,std::allocator<std::pair<std::basic_string<char,std::char_traits<char>,std::allocator<char> > const ,std::vector<std::basic_string<char,std::char_traits<char>,std::allocator<char> >,std::allocator<std::basic_string<char,std::char_traits<char>,std::allocator<char> > > > > > >
PUBLIC	??$_Destroy_range@V?$allocator@USTerrainTexture@@@std@@@std@@YAXPAUSTerrainTexture@@QAU1@AAV?$allocator@USTerrainTexture@@@0@@Z ; std::_Destroy_range<std::allocator<STerrainTexture> >
PUBLIC	??$destroy@USTerrainTexture@@@?$_Default_allocator_traits@V?$allocator@USTerrainTexture@@@std@@@std@@SAXAAV?$allocator@USTerrainTexture@@@1@QAUSTerrainTexture@@@Z ; std::_Default_allocator_traits<std::allocator<STerrainTexture> >::destroy<STerrainTexture>
PUBLIC	??$_Traits_compare@U?$char_traits@D@std@@@std@@YAHQBDI0I@Z ; std::_Traits_compare<std::char_traits<char> >
PUBLIC	??$_Construct@$00PBD@?$basic_string@DU?$char_traits@D@std@@V?$allocator@D@2@@std@@AAEXQBDI@Z ; std::basic_string<char,std::char_traits<char>,std::allocator<char> >::_Construct<1,char const *>
PUBLIC	??$_Uninitialized_copy@PAUSTerrainTexture@@PAU1@V?$allocator@USTerrainTexture@@@std@@@std@@YAPAUSTerrainTexture@@PAU1@00AAV?$allocator@USTerrainTexture@@@0@@Z ; std::_Uninitialized_copy<STerrainTexture *,STerrainTexture *,std::allocator<STerrainTexture> >
PUBLIC	??$_Find_lower_bound@V?$basic_string@DU?$char_traits@D@std@@V?$allocator@D@2@@std@@@?$_Tree@V?$_Tmap_traits@V?$basic_string@DU?$char_traits@D@std@@V?$allocator@D@2@@std@@V?$vector@V?$basic_string@DU?$char_traits@D@std@@V?$allocator@D@2@@std@@V?$allocator@V?$basic_string@DU?$char_traits@D@std@@V?$allocator@D@2@@std@@@2@@2@U?$less@V?$basic_string@DU?$char_traits@D@std@@V?$allocator@D@2@@std@@@2@V?$allocator@U?$pair@$$CBV?$basic_string@DU?$char_traits@D@std@@V?$allocator@D@2@@std@@V?$vector@V?$basic_string@DU?$char_traits@D@std@@V?$allocator@D@2@@std@@V?$allocator@V?$basic_string@DU?$char_traits@D@std@@V?$allocator@D@2@@std@@@2@@2@@std@@@2@$0A@@std@@@std@@IBE?AU?$_Tree_find_result@PAU?$_Tree_node@U?$pair@$$CBV?$basic_string@DU?$char_traits@D@std@@V?$allocator@D@2@@std@@V?$vector@V?$basic_string@DU?$char_traits@D@std@@V?$allocator@D@2@@std@@V?$allocator@V?$basic_string@DU?$char_traits@D@std@@V?$allocator@D@2@@std@@@2@@2@@std@@PAX@std@@@1@ABV?$basic_string@DU?$char_traits@D@std@@V?$allocator@D@2@@1@@Z ; std::_Tree<std::_Tmap_traits<std::basic_string<char,std::char_traits<char>,std::allocator<char> >,std::vector<std::basic_string<char,std::char_traits<char>,std::allocator<char> >,std::allocator<std::basic_string<char,std::char_traits<char>,std::allocator<char> > > >,std::less<std::basic_string<char,std::char_traits<char>,std::allocator<char> > >,std::allocator<std::pair<std::basic_string<char,std::char_traits<char>,std::allocator<char> > const ,std::vector<std::basic_string<char,std::char_traits<char>,std::allocator<char> >,std::allocator<std::basic_string<char,std::char_traits<char>,std::allocator<char> > > > > >,0> >::_Find_lower_bound<std::basic_string<char,std::char_traits<char>,std::allocator<char> > >
PUBLIC	??1?$_Alloc_construct_ptr@V?$allocator@U?$_Tree_node@U?$pair@$$CBV?$basic_string@DU?$char_traits@D@std@@V?$allocator@D@2@@std@@V?$vector@V?$basic_string@DU?$char_traits@D@std@@V?$allocator@D@2@@std@@V?$allocator@V?$basic_string@DU?$char_traits@D@std@@V?$allocator@D@2@@std@@@2@@2@@std@@PAX@std@@@std@@@std@@QAE@XZ ; std::_Alloc_construct_ptr<std::allocator<std::_Tree_node<std::pair<std::basic_string<char,std::char_traits<char>,std::allocator<char> > const ,std::vector<std::basic_string<char,std::char_traits<char>,std::allocator<char> >,std::allocator<std::basic_string<char,std::char_traits<char>,std::allocator<char> > > > >,void *> > >::~_Alloc_construct_ptr<std::allocator<std::_Tree_node<std::pair<std::basic_string<char,std::char_traits<char>,std::allocator<char> > const ,std::vector<std::basic_string<char,std::char_traits<char>,std::allocator<char> >,std::allocator<std::basic_string<char,std::char_traits<char>,std::allocator<char> > > > >,void *> > >
PUBLIC	??$_Erase_tree@V?$allocator@U?$_Tree_node@U?$pair@$$CBV?$basic_string@DU?$char_traits@D@std@@V?$allocator@D@2@@std@@V?$vector@V?$basic_string@DU?$char_traits@D@std@@V?$allocator@D@2@@std@@V?$allocator@V?$basic_string@DU?$char_traits@D@std@@V?$allocator@D@2@@std@@@2@@2@@std@@PAX@std@@@std@@@?$_Tree_val@U?$_Tree_simple_types@U?$pair@$$CBV?$basic_string@DU?$char_traits@D@std@@V?$allocator@D@2@@std@@V?$vector@V?$basic_string@DU?$char_traits@D@std@@V?$allocator@D@2@@std@@V?$allocator@V?$basic_string@DU?$char_traits@D@std@@V?$allocator@D@2@@std@@@2@@2@@std@@@std@@@std@@QAEXAAV?$allocator@U?$_Tree_node@U?$pair@$$CBV?$basic_string@DU?$char_traits@D@std@@V?$allocator@D@2@@std@@V?$vector@V?$basic_string@DU?$char_traits@D@std@@V?$allocator@D@2@@std@@V?$allocator@V?$basic_string@DU?$char_traits@D@std@@V?$allocator@D@2@@std@@@2@@2@@std@@PAX@std@@@1@PAU?$_Tree_node@U?$pair@$$CBV?$basic_string@DU?$char_traits@D@std@@V?$allocator@D@2@@std@@V?$vector@V?$basic_string@DU?$char_traits@D@std@@V?$allocator@D@2@@std@@V?$allocator@V?$basic_string@DU?$char_traits@D@std@@V?$allocator@D@2@@std@@@2@@2@@std@@PAX@1@@Z ; std::_Tree_val<std::_Tree_simple_types<std::pair<std::basic_string<char,std::char_traits<char>,std::allocator<char> > const ,std::vector<std::basic_string<char,std::char_traits<char>,std::allocator<char> >,std::allocator<std::basic_string<char,std::char_traits<char>,std::allocator<char> > > > > > >::_Erase_tree<std::allocator<std::_Tree_node<std::pair<std::basic_string<char,std::char_traits<char>,std::allocator<char> > const ,std::vector<std::basic_string<char,std::char_traits<char>,std::allocator<char> >,std::allocator<std::basic_string<char,std::char_traits<char>,std::allocator<char> > > > >,void *> > >
PUBLIC	??$_Resize_reallocate@U_Value_init_tag@std@@@?$vector@USTerrainTexture@@V?$allocator@USTerrainTexture@@@std@@@std@@AAEXIABU_Value_init_tag@1@@Z ; std::vector<STerrainTexture,std::allocator<STerrainTexture> >::_Resize_reallocate<std::_Value_init_tag>
PUBLIC	??$_Uninitialized_value_construct_n@V?$allocator@USTerrainTexture@@@std@@@std@@YAPAUSTerrainTexture@@PAU1@IAAV?$allocator@USTerrainTexture@@@0@@Z ; std::_Uninitialized_value_construct_n<std::allocator<STerrainTexture> >
PUBLIC	??$_Emplace_reallocate@ABUSTerrainTexture@@@?$vector@USTerrainTexture@@V?$allocator@USTerrainTexture@@@std@@@std@@AAEPAUSTerrainTexture@@QAU2@ABU2@@Z ; std::vector<STerrainTexture,std::allocator<STerrainTexture> >::_Emplace_reallocate<STerrainTexture const &>
PUBLIC	??1?$_Uninitialized_backout_al@V?$allocator@USTerrainTexture@@@std@@@std@@QAE@XZ ; std::_Uninitialized_backout_al<std::allocator<STerrainTexture> >::~_Uninitialized_backout_al<std::allocator<STerrainTexture> >
PUBLIC	??$_Allocate_manually_vector_aligned@U_Default_allocate_traits@std@@@std@@YAPAXI@Z ; std::_Allocate_manually_vector_aligned<std::_Default_allocate_traits>
PUBLIC	??$destroy@U?$pair@$$CBV?$basic_string@DU?$char_traits@D@std@@V?$allocator@D@2@@std@@V?$vector@V?$basic_string@DU?$char_traits@D@std@@V?$allocator@D@2@@std@@V?$allocator@V?$basic_string@DU?$char_traits@D@std@@V?$allocator@D@2@@std@@@2@@2@@std@@@?$_Default_allocator_traits@V?$allocator@U?$_Tree_node@U?$pair@$$CBV?$basic_string@DU?$char_traits@D@std@@V?$allocator@D@2@@std@@V?$vector@V?$basic_string@DU?$char_traits@D@std@@V?$allocator@D@2@@std@@V?$allocator@V?$basic_string@DU?$char_traits@D@std@@V?$allocator@D@2@@std@@@2@@2@@std@@PAX@std@@@std@@@std@@SAXAAV?$allocator@U?$_Tree_node@U?$pair@$$CBV?$basic_string@DU?$char_traits@D@std@@V?$allocator@D@2@@std@@V?$vector@V?$basic_string@DU?$char_traits@D@std@@V?$allocator@D@2@@std@@V?$allocator@V?$basic_string@DU?$char_traits@D@std@@V?$allocator@D@2@@std@@@2@@2@@std@@PAX@std@@@1@QAU?$pair@$$CBV?$basic_string@DU?$char_traits@D@std@@V?$allocator@D@2@@std@@V?$vector@V?$basic_string@DU?$char_traits@D@std@@V?$allocator@D@2@@std@@V?$allocator@V?$basic_string@DU?$char_traits@D@std@@V?$allocator@D@2@@std@@@2@@2@@1@@Z ; std::_Default_allocator_traits<std::allocator<std::_Tree_node<std::pair<std::basic_string<char,std::char_traits<char>,std::allocator<char> > const ,std::vector<std::basic_string<char,std::char_traits<char>,std::allocator<char> >,std::allocator<std::basic_string<char,std::char_traits<char>,std::allocator<char> > > > >,void *> > >::destroy<std::pair<std::basic_string<char,std::char_traits<char>,std::allocator<char> > const ,std::vector<std::basic_string<char,std::char_traits<char>,std::allocator<char> >,std::allocator<std::basic_string<char,std::char_traits<char>,std::allocator<char> > > > > >
PUBLIC	??$?MDU?$char_traits@D@std@@V?$allocator@D@1@@std@@YA_NABV?$basic_string@DU?$char_traits@D@std@@V?$allocator@D@2@@0@0@Z ; std::operator<<char,std::char_traits<char>,std::allocator<char> >
PUBLIC	??$_Uninitialized_move@PAUSTerrainTexture@@V?$allocator@USTerrainTexture@@@std@@@std@@YAPAUSTerrainTexture@@QAU1@0PAU1@AAV?$allocator@USTerrainTexture@@@0@@Z ; std::_Uninitialized_move<STerrainTexture *,std::allocator<STerrainTexture> >
PUBLIC	?_OptionsStorage@?1??__local_stdio_printf_options@@9@4_KA ; `__local_stdio_printf_options'::`2'::_OptionsStorage
PUBLIC	??_7exception@std@@6B@				; std::exception::`vftable'
PUBLIC	??_C@_0BC@EOODALEL@Unknown?5exception@		; `string'
PUBLIC	??_7bad_alloc@std@@6B@				; std::bad_alloc::`vftable'
PUBLIC	??_7bad_array_new_length@std@@6B@		; std::bad_array_new_length::`vftable'
PUBLIC	??_C@_0BF@KINCDENJ@bad?5array?5new?5length@	; `string'
PUBLIC	__TI3?AVbad_array_new_length@std@@
PUBLIC	__CTA3?AVbad_array_new_length@std@@
PUBLIC	??_R0?AVbad_array_new_length@std@@@8		; std::bad_array_new_length `RTTI Type Descriptor'
PUBLIC	__CT??_R0?AVbad_array_new_length@std@@@8??0bad_array_new_length@std@@QAE@ABV01@@Z12
PUBLIC	??_R0?AVbad_alloc@std@@@8			; std::bad_alloc `RTTI Type Descriptor'
PUBLIC	__CT??_R0?AVbad_alloc@std@@@8??0bad_alloc@std@@QAE@ABV01@@Z12
PUBLIC	??_R0?AVexception@std@@@8			; std::exception `RTTI Type Descriptor'
PUBLIC	__CT??_R0?AVexception@std@@@8??0exception@std@@QAE@ABV01@@Z12
PUBLIC	??_C@_0BA@JFNIOLAK@string?5too?5long@		; `string'
PUBLIC	??_C@_0BB@GCADKGJO@map?1set?5too?5long@		; `string'
PUBLIC	?ms_singleton@?$CSingleton@VCResourceManager@@@@0PAVCResourceManager@@A ; CSingleton<CResourceManager>::ms_singleton
PUBLIC	??_7CGraphicImageInstance@@6B@			; CGraphicImageInstance::`vftable'
PUBLIC	??_7CTextureSet@@6B@				; CTextureSet::`vftable'
PUBLIC	??_C@_0BP@PGALBFBK@d?3?1ymir?5work?1special?1error?4tga@ ; `string'
PUBLIC	??_C@_0CC@NFEEIIKK@TextureSet?3?3Load?5?3?5cannot?5load?5@ ; `string'
PUBLIC	??_C@_0L@FLIBEPMB@textureset@			; `string'
PUBLIC	??_C@_0DL@HIELGKBC@TextureSet?3?3Load?5?3?5syntax?5error@ ; `string'
PUBLIC	??_C@_0N@MMECMGAI@texturecount@			; `string'
PUBLIC	??_C@_0DN@FCLAEMJC@TextureSet?3?3Load?5?3?5syntax?5error@ ; `string'
PUBLIC	??_C@_0M@NDPMIDHE@texture?$CF03d@		; `string'
PUBLIC	??_C@_0DF@CFOIFDDM@CTextureSet?3?3Load?5?3?5SetTexture?5@ ; `string'
PUBLIC	??_C@_0FF@IFFABLMH@CTextureSet?3?3SetTexture?5?3?5Index@ ; `string'
PUBLIC	??_C@_0DF@JOIEGDLH@CTerrainImpl?3?3GenerateTexture?5?3@ ; `string'
PUBLIC	??_C@_0BH@JDODIAKK@?C?V?$LE?k?5?E?X?$LN?$LK?C?$LD?5?$LA?$LD?$LM?v?5255?$LA?$LD@ ; `string'
PUBLIC	??_C@_0CF@MOODBFAK@?E?X?$LN?$LK?C?$LD?$LI?$KG?5?$LE?u?5?$MA?L?$LL?s?5?C?$NP?$LA?$KB?G?R?5?$LM?v?5?$LO?x?$LN?$MA@ ; `string'
PUBLIC	??_C@_04GOFBAOHB@?A?$NP?$LK?$LJ@		; `string'
PUBLIC	??_C@_0CG@FLKLAMDA@?$LF?$LP?$MA?O?G?Q?5?$MA?L?$LI?$KH?$MA?G?5?E?X?$LN?$LK?C?$LD?$LA?$KB?5?$MA?L?$LJ?L?5?$MA?V?$LN@ ; `string'
PUBLIC	??_C@_0DL@DKIJJDLL@CTerrainImpl?3?3GenerateTexture?5?3@ ; `string'
PUBLIC	??_C@_01NOFIACDB@w@				; `string'
PUBLIC	??_C@_0M@MPCHGPBP@TextureSet?6@			; `string'
PUBLIC	??_C@_01EEMJAFIK@?6@				; `string'
PUBLIC	??_C@_0BC@GGJBGKJP@TextureCount?5?$CFld?6@	; `string'
PUBLIC	??_C@_0BD@BJELLKNB@Start?5Texture?$CF03d?6@	; `string'
PUBLIC	??_C@_09BMPLDMAP@?5?5?5?5?$CC?$CFs?$CC?6@	; `string'
PUBLIC	??_C@_07ELCCFBHK@?5?5?5?5?$CFf?6@		; `string'
PUBLIC	??_C@_07EIKGIFBE@?5?5?5?5?$CFd?6@		; `string'
PUBLIC	??_C@_08PFAGAKKH@?5?5?5?5?$CFhu?6@		; `string'
PUBLIC	??_C@_0BB@GNLMPHOK@End?5Texture?$CF03d?6@	; `string'
PUBLIC	??_C@_0BA@FOIKENOD@vector?5too?5long@		; `string'
PUBLIC	??_R4exception@std@@6B@				; std::exception::`RTTI Complete Object Locator'
PUBLIC	??_R3exception@std@@8				; std::exception::`RTTI Class Hierarchy Descriptor'
PUBLIC	??_R2exception@std@@8				; std::exception::`RTTI Base Class Array'
PUBLIC	??_R1A@?0A@EA@exception@std@@8			; std::exception::`RTTI Base Class Descriptor at (0,-1,0,64)'
PUBLIC	??_R4bad_alloc@std@@6B@				; std::bad_alloc::`RTTI Complete Object Locator'
PUBLIC	??_R3bad_alloc@std@@8				; std::bad_alloc::`RTTI Class Hierarchy Descriptor'
PUBLIC	??_R2bad_alloc@std@@8				; std::bad_alloc::`RTTI Base Class Array'
PUBLIC	??_R1A@?0A@EA@bad_alloc@std@@8			; std::bad_alloc::`RTTI Base Class Descriptor at (0,-1,0,64)'
PUBLIC	??_R4bad_array_new_length@std@@6B@		; std::bad_array_new_length::`RTTI Complete Object Locator'
PUBLIC	??_R3bad_array_new_length@std@@8		; std::bad_array_new_length::`RTTI Class Hierarchy Descriptor'
PUBLIC	??_R2bad_array_new_length@std@@8		; std::bad_array_new_length::`RTTI Base Class Array'
PUBLIC	??_R1A@?0A@EA@bad_array_new_length@std@@8	; std::bad_array_new_length::`RTTI Base Class Descriptor at (0,-1,0,64)'
PUBLIC	??_R4CGraphicImageInstance@@6B@			; CGraphicImageInstance::`RTTI Complete Object Locator'
PUBLIC	??_R0?AVCGraphicImageInstance@@@8		; CGraphicImageInstance `RTTI Type Descriptor'
PUBLIC	??_R3CGraphicImageInstance@@8			; CGraphicImageInstance::`RTTI Class Hierarchy Descriptor'
PUBLIC	??_R2CGraphicImageInstance@@8			; CGraphicImageInstance::`RTTI Base Class Array'
PUBLIC	??_R1A@?0A@EA@CGraphicImageInstance@@8		; CGraphicImageInstance::`RTTI Base Class Descriptor at (0,-1,0,64)'
PUBLIC	??_R4CTextureSet@@6B@				; CTextureSet::`RTTI Complete Object Locator'
PUBLIC	??_R0?AVCTextureSet@@@8				; CTextureSet `RTTI Type Descriptor'
PUBLIC	??_R3CTextureSet@@8				; CTextureSet::`RTTI Class Hierarchy Descriptor'
PUBLIC	??_R2CTextureSet@@8				; CTextureSet::`RTTI Base Class Array'
PUBLIC	??_R1A@?0A@EA@CTextureSet@@8			; CTextureSet::`RTTI Base Class Descriptor at (0,-1,0,64)'
PUBLIC	__xmm@80000000800000008000000080000000
EXTRN	??2@YAPAXI@Z:PROC				; operator new
EXTRN	??3@YAXPAXI@Z:PROC				; operator delete
EXTRN	__invalid_parameter_noinfo_noreturn:PROC
EXTRN	_atof:PROC
EXTRN	_atol:PROC
EXTRN	__atoi64:PROC
EXTRN	_D3DXMatrixScaling@16:PROC
EXTRN	_fclose:PROC
EXTRN	_fopen:PROC
EXTRN	___stdio_common_vfprintf:PROC
EXTRN	___stdio_common_vsprintf:PROC
EXTRN	___std_exception_copy:PROC
EXTRN	___std_exception_destroy:PROC
EXTRN	??_Eexception@std@@UAEPAXI@Z:PROC		; std::exception::`vector deleting destructor'
EXTRN	??_Ebad_alloc@std@@UAEPAXI@Z:PROC		; std::bad_alloc::`vector deleting destructor'
EXTRN	??_Ebad_array_new_length@std@@UAEPAXI@Z:PROC	; std::bad_array_new_length::`vector deleting destructor'
EXTRN	?_Xlength_error@std@@YAXPBD@Z:PROC		; std::_Xlength_error
EXTRN	?TraceError@@YAXPBDZZ:PROC			; TraceError
EXTRN	?LogBox@@YAXPBD0PAUHWND__@@@Z:PROC		; LogBox
EXTRN	?LoadMultipleTextData@@YA_NPBDAAV?$map@V?$basic_string@DU?$char_traits@D@std@@V?$allocator@D@2@@std@@V?$vector@V?$basic_string@DU?$char_traits@D@std@@V?$allocator@D@2@@std@@V?$allocator@V?$basic_string@DU?$char_traits@D@std@@V?$allocator@D@2@@std@@@2@@2@U?$less@V?$basic_string@DU?$char_traits@D@std@@V?$allocator@D@2@@std@@@2@V?$allocator@U?$pair@$$CBV?$basic_string@DU?$char_traits@D@std@@V?$allocator@D@2@@std@@V?$vector@V?$basic_string@DU?$char_traits@D@std@@V?$allocator@D@2@@std@@V?$allocator@V?$basic_string@DU?$char_traits@D@std@@V?$allocator@D@2@@std@@@2@@2@@std@@@2@@std@@@Z:PROC ; LoadMultipleTextData
EXTRN	?AddReference@CReferenceObject@@QAEXXZ:PROC	; CReferenceObject::AddReference
EXTRN	?Release@CReferenceObject@@QAEXXZ:PROC		; CReferenceObject::Release
EXTRN	?IsType@CResource@@QAE_NK@Z:PROC		; CResource::IsType
EXTRN	?GetResourcePointer@CResourceManager@@QAEPAVCResource@@PBD@Z:PROC ; CResourceManager::GetResourcePointer
EXTRN	?GetD3DTexture@CGraphicTexture@@QBEPAUIDirect3DTexture8@@XZ:PROC ; CGraphicTexture::GetD3DTexture
EXTRN	?Type@CGraphicImage@@SAKXZ:PROC			; CGraphicImage::Type
EXTRN	??0CGraphicImageInstance@@QAE@XZ:PROC		; CGraphicImageInstance::CGraphicImageInstance
EXTRN	??1CGraphicImageInstance@@UAE@XZ:PROC		; CGraphicImageInstance::~CGraphicImageInstance
EXTRN	?Destroy@CGraphicImageInstance@@QAEXXZ:PROC	; CGraphicImageInstance::Destroy
EXTRN	?SetImagePointer@CGraphicImageInstance@@QAEXPAVCGraphicImage@@@Z:PROC ; CGraphicImageInstance::SetImagePointer
EXTRN	?ReloadImagePointer@CGraphicImageInstance@@QAEXPAVCGraphicImage@@@Z:PROC ; CGraphicImageInstance::ReloadImagePointer
EXTRN	?GetTexturePointer@CGraphicImageInstance@@QAEPAVCGraphicTexture@@XZ:PROC ; CGraphicImageInstance::GetTexturePointer
EXTRN	?OnRender@CGraphicImageInstance@@MAEXXZ:PROC	; CGraphicImageInstance::OnRender
EXTRN	?OnSetImagePointer@CGraphicImageInstance@@MAEXXZ:PROC ; CGraphicImageInstance::OnSetImagePointer
EXTRN	?OnIsType@CGraphicImageInstance@@MAEHK@Z:PROC	; CGraphicImageInstance::OnIsType
EXTRN	??_ECGraphicImageInstance@@UAEPAXI@Z:PROC	; CGraphicImageInstance::`vector deleting destructor'
EXTRN	??_ECTextureSet@@UAEPAXI@Z:PROC			; CTextureSet::`vector deleting destructor'
EXTRN	@__security_check_cookie@4:PROC
EXTRN	__CxxThrowException@8:PROC
EXTRN	___CxxFrameHandler3:PROC
EXTRN	_memcpy:PROC
EXTRN	_memmove:PROC
EXTRN	??_7type_info@@6B@:QWORD			; type_info::`vftable'
EXTRN	___security_cookie:DWORD
EXTRN	__fltused:DWORD
;	COMDAT ?_OptionsStorage@?1??__local_stdio_printf_options@@9@4_KA
_BSS	SEGMENT
?_OptionsStorage@?1??__local_stdio_printf_options@@9@4_KA DQ 01H DUP (?) ; `__local_stdio_printf_options'::`2'::_OptionsStorage
_BSS	ENDS
;	COMDAT ?ms_singleton@?$CSingleton@VCResourceManager@@@@0PAVCResourceManager@@A
_BSS	SEGMENT
?ms_singleton@?$CSingleton@VCResourceManager@@@@0PAVCResourceManager@@A DD 01H DUP (?) ; CSingleton<CResourceManager>::ms_singleton
_BSS	ENDS
;	COMDAT __xmm@80000000800000008000000080000000
CONST	SEGMENT
__xmm@80000000800000008000000080000000 DB 00H, 00H, 00H, 080H, 00H, 00H, 00H
	DB	080H, 00H, 00H, 00H, 080H, 00H, 00H, 00H, 080H
CONST	ENDS
;	COMDAT ??_R1A@?0A@EA@CTextureSet@@8
rdata$r	SEGMENT
??_R1A@?0A@EA@CTextureSet@@8 DD FLAT:??_R0?AVCTextureSet@@@8 ; CTextureSet::`RTTI Base Class Descriptor at (0,-1,0,64)'
	DD	00H
	DD	00H
	DD	0ffffffffH
	DD	00H
	DD	040H
	DD	FLAT:??_R3CTextureSet@@8
rdata$r	ENDS
;	COMDAT ??_R2CTextureSet@@8
rdata$r	SEGMENT
??_R2CTextureSet@@8 DD FLAT:??_R1A@?0A@EA@CTextureSet@@8 ; CTextureSet::`RTTI Base Class Array'
rdata$r	ENDS
;	COMDAT ??_R3CTextureSet@@8
rdata$r	SEGMENT
??_R3CTextureSet@@8 DD 00H				; CTextureSet::`RTTI Class Hierarchy Descriptor'
	DD	00H
	DD	01H
	DD	FLAT:??_R2CTextureSet@@8
rdata$r	ENDS
;	COMDAT ??_R0?AVCTextureSet@@@8
data$rs	SEGMENT
??_R0?AVCTextureSet@@@8 DD FLAT:??_7type_info@@6B@	; CTextureSet `RTTI Type Descriptor'
	DD	00H
	DB	'.?AVCTextureSet@@', 00H
data$rs	ENDS
;	COMDAT ??_R4CTextureSet@@6B@
rdata$r	SEGMENT
??_R4CTextureSet@@6B@ DD 00H				; CTextureSet::`RTTI Complete Object Locator'
	DD	00H
	DD	00H
	DD	FLAT:??_R0?AVCTextureSet@@@8
	DD	FLAT:??_R3CTextureSet@@8
rdata$r	ENDS
;	COMDAT ??_R1A@?0A@EA@CGraphicImageInstance@@8
rdata$r	SEGMENT
??_R1A@?0A@EA@CGraphicImageInstance@@8 DD FLAT:??_R0?AVCGraphicImageInstance@@@8 ; CGraphicImageInstance::`RTTI Base Class Descriptor at (0,-1,0,64)'
	DD	00H
	DD	00H
	DD	0ffffffffH
	DD	00H
	DD	040H
	DD	FLAT:??_R3CGraphicImageInstance@@8
rdata$r	ENDS
;	COMDAT ??_R2CGraphicImageInstance@@8
rdata$r	SEGMENT
??_R2CGraphicImageInstance@@8 DD FLAT:??_R1A@?0A@EA@CGraphicImageInstance@@8 ; CGraphicImageInstance::`RTTI Base Class Array'
rdata$r	ENDS
;	COMDAT ??_R3CGraphicImageInstance@@8
rdata$r	SEGMENT
??_R3CGraphicImageInstance@@8 DD 00H			; CGraphicImageInstance::`RTTI Class Hierarchy Descriptor'
	DD	00H
	DD	01H
	DD	FLAT:??_R2CGraphicImageInstance@@8
rdata$r	ENDS
;	COMDAT ??_R0?AVCGraphicImageInstance@@@8
data$rs	SEGMENT
??_R0?AVCGraphicImageInstance@@@8 DD FLAT:??_7type_info@@6B@ ; CGraphicImageInstance `RTTI Type Descriptor'
	DD	00H
	DB	'.?AVCGraphicImageInstance@@', 00H
data$rs	ENDS
;	COMDAT ??_R4CGraphicImageInstance@@6B@
rdata$r	SEGMENT
??_R4CGraphicImageInstance@@6B@ DD 00H			; CGraphicImageInstance::`RTTI Complete Object Locator'
	DD	00H
	DD	00H
	DD	FLAT:??_R0?AVCGraphicImageInstance@@@8
	DD	FLAT:??_R3CGraphicImageInstance@@8
rdata$r	ENDS
;	COMDAT ??_R1A@?0A@EA@bad_array_new_length@std@@8
rdata$r	SEGMENT
??_R1A@?0A@EA@bad_array_new_length@std@@8 DD FLAT:??_R0?AVbad_array_new_length@std@@@8 ; std::bad_array_new_length::`RTTI Base Class Descriptor at (0,-1,0,64)'
	DD	02H
	DD	00H
	DD	0ffffffffH
	DD	00H
	DD	040H
	DD	FLAT:??_R3bad_array_new_length@std@@8
rdata$r	ENDS
;	COMDAT ??_R2bad_array_new_length@std@@8
rdata$r	SEGMENT
??_R2bad_array_new_length@std@@8 DD FLAT:??_R1A@?0A@EA@bad_array_new_length@std@@8 ; std::bad_array_new_length::`RTTI Base Class Array'
	DD	FLAT:??_R1A@?0A@EA@bad_alloc@std@@8
	DD	FLAT:??_R1A@?0A@EA@exception@std@@8
rdata$r	ENDS
;	COMDAT ??_R3bad_array_new_length@std@@8
rdata$r	SEGMENT
??_R3bad_array_new_length@std@@8 DD 00H			; std::bad_array_new_length::`RTTI Class Hierarchy Descriptor'
	DD	00H
	DD	03H
	DD	FLAT:??_R2bad_array_new_length@std@@8
rdata$r	ENDS
;	COMDAT ??_R4bad_array_new_length@std@@6B@
rdata$r	SEGMENT
??_R4bad_array_new_length@std@@6B@ DD 00H		; std::bad_array_new_length::`RTTI Complete Object Locator'
	DD	00H
	DD	00H
	DD	FLAT:??_R0?AVbad_array_new_length@std@@@8
	DD	FLAT:??_R3bad_array_new_length@std@@8
rdata$r	ENDS
;	COMDAT ??_R1A@?0A@EA@bad_alloc@std@@8
rdata$r	SEGMENT
??_R1A@?0A@EA@bad_alloc@std@@8 DD FLAT:??_R0?AVbad_alloc@std@@@8 ; std::bad_alloc::`RTTI Base Class Descriptor at (0,-1,0,64)'
	DD	01H
	DD	00H
	DD	0ffffffffH
	DD	00H
	DD	040H
	DD	FLAT:??_R3bad_alloc@std@@8
rdata$r	ENDS
;	COMDAT ??_R2bad_alloc@std@@8
rdata$r	SEGMENT
??_R2bad_alloc@std@@8 DD FLAT:??_R1A@?0A@EA@bad_alloc@std@@8 ; std::bad_alloc::`RTTI Base Class Array'
	DD	FLAT:??_R1A@?0A@EA@exception@std@@8
rdata$r	ENDS
;	COMDAT ??_R3bad_alloc@std@@8
rdata$r	SEGMENT
??_R3bad_alloc@std@@8 DD 00H				; std::bad_alloc::`RTTI Class Hierarchy Descriptor'
	DD	00H
	DD	02H
	DD	FLAT:??_R2bad_alloc@std@@8
rdata$r	ENDS
;	COMDAT ??_R4bad_alloc@std@@6B@
rdata$r	SEGMENT
??_R4bad_alloc@std@@6B@ DD 00H				; std::bad_alloc::`RTTI Complete Object Locator'
	DD	00H
	DD	00H
	DD	FLAT:??_R0?AVbad_alloc@std@@@8
	DD	FLAT:??_R3bad_alloc@std@@8
rdata$r	ENDS
;	COMDAT ??_R1A@?0A@EA@exception@std@@8
rdata$r	SEGMENT
??_R1A@?0A@EA@exception@std@@8 DD FLAT:??_R0?AVexception@std@@@8 ; std::exception::`RTTI Base Class Descriptor at (0,-1,0,64)'
	DD	00H
	DD	00H
	DD	0ffffffffH
	DD	00H
	DD	040H
	DD	FLAT:??_R3exception@std@@8
rdata$r	ENDS
;	COMDAT ??_R2exception@std@@8
rdata$r	SEGMENT
??_R2exception@std@@8 DD FLAT:??_R1A@?0A@EA@exception@std@@8 ; std::exception::`RTTI Base Class Array'
rdata$r	ENDS
;	COMDAT ??_R3exception@std@@8
rdata$r	SEGMENT
??_R3exception@std@@8 DD 00H				; std::exception::`RTTI Class Hierarchy Descriptor'
	DD	00H
	DD	01H
	DD	FLAT:??_R2exception@std@@8
rdata$r	ENDS
;	COMDAT ??_R4exception@std@@6B@
rdata$r	SEGMENT
??_R4exception@std@@6B@ DD 00H				; std::exception::`RTTI Complete Object Locator'
	DD	00H
	DD	00H
	DD	FLAT:??_R0?AVexception@std@@@8
	DD	FLAT:??_R3exception@std@@8
rdata$r	ENDS
;	COMDAT ??_C@_0BA@FOIKENOD@vector?5too?5long@
CONST	SEGMENT
??_C@_0BA@FOIKENOD@vector?5too?5long@ DB 'vector too long', 00H ; `string'
CONST	ENDS
;	COMDAT ??_C@_0BB@GNLMPHOK@End?5Texture?$CF03d?6@
CONST	SEGMENT
??_C@_0BB@GNLMPHOK@End?5Texture?$CF03d?6@ DB 'End Texture%03d', 0aH, 00H ; `string'
CONST	ENDS
;	COMDAT ??_C@_08PFAGAKKH@?5?5?5?5?$CFhu?6@
CONST	SEGMENT
??_C@_08PFAGAKKH@?5?5?5?5?$CFhu?6@ DB '    %hu', 0aH, 00H ; `string'
CONST	ENDS
;	COMDAT ??_C@_07EIKGIFBE@?5?5?5?5?$CFd?6@
CONST	SEGMENT
??_C@_07EIKGIFBE@?5?5?5?5?$CFd?6@ DB '    %d', 0aH, 00H	; `string'
CONST	ENDS
;	COMDAT ??_C@_07ELCCFBHK@?5?5?5?5?$CFf?6@
CONST	SEGMENT
??_C@_07ELCCFBHK@?5?5?5?5?$CFf?6@ DB '    %f', 0aH, 00H	; `string'
CONST	ENDS
;	COMDAT ??_C@_09BMPLDMAP@?5?5?5?5?$CC?$CFs?$CC?6@
CONST	SEGMENT
??_C@_09BMPLDMAP@?5?5?5?5?$CC?$CFs?$CC?6@ DB '    "%s"', 0aH, 00H ; `string'
CONST	ENDS
;	COMDAT ??_C@_0BD@BJELLKNB@Start?5Texture?$CF03d?6@
CONST	SEGMENT
??_C@_0BD@BJELLKNB@Start?5Texture?$CF03d?6@ DB 'Start Texture%03d', 0aH, 00H ; `string'
CONST	ENDS
;	COMDAT ??_C@_0BC@GGJBGKJP@TextureCount?5?$CFld?6@
CONST	SEGMENT
??_C@_0BC@GGJBGKJP@TextureCount?5?$CFld?6@ DB 'TextureCount %ld', 0aH, 00H ; `string'
CONST	ENDS
;	COMDAT ??_C@_01EEMJAFIK@?6@
CONST	SEGMENT
??_C@_01EEMJAFIK@?6@ DB 0aH, 00H			; `string'
CONST	ENDS
;	COMDAT ??_C@_0M@MPCHGPBP@TextureSet?6@
CONST	SEGMENT
??_C@_0M@MPCHGPBP@TextureSet?6@ DB 'TextureSet', 0aH, 00H ; `string'
CONST	ENDS
;	COMDAT ??_C@_01NOFIACDB@w@
CONST	SEGMENT
??_C@_01NOFIACDB@w@ DB 'w', 00H				; `string'
CONST	ENDS
;	COMDAT ??_C@_0DL@DKIJJDLL@CTerrainImpl?3?3GenerateTexture?5?3@
CONST	SEGMENT
??_C@_0DL@DKIJJDLL@CTerrainImpl?3?3GenerateTexture?5?3@ DB 'CTerrainImpl:'
	DB	':GenerateTexture : ', 0c0H, 0ccH, 0b9H, 0ccH, 0c1H, 0f6H, ' ', 0c6H
	DB	0c4H, 0c0H, 0cfH, 0c0H, 0ccH, ' ', 0beH, 0c6H, 0b4H, 0d5H, 0b4H
	DB	0cfH, 0b4H, 0d9H, '. %s', 00H		; `string'
CONST	ENDS
;	COMDAT ??_C@_0CG@FLKLAMDA@?$LF?$LP?$MA?O?G?Q?5?$MA?L?$LI?$KH?$MA?G?5?E?X?$LN?$LK?C?$LD?$LA?$KB?5?$MA?L?$LJ?L?5?$MA?V?$LN@
CONST	SEGMENT
??_C@_0CG@FLKLAMDA@?$LF?$LP?$MA?O?G?Q?5?$MA?L?$LI?$KH?$MA?G?5?E?X?$LN?$LK?C?$LD?$LA?$KB?5?$MA?L?$LJ?L?5?$MA?V?$LN@ DB 0b5H
	DB	0bfH, 0c0H, 0cfH, 0c7H, 0d1H, ' ', 0c0H, 0ccH, 0b8H, 0a7H, 0c0H
	DB	0c7H, ' ', 0c5H, 0d8H, 0bdH, 0baH, 0c3H, 0b3H, 0b0H, 0a1H, ' ', 0c0H
	DB	0ccH, 0b9H, 0ccH, ' ', 0c0H, 0d6H, 0bdH, 0c0H, 0b4H, 0cfH, 0b4H
	DB	0d9H, '.', 00H				; `string'
CONST	ENDS
;	COMDAT ??_C@_04GOFBAOHB@?A?$NP?$LK?$LJ@
CONST	SEGMENT
??_C@_04GOFBAOHB@?A?$NP?$LK?$LJ@ DB 0c1H, 0dfH, 0baH, 0b9H, 00H ; `string'
CONST	ENDS
;	COMDAT ??_C@_0CF@MOODBFAK@?E?X?$LN?$LK?C?$LD?$LI?$KG?5?$LE?u?5?$MA?L?$LL?s?5?C?$NP?$LA?$KB?G?R?5?$LM?v?5?$LO?x?$LN?$MA@
CONST	SEGMENT
??_C@_0CF@MOODBFAK@?E?X?$LN?$LK?C?$LD?$LI?$KG?5?$LE?u?5?$MA?L?$LL?s?5?C?$NP?$LA?$KB?G?R?5?$LM?v?5?$LO?x?$LN?$MA@ DB 0c5H
	DB	0d8H, 0bdH, 0baH, 0c3H, 0b3H, 0b8H, 0a6H, ' ', 0b4H, 0f5H, ' ', 0c0H
	DB	0ccH, 0bbH, 0f3H, ' ', 0c3H, 0dfH, 0b0H, 0a1H, 0c7H, 0d2H, ' ', 0bcH
	DB	0f6H, ' ', 0beH, 0f8H, 0bdH, 0c0H, 0b4H, 0cfH, 0b4H, 0d9H, '.', 00H ; `string'
CONST	ENDS
;	COMDAT ??_C@_0BH@JDODIAKK@?C?V?$LE?k?5?E?X?$LN?$LK?C?$LD?5?$LA?$LD?$LM?v?5255?$LA?$LD@
CONST	SEGMENT
??_C@_0BH@JDODIAKK@?C?V?$LE?k?5?E?X?$LN?$LK?C?$LD?5?$LA?$LD?$LM?v?5255?$LA?$LD@ DB 0c3H
	DB	0d6H, 0b4H, 0ebH, ' ', 0c5H, 0d8H, 0bdH, 0baH, 0c3H, 0b3H, ' ', 0b0H
	DB	0b3H, 0bcH, 0f6H, ' 255', 0b0H, 0b3H, 00H	; `string'
CONST	ENDS
;	COMDAT ??_C@_0DF@JOIEGDLH@CTerrainImpl?3?3GenerateTexture?5?3@
CONST	SEGMENT
??_C@_0DF@JOIEGDLH@CTerrainImpl?3?3GenerateTexture?5?3@ DB 'CTerrainImpl:'
	DB	':GenerateTexture : %s is NOT Image File', 00H ; `string'
CONST	ENDS
;	COMDAT ??_C@_0FF@IFFABLMH@CTextureSet?3?3SetTexture?5?3?5Index@
CONST	SEGMENT
??_C@_0FF@IFFABLMH@CTextureSet?3?3SetTexture?5?3?5Index@ DB 'CTextureSet:'
	DB	':SetTexture : Index Error : Index(%d) is Larger than TextureS'
	DB	'et Size(%d)', 00H				; `string'
CONST	ENDS
;	COMDAT ??_C@_0DF@CFOIFDDM@CTextureSet?3?3Load?5?3?5SetTexture?5@
CONST	SEGMENT
??_C@_0DF@CFOIFDDM@CTextureSet?3?3Load?5?3?5SetTexture?5@ DB 'CTextureSet'
	DB	'::Load : SetTexture failed : Filename: %s', 00H ; `string'
CONST	ENDS
;	COMDAT ??_C@_0M@NDPMIDHE@texture?$CF03d@
CONST	SEGMENT
??_C@_0M@NDPMIDHE@texture?$CF03d@ DB 'texture%03d', 00H	; `string'
CONST	ENDS
;	COMDAT ??_C@_0DN@FCLAEMJC@TextureSet?3?3Load?5?3?5syntax?5error@
CONST	SEGMENT
??_C@_0DN@FCLAEMJC@TextureSet?3?3Load?5?3?5syntax?5error@ DB 'TextureSet:'
	DB	':Load : syntax error, TextureCount (filename: %s)', 00H ; `string'
CONST	ENDS
;	COMDAT ??_C@_0N@MMECMGAI@texturecount@
CONST	SEGMENT
??_C@_0N@MMECMGAI@texturecount@ DB 'texturecount', 00H	; `string'
CONST	ENDS
;	COMDAT ??_C@_0DL@HIELGKBC@TextureSet?3?3Load?5?3?5syntax?5error@
CONST	SEGMENT
??_C@_0DL@HIELGKBC@TextureSet?3?3Load?5?3?5syntax?5error@ DB 'TextureSet:'
	DB	':Load : syntax error, TextureSet (filename: %s)', 00H ; `string'
CONST	ENDS
;	COMDAT ??_C@_0L@FLIBEPMB@textureset@
CONST	SEGMENT
??_C@_0L@FLIBEPMB@textureset@ DB 'textureset', 00H	; `string'
CONST	ENDS
;	COMDAT ??_C@_0CC@NFEEIIKK@TextureSet?3?3Load?5?3?5cannot?5load?5@
CONST	SEGMENT
??_C@_0CC@NFEEIIKK@TextureSet?3?3Load?5?3?5cannot?5load?5@ DB 'TextureSet'
	DB	'::Load : cannot load %s', 00H		; `string'
CONST	ENDS
;	COMDAT ??_C@_0BP@PGALBFBK@d?3?1ymir?5work?1special?1error?4tga@
CONST	SEGMENT
??_C@_0BP@PGALBFBK@d?3?1ymir?5work?1special?1error?4tga@ DB 'd:/ymir work'
	DB	'/special/error.tga', 00H			; `string'
CONST	ENDS
;	COMDAT ??_7CTextureSet@@6B@
CONST	SEGMENT
??_7CTextureSet@@6B@ DD FLAT:??_R4CTextureSet@@6B@	; CTextureSet::`vftable'
	DD	FLAT:??_ECTextureSet@@UAEPAXI@Z
CONST	ENDS
;	COMDAT ??_7CGraphicImageInstance@@6B@
CONST	SEGMENT
??_7CGraphicImageInstance@@6B@ DD FLAT:??_R4CGraphicImageInstance@@6B@ ; CGraphicImageInstance::`vftable'
	DD	FLAT:??_ECGraphicImageInstance@@UAEPAXI@Z
	DD	FLAT:?OnRender@CGraphicImageInstance@@MAEXXZ
	DD	FLAT:?OnSetImagePointer@CGraphicImageInstance@@MAEXXZ
	DD	FLAT:?OnIsType@CGraphicImageInstance@@MAEHK@Z
CONST	ENDS
;	COMDAT ??_C@_0BB@GCADKGJO@map?1set?5too?5long@
CONST	SEGMENT
??_C@_0BB@GCADKGJO@map?1set?5too?5long@ DB 'map/set too long', 00H ; `string'
CONST	ENDS
;	COMDAT ??_C@_0BA@JFNIOLAK@string?5too?5long@
CONST	SEGMENT
??_C@_0BA@JFNIOLAK@string?5too?5long@ DB 'string too long', 00H ; `string'
CONST	ENDS
;	COMDAT __CT??_R0?AVexception@std@@@8??0exception@std@@QAE@ABV01@@Z12
xdata$x	SEGMENT
__CT??_R0?AVexception@std@@@8??0exception@std@@QAE@ABV01@@Z12 DD 00H
	DD	FLAT:??_R0?AVexception@std@@@8
	DD	00H
	DD	0ffffffffH
	ORG $+4
	DD	0cH
	DD	FLAT:??0exception@std@@QAE@ABV01@@Z
xdata$x	ENDS
;	COMDAT ??_R0?AVexception@std@@@8
data$r	SEGMENT
??_R0?AVexception@std@@@8 DD FLAT:??_7type_info@@6B@	; std::exception `RTTI Type Descriptor'
	DD	00H
	DB	'.?AVexception@std@@', 00H
data$r	ENDS
;	COMDAT __CT??_R0?AVbad_alloc@std@@@8??0bad_alloc@std@@QAE@ABV01@@Z12
xdata$x	SEGMENT
__CT??_R0?AVbad_alloc@std@@@8??0bad_alloc@std@@QAE@ABV01@@Z12 DD 010H
	DD	FLAT:??_R0?AVbad_alloc@std@@@8
	DD	00H
	DD	0ffffffffH
	ORG $+4
	DD	0cH
	DD	FLAT:??0bad_alloc@std@@QAE@ABV01@@Z
xdata$x	ENDS
;	COMDAT ??_R0?AVbad_alloc@std@@@8
data$r	SEGMENT
??_R0?AVbad_alloc@std@@@8 DD FLAT:??_7type_info@@6B@	; std::bad_alloc `RTTI Type Descriptor'
	DD	00H
	DB	'.?AVbad_alloc@std@@', 00H
data$r	ENDS
;	COMDAT __CT??_R0?AVbad_array_new_length@std@@@8??0bad_array_new_length@std@@QAE@ABV01@@Z12
xdata$x	SEGMENT
__CT??_R0?AVbad_array_new_length@std@@@8??0bad_array_new_length@std@@QAE@ABV01@@Z12 DD 00H
	DD	FLAT:??_R0?AVbad_array_new_length@std@@@8
	DD	00H
	DD	0ffffffffH
	ORG $+4
	DD	0cH
	DD	FLAT:??0bad_array_new_length@std@@QAE@ABV01@@Z
xdata$x	ENDS
;	COMDAT ??_R0?AVbad_array_new_length@std@@@8
data$r	SEGMENT
??_R0?AVbad_array_new_length@std@@@8 DD FLAT:??_7type_info@@6B@ ; std::bad_array_new_length `RTTI Type Descriptor'
	DD	00H
	DB	'.?AVbad_array_new_length@std@@', 00H
data$r	ENDS
;	COMDAT __CTA3?AVbad_array_new_length@std@@
xdata$x	SEGMENT
__CTA3?AVbad_array_new_length@std@@ DD 03H
	DD	FLAT:__CT??_R0?AVbad_array_new_length@std@@@8??0bad_array_new_length@std@@QAE@ABV01@@Z12
	DD	FLAT:__CT??_R0?AVbad_alloc@std@@@8??0bad_alloc@std@@QAE@ABV01@@Z12
	DD	FLAT:__CT??_R0?AVexception@std@@@8??0exception@std@@QAE@ABV01@@Z12
xdata$x	ENDS
;	COMDAT __TI3?AVbad_array_new_length@std@@
xdata$x	SEGMENT
__TI3?AVbad_array_new_length@std@@ DD 00H
	DD	FLAT:??1bad_array_new_length@std@@UAE@XZ
	DD	00H
	DD	FLAT:__CTA3?AVbad_array_new_length@std@@
xdata$x	ENDS
;	COMDAT ??_C@_0BF@KINCDENJ@bad?5array?5new?5length@
CONST	SEGMENT
??_C@_0BF@KINCDENJ@bad?5array?5new?5length@ DB 'bad array new length', 00H ; `string'
CONST	ENDS
;	COMDAT ??_7bad_array_new_length@std@@6B@
CONST	SEGMENT
??_7bad_array_new_length@std@@6B@ DD FLAT:??_R4bad_array_new_length@std@@6B@ ; std::bad_array_new_length::`vftable'
	DD	FLAT:??_Ebad_array_new_length@std@@UAEPAXI@Z
	DD	FLAT:?what@exception@std@@UBEPBDXZ
CONST	ENDS
;	COMDAT ??_7bad_alloc@std@@6B@
CONST	SEGMENT
??_7bad_alloc@std@@6B@ DD FLAT:??_R4bad_alloc@std@@6B@	; std::bad_alloc::`vftable'
	DD	FLAT:??_Ebad_alloc@std@@UAEPAXI@Z
	DD	FLAT:?what@exception@std@@UBEPBDXZ
CONST	ENDS
;	COMDAT ??_C@_0BC@EOODALEL@Unknown?5exception@
CONST	SEGMENT
??_C@_0BC@EOODALEL@Unknown?5exception@ DB 'Unknown exception', 00H ; `string'
CONST	ENDS
;	COMDAT ??_7exception@std@@6B@
CONST	SEGMENT
??_7exception@std@@6B@ DD FLAT:??_R4exception@std@@6B@	; std::exception::`vftable'
	DD	FLAT:??_Eexception@std@@UAEPAXI@Z
	DD	FLAT:?what@exception@std@@UBEPBDXZ
CONST	ENDS
;	COMDAT xdata$x
xdata$x	SEGMENT
__unwindtable$??$_Uninitialized_move@PAUSTerrainTexture@@V?$allocator@USTerrainTexture@@@std@@@std@@YAPAUSTerrainTexture@@QAU1@0PAU1@AAV?$allocator@USTerrainTexture@@@0@@Z DD 0ffffffffH
	DD	FLAT:__unwindfunclet$??$_Uninitialized_move@PAUSTerrainTexture@@V?$allocator@USTerrainTexture@@@std@@@std@@YAPAUSTerrainTexture@@QAU1@0PAU1@AAV?$allocator@USTerrainTexture@@@0@@Z$0
__ehfuncinfo$??$_Uninitialized_move@PAUSTerrainTexture@@V?$allocator@USTerrainTexture@@@std@@@std@@YAPAUSTerrainTexture@@QAU1@0PAU1@AAV?$allocator@USTerrainTexture@@@0@@Z DD 019930522H
	DD	01H
	DD	FLAT:__unwindtable$??$_Uninitialized_move@PAUSTerrainTexture@@V?$allocator@USTerrainTexture@@@std@@@std@@YAPAUSTerrainTexture@@QAU1@0PAU1@AAV?$allocator@USTerrainTexture@@@0@@Z
	DD	2 DUP(00H)
	DD	2 DUP(00H)
	DD	00H
	DD	01H
xdata$x	ENDS
;	COMDAT xdata$x
xdata$x	SEGMENT
__catchsym$??$_Emplace_reallocate@ABUSTerrainTexture@@@?$vector@USTerrainTexture@@V?$allocator@USTerrainTexture@@@std@@@std@@AAEPAUSTerrainTexture@@QAU2@ABU2@@Z$2 DD 040H
	DD	00H
	DD	00H
	DD	FLAT:__catch$??$_Emplace_reallocate@ABUSTerrainTexture@@@?$vector@USTerrainTexture@@V?$allocator@USTerrainTexture@@@std@@@std@@AAEPAUSTerrainTexture@@QAU2@ABU2@@Z$0
__unwindtable$??$_Emplace_reallocate@ABUSTerrainTexture@@@?$vector@USTerrainTexture@@V?$allocator@USTerrainTexture@@@std@@@std@@AAEPAUSTerrainTexture@@QAU2@ABU2@@Z DD 0ffffffffH
	DD	00H
	DD	0ffffffffH
	DD	00H
__tryblocktable$??$_Emplace_reallocate@ABUSTerrainTexture@@@?$vector@USTerrainTexture@@V?$allocator@USTerrainTexture@@@std@@@std@@AAEPAUSTerrainTexture@@QAU2@ABU2@@Z DD 00H
	DD	00H
	DD	01H
	DD	01H
	DD	FLAT:__catchsym$??$_Emplace_reallocate@ABUSTerrainTexture@@@?$vector@USTerrainTexture@@V?$allocator@USTerrainTexture@@@std@@@std@@AAEPAUSTerrainTexture@@QAU2@ABU2@@Z$2
__ehfuncinfo$??$_Emplace_reallocate@ABUSTerrainTexture@@@?$vector@USTerrainTexture@@V?$allocator@USTerrainTexture@@@std@@@std@@AAEPAUSTerrainTexture@@QAU2@ABU2@@Z DD 019930522H
	DD	02H
	DD	FLAT:__unwindtable$??$_Emplace_reallocate@ABUSTerrainTexture@@@?$vector@USTerrainTexture@@V?$allocator@USTerrainTexture@@@std@@@std@@AAEPAUSTerrainTexture@@QAU2@ABU2@@Z
	DD	01H
	DD	FLAT:__tryblocktable$??$_Emplace_reallocate@ABUSTerrainTexture@@@?$vector@USTerrainTexture@@V?$allocator@USTerrainTexture@@@std@@@std@@AAEPAUSTerrainTexture@@QAU2@ABU2@@Z
	DD	2 DUP(00H)
	DD	00H
	DD	01H
xdata$x	ENDS
;	COMDAT xdata$x
xdata$x	SEGMENT
__unwindtable$??$_Uninitialized_value_construct_n@V?$allocator@USTerrainTexture@@@std@@@std@@YAPAUSTerrainTexture@@PAU1@IAAV?$allocator@USTerrainTexture@@@0@@Z DD 0ffffffffH
	DD	FLAT:__unwindfunclet$??$_Uninitialized_value_construct_n@V?$allocator@USTerrainTexture@@@std@@@std@@YAPAUSTerrainTexture@@PAU1@IAAV?$allocator@USTerrainTexture@@@0@@Z$0
__ehfuncinfo$??$_Uninitialized_value_construct_n@V?$allocator@USTerrainTexture@@@std@@@std@@YAPAUSTerrainTexture@@PAU1@IAAV?$allocator@USTerrainTexture@@@0@@Z DD 019930522H
	DD	01H
	DD	FLAT:__unwindtable$??$_Uninitialized_value_construct_n@V?$allocator@USTerrainTexture@@@std@@@std@@YAPAUSTerrainTexture@@PAU1@IAAV?$allocator@USTerrainTexture@@@0@@Z
	DD	2 DUP(00H)
	DD	2 DUP(00H)
	DD	00H
	DD	01H
xdata$x	ENDS
;	COMDAT xdata$x
xdata$x	SEGMENT
__catchsym$??$_Resize_reallocate@U_Value_init_tag@std@@@?$vector@USTerrainTexture@@V?$allocator@USTerrainTexture@@@std@@@std@@AAEXIABU_Value_init_tag@1@@Z$2 DD 040H
	DD	00H
	DD	00H
	DD	FLAT:__catch$??$_Resize_reallocate@U_Value_init_tag@std@@@?$vector@USTerrainTexture@@V?$allocator@USTerrainTexture@@@std@@@std@@AAEXIABU_Value_init_tag@1@@Z$0
__unwindtable$??$_Resize_reallocate@U_Value_init_tag@std@@@?$vector@USTerrainTexture@@V?$allocator@USTerrainTexture@@@std@@@std@@AAEXIABU_Value_init_tag@1@@Z DD 0ffffffffH
	DD	00H
	DD	0ffffffffH
	DD	00H
__tryblocktable$??$_Resize_reallocate@U_Value_init_tag@std@@@?$vector@USTerrainTexture@@V?$allocator@USTerrainTexture@@@std@@@std@@AAEXIABU_Value_init_tag@1@@Z DD 00H
	DD	00H
	DD	01H
	DD	01H
	DD	FLAT:__catchsym$??$_Resize_reallocate@U_Value_init_tag@std@@@?$vector@USTerrainTexture@@V?$allocator@USTerrainTexture@@@std@@@std@@AAEXIABU_Value_init_tag@1@@Z$2
__ehfuncinfo$??$_Resize_reallocate@U_Value_init_tag@std@@@?$vector@USTerrainTexture@@V?$allocator@USTerrainTexture@@@std@@@std@@AAEXIABU_Value_init_tag@1@@Z DD 019930522H
	DD	02H
	DD	FLAT:__unwindtable$??$_Resize_reallocate@U_Value_init_tag@std@@@?$vector@USTerrainTexture@@V?$allocator@USTerrainTexture@@@std@@@std@@AAEXIABU_Value_init_tag@1@@Z
	DD	01H
	DD	FLAT:__tryblocktable$??$_Resize_reallocate@U_Value_init_tag@std@@@?$vector@USTerrainTexture@@V?$allocator@USTerrainTexture@@@std@@@std@@AAEXIABU_Value_init_tag@1@@Z
	DD	2 DUP(00H)
	DD	00H
	DD	01H
xdata$x	ENDS
;	COMDAT xdata$x
xdata$x	SEGMENT
__unwindtable$??$?0ABUpiecewise_construct_t@std@@V?$tuple@$$QAV?$basic_string@DU?$char_traits@D@std@@V?$allocator@D@2@@std@@@1@V?$tuple@$$V@1@@?$_Tree_temp_node@V?$allocator@U?$_Tree_node@U?$pair@$$CBV?$basic_string@DU?$char_traits@D@std@@V?$allocator@D@2@@std@@V?$vector@V?$basic_string@DU?$char_traits@D@std@@V?$allocator@D@2@@std@@V?$allocator@V?$basic_string@DU?$char_traits@D@std@@V?$allocator@D@2@@std@@@2@@2@@std@@PAX@std@@@std@@@std@@QAE@AAV?$allocator@U?$_Tree_node@U?$pair@$$CBV?$basic_string@DU?$char_traits@D@std@@V?$allocator@D@2@@std@@V?$vector@V?$basic_string@DU?$char_traits@D@std@@V?$allocator@D@2@@std@@V?$allocator@V?$basic_string@DU?$char_traits@D@std@@V?$allocator@D@2@@std@@@2@@2@@std@@PAX@std@@@1@PAU?$_Tree_node@U?$pair@$$CBV?$basic_string@DU?$char_traits@D@std@@V?$allocator@D@2@@std@@V?$vector@V?$basic_string@DU?$char_traits@D@std@@V?$allocator@D@2@@std@@V?$allocator@V?$basic_string@DU?$char_traits@D@std@@V?$allocator@D@2@@std@@@2@@2@@std@@PAX@1@ABUpiecewise_construct_t@1@$$QAV?$tuple@$$QAV?$basic_string@DU?$char_traits@D@std@@V?$allocator@D@2@@std@@@1@$$QAV?$tuple@$$V@1@@Z DD 0ffffffffH
	DD	FLAT:__unwindfunclet$??$?0ABUpiecewise_construct_t@std@@V?$tuple@$$QAV?$basic_string@DU?$char_traits@D@std@@V?$allocator@D@2@@std@@@1@V?$tuple@$$V@1@@?$_Tree_temp_node@V?$allocator@U?$_Tree_node@U?$pair@$$CBV?$basic_string@DU?$char_traits@D@std@@V?$allocator@D@2@@std@@V?$vector@V?$basic_string@DU?$char_traits@D@std@@V?$allocator@D@2@@std@@V?$allocator@V?$basic_string@DU?$char_traits@D@std@@V?$allocator@D@2@@std@@@2@@2@@std@@PAX@std@@@std@@@std@@QAE@AAV?$allocator@U?$_Tree_node@U?$pair@$$CBV?$basic_string@DU?$char_traits@D@std@@V?$allocator@D@2@@std@@V?$vector@V?$basic_string@DU?$char_traits@D@std@@V?$allocator@D@2@@std@@V?$allocator@V?$basic_string@DU?$char_traits@D@std@@V?$allocator@D@2@@std@@@2@@2@@std@@PAX@std@@@1@PAU?$_Tree_node@U?$pair@$$CBV?$basic_string@DU?$char_traits@D@std@@V?$allocator@D@2@@std@@V?$vector@V?$basic_string@DU?$char_traits@D@std@@V?$allocator@D@2@@std@@V?$allocator@V?$basic_string@DU?$char_traits@D@std@@V?$allocator@D@2@@std@@@2@@2@@std@@PAX@1@ABUpiecewise_construct_t@1@$$QAV?$tuple@$$QAV?$basic_string@DU?$char_traits@D@std@@V?$allocator@D@2@@std@@@1@$$QAV?$tuple@$$V@1@@Z$1
__ehfuncinfo$??$?0ABUpiecewise_construct_t@std@@V?$tuple@$$QAV?$basic_string@DU?$char_traits@D@std@@V?$allocator@D@2@@std@@@1@V?$tuple@$$V@1@@?$_Tree_temp_node@V?$allocator@U?$_Tree_node@U?$pair@$$CBV?$basic_string@DU?$char_traits@D@std@@V?$allocator@D@2@@std@@V?$vector@V?$basic_string@DU?$char_traits@D@std@@V?$allocator@D@2@@std@@V?$allocator@V?$basic_string@DU?$char_traits@D@std@@V?$allocator@D@2@@std@@@2@@2@@std@@PAX@std@@@std@@@std@@QAE@AAV?$allocator@U?$_Tree_node@U?$pair@$$CBV?$basic_string@DU?$char_traits@D@std@@V?$allocator@D@2@@std@@V?$vector@V?$basic_string@DU?$char_traits@D@std@@V?$allocator@D@2@@std@@V?$allocator@V?$basic_string@DU?$char_traits@D@std@@V?$allocator@D@2@@std@@@2@@2@@std@@PAX@std@@@1@PAU?$_Tree_node@U?$pair@$$CBV?$basic_string@DU?$char_traits@D@std@@V?$allocator@D@2@@std@@V?$vector@V?$basic_string@DU?$char_traits@D@std@@V?$allocator@D@2@@std@@V?$allocator@V?$basic_string@DU?$char_traits@D@std@@V?$allocator@D@2@@std@@@2@@2@@std@@PAX@1@ABUpiecewise_construct_t@1@$$QAV?$tuple@$$QAV?$basic_string@DU?$char_traits@D@std@@V?$allocator@D@2@@std@@@1@$$QAV?$tuple@$$V@1@@Z DD 019930522H
	DD	01H
	DD	FLAT:__unwindtable$??$?0ABUpiecewise_construct_t@std@@V?$tuple@$$QAV?$basic_string@DU?$char_traits@D@std@@V?$allocator@D@2@@std@@@1@V?$tuple@$$V@1@@?$_Tree_temp_node@V?$allocator@U?$_Tree_node@U?$pair@$$CBV?$basic_string@DU?$char_traits@D@std@@V?$allocator@D@2@@std@@V?$vector@V?$basic_string@DU?$char_traits@D@std@@V?$allocator@D@2@@std@@V?$allocator@V?$basic_string@DU?$char_traits@D@std@@V?$allocator@D@2@@std@@@2@@2@@std@@PAX@std@@@std@@@std@@QAE@AAV?$allocator@U?$_Tree_node@U?$pair@$$CBV?$basic_string@DU?$char_traits@D@std@@V?$allocator@D@2@@std@@V?$vector@V?$basic_string@DU?$char_traits@D@std@@V?$allocator@D@2@@std@@V?$allocator@V?$basic_string@DU?$char_traits@D@std@@V?$allocator@D@2@@std@@@2@@2@@std@@PAX@std@@@1@PAU?$_Tree_node@U?$pair@$$CBV?$basic_string@DU?$char_traits@D@std@@V?$allocator@D@2@@std@@V?$vector@V?$basic_string@DU?$char_traits@D@std@@V?$allocator@D@2@@std@@V?$allocator@V?$basic_string@DU?$char_traits@D@std@@V?$allocator@D@2@@std@@@2@@2@@std@@PAX@1@ABUpiecewise_construct_t@1@$$QAV?$tuple@$$QAV?$basic_string@DU?$char_traits@D@std@@V?$allocator@D@2@@std@@@1@$$QAV?$tuple@$$V@1@@Z
	DD	2 DUP(00H)
	DD	2 DUP(00H)
	DD	00H
	DD	01H
xdata$x	ENDS
;	COMDAT xdata$x
xdata$x	SEGMENT
__unwindtable$??0?$_Tree_temp_node_alloc@V?$allocator@U?$_Tree_node@U?$pair@$$CBV?$basic_string@DU?$char_traits@D@std@@V?$allocator@D@2@@std@@V?$vector@V?$basic_string@DU?$char_traits@D@std@@V?$allocator@D@2@@std@@V?$allocator@V?$basic_string@DU?$char_traits@D@std@@V?$allocator@D@2@@std@@@2@@2@@std@@PAX@std@@@std@@@std@@QAE@AAV?$allocator@U?$_Tree_node@U?$pair@$$CBV?$basic_string@DU?$char_traits@D@std@@V?$allocator@D@2@@std@@V?$vector@V?$basic_string@DU?$char_traits@D@std@@V?$allocator@D@2@@std@@V?$allocator@V?$basic_string@DU?$char_traits@D@std@@V?$allocator@D@2@@std@@@2@@2@@std@@PAX@std@@@1@@Z DD 0ffffffffH
	DD	FLAT:__unwindfunclet$??0?$_Tree_temp_node_alloc@V?$allocator@U?$_Tree_node@U?$pair@$$CBV?$basic_string@DU?$char_traits@D@std@@V?$allocator@D@2@@std@@V?$vector@V?$basic_string@DU?$char_traits@D@std@@V?$allocator@D@2@@std@@V?$allocator@V?$basic_string@DU?$char_traits@D@std@@V?$allocator@D@2@@std@@@2@@2@@std@@PAX@std@@@std@@@std@@QAE@AAV?$allocator@U?$_Tree_node@U?$pair@$$CBV?$basic_string@DU?$char_traits@D@std@@V?$allocator@D@2@@std@@V?$vector@V?$basic_string@DU?$char_traits@D@std@@V?$allocator@D@2@@std@@V?$allocator@V?$basic_string@DU?$char_traits@D@std@@V?$allocator@D@2@@std@@@2@@2@@std@@PAX@std@@@1@@Z$0
__ehfuncinfo$??0?$_Tree_temp_node_alloc@V?$allocator@U?$_Tree_node@U?$pair@$$CBV?$basic_string@DU?$char_traits@D@std@@V?$allocator@D@2@@std@@V?$vector@V?$basic_string@DU?$char_traits@D@std@@V?$allocator@D@2@@std@@V?$allocator@V?$basic_string@DU?$char_traits@D@std@@V?$allocator@D@2@@std@@@2@@2@@std@@PAX@std@@@std@@@std@@QAE@AAV?$allocator@U?$_Tree_node@U?$pair@$$CBV?$basic_string@DU?$char_traits@D@std@@V?$allocator@D@2@@std@@V?$vector@V?$basic_string@DU?$char_traits@D@std@@V?$allocator@D@2@@std@@V?$allocator@V?$basic_string@DU?$char_traits@D@std@@V?$allocator@D@2@@std@@@2@@2@@std@@PAX@std@@@1@@Z DD 019930522H
	DD	01H
	DD	FLAT:__unwindtable$??0?$_Tree_temp_node_alloc@V?$allocator@U?$_Tree_node@U?$pair@$$CBV?$basic_string@DU?$char_traits@D@std@@V?$allocator@D@2@@std@@V?$vector@V?$basic_string@DU?$char_traits@D@std@@V?$allocator@D@2@@std@@V?$allocator@V?$basic_string@DU?$char_traits@D@std@@V?$allocator@D@2@@std@@@2@@2@@std@@PAX@std@@@std@@@std@@QAE@AAV?$allocator@U?$_Tree_node@U?$pair@$$CBV?$basic_string@DU?$char_traits@D@std@@V?$allocator@D@2@@std@@V?$vector@V?$basic_string@DU?$char_traits@D@std@@V?$allocator@D@2@@std@@V?$allocator@V?$basic_string@DU?$char_traits@D@std@@V?$allocator@D@2@@std@@@2@@2@@std@@PAX@std@@@1@@Z
	DD	2 DUP(00H)
	DD	2 DUP(00H)
	DD	00H
	DD	01H
xdata$x	ENDS
;	COMDAT xdata$x
xdata$x	SEGMENT
__unwindtable$??$_Uninitialized_copy@PAUSTerrainTexture@@PAU1@V?$allocator@USTerrainTexture@@@std@@@std@@YAPAUSTerrainTexture@@PAU1@00AAV?$allocator@USTerrainTexture@@@0@@Z DD 0ffffffffH
	DD	FLAT:__unwindfunclet$??$_Uninitialized_copy@PAUSTerrainTexture@@PAU1@V?$allocator@USTerrainTexture@@@std@@@std@@YAPAUSTerrainTexture@@PAU1@00AAV?$allocator@USTerrainTexture@@@0@@Z$0
__ehfuncinfo$??$_Uninitialized_copy@PAUSTerrainTexture@@PAU1@V?$allocator@USTerrainTexture@@@std@@@std@@YAPAUSTerrainTexture@@PAU1@00AAV?$allocator@USTerrainTexture@@@0@@Z DD 019930522H
	DD	01H
	DD	FLAT:__unwindtable$??$_Uninitialized_copy@PAUSTerrainTexture@@PAU1@V?$allocator@USTerrainTexture@@@std@@@std@@YAPAUSTerrainTexture@@PAU1@00AAV?$allocator@USTerrainTexture@@@0@@Z
	DD	2 DUP(00H)
	DD	2 DUP(00H)
	DD	00H
	DD	01H
xdata$x	ENDS
;	COMDAT xdata$x
xdata$x	SEGMENT
__unwindtable$??$_Try_emplace@V?$basic_string@DU?$char_traits@D@std@@V?$allocator@D@2@@std@@$$V@?$map@V?$basic_string@DU?$char_traits@D@std@@V?$allocator@D@2@@std@@V?$vector@V?$basic_string@DU?$char_traits@D@std@@V?$allocator@D@2@@std@@V?$allocator@V?$basic_string@DU?$char_traits@D@std@@V?$allocator@D@2@@std@@@2@@2@U?$less@V?$basic_string@DU?$char_traits@D@std@@V?$allocator@D@2@@std@@@2@V?$allocator@U?$pair@$$CBV?$basic_string@DU?$char_traits@D@std@@V?$allocator@D@2@@std@@V?$vector@V?$basic_string@DU?$char_traits@D@std@@V?$allocator@D@2@@std@@V?$allocator@V?$basic_string@DU?$char_traits@D@std@@V?$allocator@D@2@@std@@@2@@2@@std@@@2@@std@@AAE?AU?$pair@PAU?$_Tree_node@U?$pair@$$CBV?$basic_string@DU?$char_traits@D@std@@V?$allocator@D@2@@std@@V?$vector@V?$basic_string@DU?$char_traits@D@std@@V?$allocator@D@2@@std@@V?$allocator@V?$basic_string@DU?$char_traits@D@std@@V?$allocator@D@2@@std@@@2@@2@@std@@PAX@std@@_N@1@$$QAV?$basic_string@DU?$char_traits@D@std@@V?$allocator@D@2@@1@@Z DD 0ffffffffH
	DD	FLAT:__unwindfunclet$??$_Try_emplace@V?$basic_string@DU?$char_traits@D@std@@V?$allocator@D@2@@std@@$$V@?$map@V?$basic_string@DU?$char_traits@D@std@@V?$allocator@D@2@@std@@V?$vector@V?$basic_string@DU?$char_traits@D@std@@V?$allocator@D@2@@std@@V?$allocator@V?$basic_string@DU?$char_traits@D@std@@V?$allocator@D@2@@std@@@2@@2@U?$less@V?$basic_string@DU?$char_traits@D@std@@V?$allocator@D@2@@std@@@2@V?$allocator@U?$pair@$$CBV?$basic_string@DU?$char_traits@D@std@@V?$allocator@D@2@@std@@V?$vector@V?$basic_string@DU?$char_traits@D@std@@V?$allocator@D@2@@std@@V?$allocator@V?$basic_string@DU?$char_traits@D@std@@V?$allocator@D@2@@std@@@2@@2@@std@@@2@@std@@AAE?AU?$pair@PAU?$_Tree_node@U?$pair@$$CBV?$basic_string@DU?$char_traits@D@std@@V?$allocator@D@2@@std@@V?$vector@V?$basic_string@DU?$char_traits@D@std@@V?$allocator@D@2@@std@@V?$allocator@V?$basic_string@DU?$char_traits@D@std@@V?$allocator@D@2@@std@@@2@@2@@std@@PAX@std@@_N@1@$$QAV?$basic_string@DU?$char_traits@D@std@@V?$allocator@D@2@@1@@Z$2
__ehfuncinfo$??$_Try_emplace@V?$basic_string@DU?$char_traits@D@std@@V?$allocator@D@2@@std@@$$V@?$map@V?$basic_string@DU?$char_traits@D@std@@V?$allocator@D@2@@std@@V?$vector@V?$basic_string@DU?$char_traits@D@std@@V?$allocator@D@2@@std@@V?$allocator@V?$basic_string@DU?$char_traits@D@std@@V?$allocator@D@2@@std@@@2@@2@U?$less@V?$basic_string@DU?$char_traits@D@std@@V?$allocator@D@2@@std@@@2@V?$allocator@U?$pair@$$CBV?$basic_string@DU?$char_traits@D@std@@V?$allocator@D@2@@std@@V?$vector@V?$basic_string@DU?$char_traits@D@std@@V?$allocator@D@2@@std@@V?$allocator@V?$basic_string@DU?$char_traits@D@std@@V?$allocator@D@2@@std@@@2@@2@@std@@@2@@std@@AAE?AU?$pair@PAU?$_Tree_node@U?$pair@$$CBV?$basic_string@DU?$char_traits@D@std@@V?$allocator@D@2@@std@@V?$vector@V?$basic_string@DU?$char_traits@D@std@@V?$allocator@D@2@@std@@V?$allocator@V?$basic_string@DU?$char_traits@D@std@@V?$allocator@D@2@@std@@@2@@2@@std@@PAX@std@@_N@1@$$QAV?$basic_string@DU?$char_traits@D@std@@V?$allocator@D@2@@1@@Z DD 019930522H
	DD	01H
	DD	FLAT:__unwindtable$??$_Try_emplace@V?$basic_string@DU?$char_traits@D@std@@V?$allocator@D@2@@std@@$$V@?$map@V?$basic_string@DU?$char_traits@D@std@@V?$allocator@D@2@@std@@V?$vector@V?$basic_string@DU?$char_traits@D@std@@V?$allocator@D@2@@std@@V?$allocator@V?$basic_string@DU?$char_traits@D@std@@V?$allocator@D@2@@std@@@2@@2@U?$less@V?$basic_string@DU?$char_traits@D@std@@V?$allocator@D@2@@std@@@2@V?$allocator@U?$pair@$$CBV?$basic_string@DU?$char_traits@D@std@@V?$allocator@D@2@@std@@V?$vector@V?$basic_string@DU?$char_traits@D@std@@V?$allocator@D@2@@std@@V?$allocator@V?$basic_string@DU?$char_traits@D@std@@V?$allocator@D@2@@std@@@2@@2@@std@@@2@@std@@AAE?AU?$pair@PAU?$_Tree_node@U?$pair@$$CBV?$basic_string@DU?$char_traits@D@std@@V?$allocator@D@2@@std@@V?$vector@V?$basic_string@DU?$char_traits@D@std@@V?$allocator@D@2@@std@@V?$allocator@V?$basic_string@DU?$char_traits@D@std@@V?$allocator@D@2@@std@@@2@@2@@std@@PAX@std@@_N@1@$$QAV?$basic_string@DU?$char_traits@D@std@@V?$allocator@D@2@@1@@Z
	DD	2 DUP(00H)
	DD	2 DUP(00H)
	DD	00H
	DD	01H
xdata$x	ENDS
;	COMDAT xdata$x
xdata$x	SEGMENT
__unwindtable$??A?$map@V?$basic_string@DU?$char_traits@D@std@@V?$allocator@D@2@@std@@V?$vector@V?$basic_string@DU?$char_traits@D@std@@V?$allocator@D@2@@std@@V?$allocator@V?$basic_string@DU?$char_traits@D@std@@V?$allocator@D@2@@std@@@2@@2@U?$less@V?$basic_string@DU?$char_traits@D@std@@V?$allocator@D@2@@std@@@2@V?$allocator@U?$pair@$$CBV?$basic_string@DU?$char_traits@D@std@@V?$allocator@D@2@@std@@V?$vector@V?$basic_string@DU?$char_traits@D@std@@V?$allocator@D@2@@std@@V?$allocator@V?$basic_string@DU?$char_traits@D@std@@V?$allocator@D@2@@std@@@2@@2@@std@@@2@@std@@QAEAAV?$vector@V?$basic_string@DU?$char_traits@D@std@@V?$allocator@D@2@@std@@V?$allocator@V?$basic_string@DU?$char_traits@D@std@@V?$allocator@D@2@@std@@@2@@1@$$QAV?$basic_string@DU?$char_traits@D@std@@V?$allocator@D@2@@1@@Z DD 0ffffffffH
	DD	FLAT:__unwindfunclet$??A?$map@V?$basic_string@DU?$char_traits@D@std@@V?$allocator@D@2@@std@@V?$vector@V?$basic_string@DU?$char_traits@D@std@@V?$allocator@D@2@@std@@V?$allocator@V?$basic_string@DU?$char_traits@D@std@@V?$allocator@D@2@@std@@@2@@2@U?$less@V?$basic_string@DU?$char_traits@D@std@@V?$allocator@D@2@@std@@@2@V?$allocator@U?$pair@$$CBV?$basic_string@DU?$char_traits@D@std@@V?$allocator@D@2@@std@@V?$vector@V?$basic_string@DU?$char_traits@D@std@@V?$allocator@D@2@@std@@V?$allocator@V?$basic_string@DU?$char_traits@D@std@@V?$allocator@D@2@@std@@@2@@2@@std@@@2@@std@@QAEAAV?$vector@V?$basic_string@DU?$char_traits@D@std@@V?$allocator@D@2@@std@@V?$allocator@V?$basic_string@DU?$char_traits@D@std@@V?$allocator@D@2@@std@@@2@@1@$$QAV?$basic_string@DU?$char_traits@D@std@@V?$allocator@D@2@@1@@Z$2
__ehfuncinfo$??A?$map@V?$basic_string@DU?$char_traits@D@std@@V?$allocator@D@2@@std@@V?$vector@V?$basic_string@DU?$char_traits@D@std@@V?$allocator@D@2@@std@@V?$allocator@V?$basic_string@DU?$char_traits@D@std@@V?$allocator@D@2@@std@@@2@@2@U?$less@V?$basic_string@DU?$char_traits@D@std@@V?$allocator@D@2@@std@@@2@V?$allocator@U?$pair@$$CBV?$basic_string@DU?$char_traits@D@std@@V?$allocator@D@2@@std@@V?$vector@V?$basic_string@DU?$char_traits@D@std@@V?$allocator@D@2@@std@@V?$allocator@V?$basic_string@DU?$char_traits@D@std@@V?$allocator@D@2@@std@@@2@@2@@std@@@2@@std@@QAEAAV?$vector@V?$basic_string@DU?$char_traits@D@std@@V?$allocator@D@2@@std@@V?$allocator@V?$basic_string@DU?$char_traits@D@std@@V?$allocator@D@2@@std@@@2@@1@$$QAV?$basic_string@DU?$char_traits@D@std@@V?$allocator@D@2@@1@@Z DD 019930522H
	DD	01H
	DD	FLAT:__unwindtable$??A?$map@V?$basic_string@DU?$char_traits@D@std@@V?$allocator@D@2@@std@@V?$vector@V?$basic_string@DU?$char_traits@D@std@@V?$allocator@D@2@@std@@V?$allocator@V?$basic_string@DU?$char_traits@D@std@@V?$allocator@D@2@@std@@@2@@2@U?$less@V?$basic_string@DU?$char_traits@D@std@@V?$allocator@D@2@@std@@@2@V?$allocator@U?$pair@$$CBV?$basic_string@DU?$char_traits@D@std@@V?$allocator@D@2@@std@@V?$vector@V?$basic_string@DU?$char_traits@D@std@@V?$allocator@D@2@@std@@V?$allocator@V?$basic_string@DU?$char_traits@D@std@@V?$allocator@D@2@@std@@@2@@2@@std@@@2@@std@@QAEAAV?$vector@V?$basic_string@DU?$char_traits@D@std@@V?$allocator@D@2@@std@@V?$allocator@V?$basic_string@DU?$char_traits@D@std@@V?$allocator@D@2@@std@@@2@@1@$$QAV?$basic_string@DU?$char_traits@D@std@@V?$allocator@D@2@@1@@Z
	DD	2 DUP(00H)
	DD	2 DUP(00H)
	DD	00H
	DD	01H
xdata$x	ENDS
;	COMDAT xdata$x
xdata$x	SEGMENT
__catchsym$?_Reallocate_exactly@?$vector@USTerrainTexture@@V?$allocator@USTerrainTexture@@@std@@@std@@AAEXI@Z$2 DD 040H
	DD	00H
	DD	00H
	DD	FLAT:__catch$?_Reallocate_exactly@?$vector@USTerrainTexture@@V?$allocator@USTerrainTexture@@@std@@@std@@AAEXI@Z$0
__unwindtable$?_Reallocate_exactly@?$vector@USTerrainTexture@@V?$allocator@USTerrainTexture@@@std@@@std@@AAEXI@Z DD 0ffffffffH
	DD	00H
	DD	0ffffffffH
	DD	00H
__tryblocktable$?_Reallocate_exactly@?$vector@USTerrainTexture@@V?$allocator@USTerrainTexture@@@std@@@std@@AAEXI@Z DD 00H
	DD	00H
	DD	01H
	DD	01H
	DD	FLAT:__catchsym$?_Reallocate_exactly@?$vector@USTerrainTexture@@V?$allocator@USTerrainTexture@@@std@@@std@@AAEXI@Z$2
__ehfuncinfo$?_Reallocate_exactly@?$vector@USTerrainTexture@@V?$allocator@USTerrainTexture@@@std@@@std@@AAEXI@Z DD 019930522H
	DD	02H
	DD	FLAT:__unwindtable$?_Reallocate_exactly@?$vector@USTerrainTexture@@V?$allocator@USTerrainTexture@@@std@@@std@@AAEXI@Z
	DD	01H
	DD	FLAT:__tryblocktable$?_Reallocate_exactly@?$vector@USTerrainTexture@@V?$allocator@USTerrainTexture@@@std@@@std@@AAEXI@Z
	DD	2 DUP(00H)
	DD	00H
	DD	01H
xdata$x	ENDS
;	COMDAT xdata$x
xdata$x	SEGMENT
__unwindtable$?AddEmptyTexture@CTextureSet@@IAEXXZ DD 0ffffffffH
	DD	FLAT:__unwindfunclet$?AddEmptyTexture@CTextureSet@@IAEXXZ$0
__ehfuncinfo$?AddEmptyTexture@CTextureSet@@IAEXXZ DD 019930522H
	DD	01H
	DD	FLAT:__unwindtable$?AddEmptyTexture@CTextureSet@@IAEXXZ
	DD	2 DUP(00H)
	DD	2 DUP(00H)
	DD	00H
	DD	01H
xdata$x	ENDS
;	COMDAT xdata$x
xdata$x	SEGMENT
__ehfuncinfo$?Load@CTextureSet@@QAE_NPBDM@Z DD 019930522H
	DD	0dH
	DD	FLAT:__unwindtable$?Load@CTextureSet@@QAE_NPBDM@Z
	DD	2 DUP(00H)
	DD	2 DUP(00H)
	DD	00H
	DD	01H
__unwindtable$?Load@CTextureSet@@QAE_NPBDM@Z DD 0ffffffffH
	DD	FLAT:__unwindfunclet$?Load@CTextureSet@@QAE_NPBDM@Z$0
	DD	00H
	DD	FLAT:__unwindfunclet$?Load@CTextureSet@@QAE_NPBDM@Z$3
	DD	01H
	DD	FLAT:__unwindfunclet$?Load@CTextureSet@@QAE_NPBDM@Z$63
	DD	00H
	DD	FLAT:__unwindfunclet$?Load@CTextureSet@@QAE_NPBDM@Z$5
	DD	03H
	DD	FLAT:__unwindfunclet$?Load@CTextureSet@@QAE_NPBDM@Z$34
	DD	00H
	DD	FLAT:__unwindfunclet$?Load@CTextureSet@@QAE_NPBDM@Z$6
	DD	05H
	DD	FLAT:__unwindfunclet$?Load@CTextureSet@@QAE_NPBDM@Z$7
	DD	06H
	DD	FLAT:__unwindfunclet$?Load@CTextureSet@@QAE_NPBDM@Z$8
	DD	07H
	DD	FLAT:__unwindfunclet$?Load@CTextureSet@@QAE_NPBDM@Z$9
	DD	08H
	DD	FLAT:__unwindfunclet$?Load@CTextureSet@@QAE_NPBDM@Z$10
	DD	09H
	DD	FLAT:__unwindfunclet$?Load@CTextureSet@@QAE_NPBDM@Z$11
	DD	0aH
	DD	FLAT:__unwindfunclet$?Load@CTextureSet@@QAE_NPBDM@Z$12
	DD	0bH
	DD	FLAT:__unwindfunclet$?Load@CTextureSet@@QAE_NPBDM@Z$13
xdata$x	ENDS
;	COMDAT xdata$x
xdata$x	SEGMENT
__ehfuncinfo$??1CTextureSet@@UAE@XZ DD 019930522H
	DD	00H
	DD	00H
	DD	2 DUP(00H)
	DD	2 DUP(00H)
	DD	00H
	DD	05H
xdata$x	ENDS
;	COMDAT xdata$x
xdata$x	SEGMENT
__unwindtable$??0CTextureSet@@QAE@XZ DD 0ffffffffH
	DD	FLAT:__unwindfunclet$??0CTextureSet@@QAE@XZ$0
__ehfuncinfo$??0CTextureSet@@QAE@XZ DD 019930522H
	DD	01H
	DD	FLAT:__unwindtable$??0CTextureSet@@QAE@XZ
	DD	2 DUP(00H)
	DD	2 DUP(00H)
	DD	00H
	DD	01H
xdata$x	ENDS
;	COMDAT xdata$x
xdata$x	SEGMENT
__unwindtable$??0STerrainTexture@@QAE@ABU0@@Z DD 0ffffffffH
	DD	FLAT:__unwindfunclet$??0STerrainTexture@@QAE@ABU0@@Z$0
__ehfuncinfo$??0STerrainTexture@@QAE@ABU0@@Z DD 019930522H
	DD	01H
	DD	FLAT:__unwindtable$??0STerrainTexture@@QAE@ABU0@@Z
	DD	2 DUP(00H)
	DD	2 DUP(00H)
	DD	00H
	DD	01H
xdata$x	ENDS
;	COMDAT xdata$x
xdata$x	SEGMENT
__unwindtable$??0STerrainTexture@@QAE@XZ DD 0ffffffffH
	DD	FLAT:__unwindfunclet$??0STerrainTexture@@QAE@XZ$0
__ehfuncinfo$??0STerrainTexture@@QAE@XZ DD 019930522H
	DD	01H
	DD	FLAT:__unwindtable$??0STerrainTexture@@QAE@XZ
	DD	2 DUP(00H)
	DD	2 DUP(00H)
	DD	00H
	DD	01H
xdata$x	ENDS
;	COMDAT xdata$x
xdata$x	SEGMENT
__ehfuncinfo$??1?$CRef@VCGraphicImage@@@@QAE@XZ DD 019930522H
	DD	00H
	DD	00H
	DD	2 DUP(00H)
	DD	2 DUP(00H)
	DD	00H
	DD	05H
xdata$x	ENDS
; Function compile flags: /Ogtp
; File C:\Program Files\Microsoft Visual Studio\2022\Community\VC\Tools\MSVC\14.34.31933\include\xmemory
;	COMDAT ??$_Uninitialized_move@PAUSTerrainTexture@@V?$allocator@USTerrainTexture@@@std@@@std@@YAPAUSTerrainTexture@@QAU1@0PAU1@AAV?$allocator@USTerrainTexture@@@0@@Z
_TEXT	SEGMENT
__Backout$ = -24					; size = 12
__$EHRec$ = -12						; size = 12
__First$ = 8						; size = 4
__Last$ = 12						; size = 4
__Dest$ = 16						; size = 4
__Al$ = 20						; size = 4
??$_Uninitialized_move@PAUSTerrainTexture@@V?$allocator@USTerrainTexture@@@std@@@std@@YAPAUSTerrainTexture@@QAU1@0PAU1@AAV?$allocator@USTerrainTexture@@@0@@Z PROC ; std::_Uninitialized_move<STerrainTexture *,std::allocator<STerrainTexture> >, COMDAT

; 1788 :     const _InIt _First, const _InIt _Last, _Alloc_ptr_t<_Alloc> _Dest, _Alloc& _Al) {

  00000	55		 push	 ebp
  00001	8b ec		 mov	 ebp, esp
  00003	6a ff		 push	 -1
  00005	68 00 00 00 00	 push	 __ehhandler$??$_Uninitialized_move@PAUSTerrainTexture@@V?$allocator@USTerrainTexture@@@std@@@std@@YAPAUSTerrainTexture@@QAU1@0PAU1@AAV?$allocator@USTerrainTexture@@@0@@Z
  0000a	64 a1 00 00 00
	00		 mov	 eax, DWORD PTR fs:0
  00010	50		 push	 eax
  00011	83 ec 0c	 sub	 esp, 12			; 0000000cH
  00014	53		 push	 ebx
  00015	56		 push	 esi
  00016	57		 push	 edi
  00017	a1 00 00 00 00	 mov	 eax, DWORD PTR ___security_cookie
  0001c	33 c5		 xor	 eax, ebp
  0001e	50		 push	 eax
  0001f	8d 45 f4	 lea	 eax, DWORD PTR __$EHRec$[ebp]
  00022	64 a3 00 00 00
	00		 mov	 DWORD PTR fs:0, eax

; 1652 :     _CONSTEXPR20 _Uninitialized_backout_al(pointer _Dest, _Alloc& _Al_) : _First(_Dest), _Last(_Dest), _Al(_Al_) {}

  00028	8b 7d 10	 mov	 edi, DWORD PTR __Dest$[ebp]
  0002b	8b 45 14	 mov	 eax, DWORD PTR __Al$[ebp]

; 1789 :     // move [_First, _Last) to raw _Dest, using _Al
; 1790 :     // note: only called internally from elsewhere in the STL
; 1791 :     using _Ptrval     = typename _Alloc::value_type*;
; 1792 :     auto _UFirst      = _Get_unwrapped(_First);

  0002e	8b 75 08	 mov	 esi, DWORD PTR __First$[ebp]

; 1652 :     _CONSTEXPR20 _Uninitialized_backout_al(pointer _Dest, _Alloc& _Al_) : _First(_Dest), _Last(_Dest), _Al(_Al_) {}

  00031	89 7d e8	 mov	 DWORD PTR __Backout$[ebp], edi
  00034	89 7d ec	 mov	 DWORD PTR __Backout$[ebp+4], edi
  00037	89 45 f0	 mov	 DWORD PTR __Backout$[ebp+8], eax

; 1793 :     const auto _ULast = _Get_unwrapped(_Last);
; 1794 :     if constexpr (conjunction_v<bool_constant<_Iter_move_cat<decltype(_UFirst), _Ptrval>::_Bitcopy_constructible>,
; 1795 :                       _Uses_default_construct<_Alloc, _Ptrval, decltype(_STD move(*_UFirst))>>) {
; 1796 : #if _HAS_CXX20
; 1797 :         if (!_STD is_constant_evaluated())
; 1798 : #endif // _HAS_CXX20
; 1799 :         {
; 1800 :             _Copy_memmove(_UFirst, _ULast, _Unfancy(_Dest));
; 1801 :             return _Dest + (_ULast - _UFirst);
; 1802 :         }
; 1803 :     }
; 1804 : 
; 1805 :     _Uninitialized_backout_al<_Alloc> _Backout{_Dest, _Al};
; 1806 :     for (; _UFirst != _ULast; ++_UFirst) {

  0003a	8b 5d 0c	 mov	 ebx, DWORD PTR __Last$[ebp]
  0003d	c7 45 fc 00 00
	00 00		 mov	 DWORD PTR __$EHRec$[ebp+8], 0
  00044	3b f3		 cmp	 esi, ebx
  00046	74 1e		 je	 SHORT $LN3@Uninitiali
$LL4@Uninitiali:

; 680  :             ::new (_Voidify_iter(_Ptr)) _Objty(_STD forward<_Types>(_Args)...);

  00048	56		 push	 esi
  00049	8b cf		 mov	 ecx, edi
  0004b	e8 00 00 00 00	 call	 ??0STerrainTexture@@QAE@ABU0@@Z

; 1664 :         ++_Last;

  00050	81 c7 9c 00 00
	00		 add	 edi, 156		; 0000009cH

; 1793 :     const auto _ULast = _Get_unwrapped(_Last);
; 1794 :     if constexpr (conjunction_v<bool_constant<_Iter_move_cat<decltype(_UFirst), _Ptrval>::_Bitcopy_constructible>,
; 1795 :                       _Uses_default_construct<_Alloc, _Ptrval, decltype(_STD move(*_UFirst))>>) {
; 1796 : #if _HAS_CXX20
; 1797 :         if (!_STD is_constant_evaluated())
; 1798 : #endif // _HAS_CXX20
; 1799 :         {
; 1800 :             _Copy_memmove(_UFirst, _ULast, _Unfancy(_Dest));
; 1801 :             return _Dest + (_ULast - _UFirst);
; 1802 :         }
; 1803 :     }
; 1804 : 
; 1805 :     _Uninitialized_backout_al<_Alloc> _Backout{_Dest, _Al};
; 1806 :     for (; _UFirst != _ULast; ++_UFirst) {

  00056	81 c6 9c 00 00
	00		 add	 esi, 156		; 0000009cH

; 1664 :         ++_Last;

  0005c	89 7d ec	 mov	 DWORD PTR __Backout$[ebp+4], edi

; 1793 :     const auto _ULast = _Get_unwrapped(_Last);
; 1794 :     if constexpr (conjunction_v<bool_constant<_Iter_move_cat<decltype(_UFirst), _Ptrval>::_Bitcopy_constructible>,
; 1795 :                       _Uses_default_construct<_Alloc, _Ptrval, decltype(_STD move(*_UFirst))>>) {
; 1796 : #if _HAS_CXX20
; 1797 :         if (!_STD is_constant_evaluated())
; 1798 : #endif // _HAS_CXX20
; 1799 :         {
; 1800 :             _Copy_memmove(_UFirst, _ULast, _Unfancy(_Dest));
; 1801 :             return _Dest + (_ULast - _UFirst);
; 1802 :         }
; 1803 :     }
; 1804 : 
; 1805 :     _Uninitialized_backout_al<_Alloc> _Backout{_Dest, _Al};
; 1806 :     for (; _UFirst != _ULast; ++_UFirst) {

  0005f	3b f3		 cmp	 esi, ebx
  00061	75 e5		 jne	 SHORT $LL4@Uninitiali
  00063	8b 45 14	 mov	 eax, DWORD PTR __Al$[ebp]
$LN3@Uninitiali:

; 1658 :         _Destroy_range(_First, _Last, _Al);

  00066	50		 push	 eax
  00067	57		 push	 edi
  00068	57		 push	 edi
  00069	e8 00 00 00 00	 call	 ??$_Destroy_range@V?$allocator@USTerrainTexture@@@std@@@std@@YAXPAUSTerrainTexture@@QAU1@AAV?$allocator@USTerrainTexture@@@0@@Z ; std::_Destroy_range<std::allocator<STerrainTexture> >
  0006e	83 c4 0c	 add	 esp, 12			; 0000000cH

; 1807 :         _Backout._Emplace_back(_STD move(*_UFirst));
; 1808 :     }
; 1809 : 
; 1810 :     return _Backout._Release();

  00071	8b c7		 mov	 eax, edi

; 1811 : }

  00073	8b 4d f4	 mov	 ecx, DWORD PTR __$EHRec$[ebp]
  00076	64 89 0d 00 00
	00 00		 mov	 DWORD PTR fs:0, ecx
  0007d	59		 pop	 ecx
  0007e	5f		 pop	 edi
  0007f	5e		 pop	 esi
  00080	5b		 pop	 ebx
  00081	8b e5		 mov	 esp, ebp
  00083	5d		 pop	 ebp
  00084	c3		 ret	 0
_TEXT	ENDS
;	COMDAT text$x
text$x	SEGMENT
__unwindfunclet$??$_Uninitialized_move@PAUSTerrainTexture@@V?$allocator@USTerrainTexture@@@std@@@std@@YAPAUSTerrainTexture@@QAU1@0PAU1@AAV?$allocator@USTerrainTexture@@@0@@Z$0:
  00000	8d 4d e8	 lea	 ecx, DWORD PTR __Backout$[ebp]
  00003	e9 00 00 00 00	 jmp	 ??1?$_Uninitialized_backout_al@V?$allocator@USTerrainTexture@@@std@@@std@@QAE@XZ ; std::_Uninitialized_backout_al<std::allocator<STerrainTexture> >::~_Uninitialized_backout_al<std::allocator<STerrainTexture> >
  00008	cc		 int	 3
  00009	cc		 int	 3
  0000a	cc		 int	 3
  0000b	cc		 int	 3
  0000c	cc		 int	 3
__ehhandler$??$_Uninitialized_move@PAUSTerrainTexture@@V?$allocator@USTerrainTexture@@@std@@@std@@YAPAUSTerrainTexture@@QAU1@0PAU1@AAV?$allocator@USTerrainTexture@@@0@@Z:
  0000d	90		 npad	 1
  0000e	90		 npad	 1
  0000f	8b 54 24 08	 mov	 edx, DWORD PTR [esp+8]
  00013	8d 42 0c	 lea	 eax, DWORD PTR [edx+12]
  00016	8b 4a e4	 mov	 ecx, DWORD PTR [edx-28]
  00019	33 c8		 xor	 ecx, eax
  0001b	e8 00 00 00 00	 call	 @__security_check_cookie@4
  00020	b8 00 00 00 00	 mov	 eax, OFFSET __ehfuncinfo$??$_Uninitialized_move@PAUSTerrainTexture@@V?$allocator@USTerrainTexture@@@std@@@std@@YAPAUSTerrainTexture@@QAU1@0PAU1@AAV?$allocator@USTerrainTexture@@@0@@Z
  00025	e9 00 00 00 00	 jmp	 ___CxxFrameHandler3
text$x	ENDS
??$_Uninitialized_move@PAUSTerrainTexture@@V?$allocator@USTerrainTexture@@@std@@@std@@YAPAUSTerrainTexture@@QAU1@0PAU1@AAV?$allocator@USTerrainTexture@@@0@@Z ENDP ; std::_Uninitialized_move<STerrainTexture *,std::allocator<STerrainTexture> >
; Function compile flags: /Ogtp
; File C:\Program Files\Microsoft Visual Studio\2022\Community\VC\Tools\MSVC\14.34.31933\include\xstring
;	COMDAT ??$?MDU?$char_traits@D@std@@V?$allocator@D@1@@std@@YA_NABV?$basic_string@DU?$char_traits@D@std@@V?$allocator@D@2@@0@0@Z
_TEXT	SEGMENT
__Left$ = 8						; size = 4
__Right$ = 12						; size = 4
??$?MDU?$char_traits@D@std@@V?$allocator@D@1@@std@@YA_NABV?$basic_string@DU?$char_traits@D@std@@V?$allocator@D@2@@0@0@Z PROC ; std::operator<<char,std::char_traits<char>,std::allocator<char> >, COMDAT

; 5234 :     const basic_string<_Elem, _Traits, _Alloc>& _Left, const basic_string<_Elem, _Traits, _Alloc>& _Right) noexcept {

  00000	55		 push	 ebp
  00001	8b ec		 mov	 ebp, esp

; 2292 :         const value_type* _Result = _Bx._Buf;

  00003	8b 45 0c	 mov	 eax, DWORD PTR __Right$[ebp]
  00006	8b d0		 mov	 edx, eax

; 2301 :         return _BUF_SIZE <= _Myres;

  00008	83 78 14 10	 cmp	 DWORD PTR [eax+20], 16	; 00000010H

; 2293 :         if (_Large_string_engaged()) {

  0000c	72 02		 jb	 SHORT $LN6@operator

; 2294 :             _Result = _Unfancy(_Bx._Ptr);

  0000e	8b 10		 mov	 edx, DWORD PTR [eax]
$LN6@operator:

; 2292 :         const value_type* _Result = _Bx._Buf;

  00010	8b 4d 08	 mov	 ecx, DWORD PTR __Left$[ebp]
  00013	56		 push	 esi
  00014	8b f1		 mov	 esi, ecx

; 2301 :         return _BUF_SIZE <= _Myres;

  00016	83 79 14 10	 cmp	 DWORD PTR [ecx+20], 16	; 00000010H

; 2293 :         if (_Large_string_engaged()) {

  0001a	72 02		 jb	 SHORT $LN11@operator

; 2294 :             _Result = _Unfancy(_Bx._Ptr);

  0001c	8b 31		 mov	 esi, DWORD PTR [ecx]
$LN11@operator:

; 4795 :         return _Traits_compare<_Traits>(_Mypair._Myval2._Myptr(), _Mypair._Myval2._Mysize,

  0001e	ff 70 10	 push	 DWORD PTR [eax+16]
  00021	52		 push	 edx
  00022	ff 71 10	 push	 DWORD PTR [ecx+16]
  00025	56		 push	 esi
  00026	e8 00 00 00 00	 call	 ??$_Traits_compare@U?$char_traits@D@std@@@std@@YAHQBDI0I@Z ; std::_Traits_compare<std::char_traits<char> >
  0002b	83 c4 10	 add	 esp, 16			; 00000010H

; 5235 :     return _Left.compare(_Right) < 0;

  0002e	c1 e8 1f	 shr	 eax, 31			; 0000001fH
  00031	5e		 pop	 esi

; 5236 : }

  00032	5d		 pop	 ebp
  00033	c3		 ret	 0
??$?MDU?$char_traits@D@std@@V?$allocator@D@1@@std@@YA_NABV?$basic_string@DU?$char_traits@D@std@@V?$allocator@D@2@@0@0@Z ENDP ; std::operator<<char,std::char_traits<char>,std::allocator<char> >
_TEXT	ENDS
; Function compile flags: /Ogtp
; File C:\Program Files\Microsoft Visual Studio\2022\Community\VC\Tools\MSVC\14.34.31933\include\xmemory
; File C:\Program Files\Microsoft Visual Studio\2022\Community\VC\Tools\MSVC\14.34.31933\include\xstring
; File C:\Program Files\Microsoft Visual Studio\2022\Community\VC\Tools\MSVC\14.34.31933\include\xmemory
; File C:\Program Files\Microsoft Visual Studio\2022\Community\VC\Tools\MSVC\14.34.31933\include\xstring
; File C:\Program Files\Microsoft Visual Studio\2022\Community\VC\Tools\MSVC\14.34.31933\include\xmemory
; File C:\Program Files\Microsoft Visual Studio\2022\Community\VC\Tools\MSVC\14.34.31933\include\xstring
; File C:\Program Files\Microsoft Visual Studio\2022\Community\VC\Tools\MSVC\14.34.31933\include\xmemory
;	COMDAT ??$destroy@U?$pair@$$CBV?$basic_string@DU?$char_traits@D@std@@V?$allocator@D@2@@std@@V?$vector@V?$basic_string@DU?$char_traits@D@std@@V?$allocator@D@2@@std@@V?$allocator@V?$basic_string@DU?$char_traits@D@std@@V?$allocator@D@2@@std@@@2@@2@@std@@@?$_Default_allocator_traits@V?$allocator@U?$_Tree_node@U?$pair@$$CBV?$basic_string@DU?$char_traits@D@std@@V?$allocator@D@2@@std@@V?$vector@V?$basic_string@DU?$char_traits@D@std@@V?$allocator@D@2@@std@@V?$allocator@V?$basic_string@DU?$char_traits@D@std@@V?$allocator@D@2@@std@@@2@@2@@std@@PAX@std@@@std@@@std@@SAXAAV?$allocator@U?$_Tree_node@U?$pair@$$CBV?$basic_string@DU?$char_traits@D@std@@V?$allocator@D@2@@std@@V?$vector@V?$basic_string@DU?$char_traits@D@std@@V?$allocator@D@2@@std@@V?$allocator@V?$basic_string@DU?$char_traits@D@std@@V?$allocator@D@2@@std@@@2@@2@@std@@PAX@std@@@1@QAU?$pair@$$CBV?$basic_string@DU?$char_traits@D@std@@V?$allocator@D@2@@std@@V?$vector@V?$basic_string@DU?$char_traits@D@std@@V?$allocator@D@2@@std@@V?$allocator@V?$basic_string@DU?$char_traits@D@std@@V?$allocator@D@2@@std@@@2@@2@@1@@Z
_TEXT	SEGMENT
___formal$ = 8						; size = 4
__Ptr$ = 12						; size = 4
??$destroy@U?$pair@$$CBV?$basic_string@DU?$char_traits@D@std@@V?$allocator@D@2@@std@@V?$vector@V?$basic_string@DU?$char_traits@D@std@@V?$allocator@D@2@@std@@V?$allocator@V?$basic_string@DU?$char_traits@D@std@@V?$allocator@D@2@@std@@@2@@2@@std@@@?$_Default_allocator_traits@V?$allocator@U?$_Tree_node@U?$pair@$$CBV?$basic_string@DU?$char_traits@D@std@@V?$allocator@D@2@@std@@V?$vector@V?$basic_string@DU?$char_traits@D@std@@V?$allocator@D@2@@std@@V?$allocator@V?$basic_string@DU?$char_traits@D@std@@V?$allocator@D@2@@std@@@2@@2@@std@@PAX@std@@@std@@@std@@SAXAAV?$allocator@U?$_Tree_node@U?$pair@$$CBV?$basic_string@DU?$char_traits@D@std@@V?$allocator@D@2@@std@@V?$vector@V?$basic_string@DU?$char_traits@D@std@@V?$allocator@D@2@@std@@V?$allocator@V?$basic_string@DU?$char_traits@D@std@@V?$allocator@D@2@@std@@@2@@2@@std@@PAX@std@@@1@QAU?$pair@$$CBV?$basic_string@DU?$char_traits@D@std@@V?$allocator@D@2@@std@@V?$vector@V?$basic_string@DU?$char_traits@D@std@@V?$allocator@D@2@@std@@V?$allocator@V?$basic_string@DU?$char_traits@D@std@@V?$allocator@D@2@@std@@@2@@2@@1@@Z PROC ; std::_Default_allocator_traits<std::allocator<std::_Tree_node<std::pair<std::basic_string<char,std::char_traits<char>,std::allocator<char> > const ,std::vector<std::basic_string<char,std::char_traits<char>,std::allocator<char> >,std::allocator<std::basic_string<char,std::char_traits<char>,std::allocator<char> > > > >,void *> > >::destroy<std::pair<std::basic_string<char,std::char_traits<char>,std::allocator<char> > const ,std::vector<std::basic_string<char,std::char_traits<char>,std::allocator<char> >,std::allocator<std::basic_string<char,std::char_traits<char>,std::allocator<char> > > > > >, COMDAT

; 685  :     static _CONSTEXPR20 void destroy(_Alloc&, _Uty* const _Ptr) {

  00000	55		 push	 ebp
  00001	8b ec		 mov	 ebp, esp
  00003	56		 push	 esi
  00004	8b 75 0c	 mov	 esi, DWORD PTR __Ptr$[ebp]
  00007	8d 4e 18	 lea	 ecx, DWORD PTR [esi+24]
  0000a	e8 00 00 00 00	 call	 ??1?$vector@V?$basic_string@DU?$char_traits@D@std@@V?$allocator@D@2@@std@@V?$allocator@V?$basic_string@DU?$char_traits@D@std@@V?$allocator@D@2@@std@@@2@@std@@QAE@XZ ; std::vector<std::basic_string<char,std::char_traits<char>,std::allocator<char> >,std::allocator<std::basic_string<char,std::char_traits<char>,std::allocator<char> > > >::~vector<std::basic_string<char,std::char_traits<char>,std::allocator<char> >,std::allocator<std::basic_string<char,std::char_traits<char>,std::allocator<char> > > >
; File C:\Program Files\Microsoft Visual Studio\2022\Community\VC\Tools\MSVC\14.34.31933\include\xstring

; 2301 :         return _BUF_SIZE <= _Myres;

  0000f	8b 4e 14	 mov	 ecx, DWORD PTR [esi+20]
  00012	83 f9 10	 cmp	 ecx, 16			; 00000010H

; 5011 :         if (_My_data._Large_string_engaged()) {

  00015	72 27		 jb	 SHORT $LN21@destroy
; File C:\Program Files\Microsoft Visual Studio\2022\Community\VC\Tools\MSVC\14.34.31933\include\xmemory

; 830  :         _Deallocate<_New_alignof<_Ty>>(_Ptr, sizeof(_Ty) * _Count);

  00017	8b 06		 mov	 eax, DWORD PTR [esi]
; File C:\Program Files\Microsoft Visual Studio\2022\Community\VC\Tools\MSVC\14.34.31933\include\xstring

; 5016 :             _Al.deallocate(_Ptr, _My_data._Myres + 1);

  00019	41		 inc	 ecx
; File C:\Program Files\Microsoft Visual Studio\2022\Community\VC\Tools\MSVC\14.34.31933\include\xmemory

; 251  :         if (_Bytes >= _Big_allocation_threshold) { // boost the alignment of big allocations to help autovectorization

  0001a	81 f9 00 10 00
	00		 cmp	 ecx, 4096		; 00001000H
  00020	72 12		 jb	 SHORT $LN31@destroy

; 150  :     const uintptr_t _Ptr_container   = _Ptr_user[-1];

  00022	8b 50 fc	 mov	 edx, DWORD PTR [eax-4]
  00025	83 c1 23	 add	 ecx, 35			; 00000023H

; 151  : 
; 152  :     // If the following asserts, it likely means that we are performing
; 153  :     // an aligned delete on memory coming from an unaligned allocation.
; 154  :     _STL_ASSERT(_Ptr_user[-2] == _Big_allocation_sentinel, "invalid argument");
; 155  : 
; 156  :     // Extra paranoia on aligned allocation/deallocation; ensure _Ptr_container is
; 157  :     // in range [_Min_back_shift, _Non_user_size]
; 158  : #ifdef _DEBUG
; 159  :     constexpr uintptr_t _Min_back_shift = 2 * sizeof(void*);
; 160  : #else // ^^^ _DEBUG ^^^ // vvv !_DEBUG vvv
; 161  :     constexpr uintptr_t _Min_back_shift = sizeof(void*);
; 162  : #endif // _DEBUG
; 163  :     const uintptr_t _Back_shift = reinterpret_cast<uintptr_t>(_Ptr) - _Ptr_container;

  00028	2b c2		 sub	 eax, edx

; 164  :     _STL_VERIFY(_Back_shift >= _Min_back_shift && _Back_shift <= _Non_user_size, "invalid argument");

  0002a	83 c0 fc	 add	 eax, -4			; fffffffcH
  0002d	83 f8 1f	 cmp	 eax, 31			; 0000001fH
  00030	77 20		 ja	 SHORT $LN28@destroy

; 165  :     _Ptr = reinterpret_cast<void*>(_Ptr_container);

  00032	8b c2		 mov	 eax, edx
$LN31@destroy:

; 255  :         ::operator delete(_Ptr, _Bytes);

  00034	51		 push	 ecx
  00035	50		 push	 eax
  00036	e8 00 00 00 00	 call	 ??3@YAXPAXI@Z		; operator delete
  0003b	83 c4 08	 add	 esp, 8
$LN21@destroy:
; File C:\Program Files\Microsoft Visual Studio\2022\Community\VC\Tools\MSVC\14.34.31933\include\xstring

; 5019 :         _My_data._Mysize = 0;

  0003e	c7 46 10 00 00
	00 00		 mov	 DWORD PTR [esi+16], 0

; 5020 :         _My_data._Myres  = _BUF_SIZE - 1;

  00045	c7 46 14 0f 00
	00 00		 mov	 DWORD PTR [esi+20], 15	; 0000000fH

; 5021 :         // the _Traits::assign is last so the codegen doesn't think the char write can alias this
; 5022 :         _Traits::assign(_My_data._Bx._Buf[0], _Elem());

  0004c	c6 06 00	 mov	 BYTE PTR [esi], 0
  0004f	5e		 pop	 esi
; File C:\Program Files\Microsoft Visual Studio\2022\Community\VC\Tools\MSVC\14.34.31933\include\xmemory

; 691  :     }

  00050	5d		 pop	 ebp
  00051	c3		 ret	 0
$LN28@destroy:

; 164  :     _STL_VERIFY(_Back_shift >= _Min_back_shift && _Back_shift <= _Non_user_size, "invalid argument");

  00052	e8 00 00 00 00	 call	 __invalid_parameter_noinfo_noreturn
$LN39@destroy:
  00057	cc		 int	 3
??$destroy@U?$pair@$$CBV?$basic_string@DU?$char_traits@D@std@@V?$allocator@D@2@@std@@V?$vector@V?$basic_string@DU?$char_traits@D@std@@V?$allocator@D@2@@std@@V?$allocator@V?$basic_string@DU?$char_traits@D@std@@V?$allocator@D@2@@std@@@2@@2@@std@@@?$_Default_allocator_traits@V?$allocator@U?$_Tree_node@U?$pair@$$CBV?$basic_string@DU?$char_traits@D@std@@V?$allocator@D@2@@std@@V?$vector@V?$basic_string@DU?$char_traits@D@std@@V?$allocator@D@2@@std@@V?$allocator@V?$basic_string@DU?$char_traits@D@std@@V?$allocator@D@2@@std@@@2@@2@@std@@PAX@std@@@std@@@std@@SAXAAV?$allocator@U?$_Tree_node@U?$pair@$$CBV?$basic_string@DU?$char_traits@D@std@@V?$allocator@D@2@@std@@V?$vector@V?$basic_string@DU?$char_traits@D@std@@V?$allocator@D@2@@std@@V?$allocator@V?$basic_string@DU?$char_traits@D@std@@V?$allocator@D@2@@std@@@2@@2@@std@@PAX@std@@@1@QAU?$pair@$$CBV?$basic_string@DU?$char_traits@D@std@@V?$allocator@D@2@@std@@V?$vector@V?$basic_string@DU?$char_traits@D@std@@V?$allocator@D@2@@std@@V?$allocator@V?$basic_string@DU?$char_traits@D@std@@V?$allocator@D@2@@std@@@2@@2@@1@@Z ENDP ; std::_Default_allocator_traits<std::allocator<std::_Tree_node<std::pair<std::basic_string<char,std::char_traits<char>,std::allocator<char> > const ,std::vector<std::basic_string<char,std::char_traits<char>,std::allocator<char> >,std::allocator<std::basic_string<char,std::char_traits<char>,std::allocator<char> > > > >,void *> > >::destroy<std::pair<std::basic_string<char,std::char_traits<char>,std::allocator<char> > const ,std::vector<std::basic_string<char,std::char_traits<char>,std::allocator<char> >,std::allocator<std::basic_string<char,std::char_traits<char>,std::allocator<char> > > > > >
_TEXT	ENDS
; Function compile flags: /Ogtp
; File C:\Program Files\Microsoft Visual Studio\2022\Community\VC\Tools\MSVC\14.34.31933\include\xmemory
;	COMDAT ??$_Allocate_manually_vector_aligned@U_Default_allocate_traits@std@@@std@@YAPAXI@Z
_TEXT	SEGMENT
__Bytes$ = 8						; size = 4
??$_Allocate_manually_vector_aligned@U_Default_allocate_traits@std@@@std@@YAPAXI@Z PROC ; std::_Allocate_manually_vector_aligned<std::_Default_allocate_traits>, COMDAT

; 127  : __declspec(allocator) void* _Allocate_manually_vector_aligned(const size_t _Bytes) {

  00000	55		 push	 ebp
  00001	8b ec		 mov	 ebp, esp

; 128  :     // allocate _Bytes manually aligned to at least _Big_allocation_alignment
; 129  :     const size_t _Block_size = _Non_user_size + _Bytes;

  00003	8b 45 08	 mov	 eax, DWORD PTR __Bytes$[ebp]
  00006	8d 48 23	 lea	 ecx, DWORD PTR [eax+35]

; 130  :     if (_Block_size <= _Bytes) {

  00009	3b c8		 cmp	 ecx, eax
  0000b	0f 86 00 00 00
	00		 jbe	 ?_Throw_bad_array_new_length@std@@YAXXZ ; std::_Throw_bad_array_new_length

; 77   :         return ::operator new(_Bytes);

  00011	51		 push	 ecx
  00012	e8 00 00 00 00	 call	 ??2@YAPAXI@Z		; operator new

; 131  :         _Throw_bad_array_new_length(); // add overflow
; 132  :     }
; 133  : 
; 134  :     const uintptr_t _Ptr_container = reinterpret_cast<uintptr_t>(_Traits::_Allocate(_Block_size));

  00017	8b c8		 mov	 ecx, eax

; 77   :         return ::operator new(_Bytes);

  00019	83 c4 04	 add	 esp, 4

; 135  :     _STL_VERIFY(_Ptr_container != 0, "invalid argument"); // validate even in release since we're doing p[-1]

  0001c	85 c9		 test	 ecx, ecx
  0001e	74 0b		 je	 SHORT $LN7@Allocate_m

; 136  :     void* const _Ptr = reinterpret_cast<void*>((_Ptr_container + _Non_user_size) & ~(_Big_allocation_alignment - 1));

  00020	8d 41 23	 lea	 eax, DWORD PTR [ecx+35]
  00023	83 e0 e0	 and	 eax, -32		; ffffffe0H

; 137  :     static_cast<uintptr_t*>(_Ptr)[-1] = _Ptr_container;

  00026	89 48 fc	 mov	 DWORD PTR [eax-4], ecx

; 138  : 
; 139  : #ifdef _DEBUG
; 140  :     static_cast<uintptr_t*>(_Ptr)[-2] = _Big_allocation_sentinel;
; 141  : #endif // _DEBUG
; 142  :     return _Ptr;
; 143  : }

  00029	5d		 pop	 ebp
  0002a	c3		 ret	 0
$LN7@Allocate_m:

; 135  :     _STL_VERIFY(_Ptr_container != 0, "invalid argument"); // validate even in release since we're doing p[-1]

  0002b	e9 00 00 00 00	 jmp	 __invalid_parameter_noinfo_noreturn
??$_Allocate_manually_vector_aligned@U_Default_allocate_traits@std@@@std@@YAPAXI@Z ENDP ; std::_Allocate_manually_vector_aligned<std::_Default_allocate_traits>
_TEXT	ENDS
; Function compile flags: /Ogtp
; File C:\Program Files\Microsoft Visual Studio\2022\Community\VC\Tools\MSVC\14.34.31933\include\xmemory
;	COMDAT ??1?$_Uninitialized_backout_al@V?$allocator@USTerrainTexture@@@std@@@std@@QAE@XZ
_TEXT	SEGMENT
??1?$_Uninitialized_backout_al@V?$allocator@USTerrainTexture@@@std@@@std@@QAE@XZ PROC ; std::_Uninitialized_backout_al<std::allocator<STerrainTexture> >::~_Uninitialized_backout_al<std::allocator<STerrainTexture> >, COMDAT
; _this$ = ecx

; 1658 :         _Destroy_range(_First, _Last, _Al);

  00000	ff 71 08	 push	 DWORD PTR [ecx+8]
  00003	ff 71 04	 push	 DWORD PTR [ecx+4]
  00006	ff 31		 push	 DWORD PTR [ecx]
  00008	e8 00 00 00 00	 call	 ??$_Destroy_range@V?$allocator@USTerrainTexture@@@std@@@std@@YAXPAUSTerrainTexture@@QAU1@AAV?$allocator@USTerrainTexture@@@0@@Z ; std::_Destroy_range<std::allocator<STerrainTexture> >
  0000d	83 c4 0c	 add	 esp, 12			; 0000000cH

; 1659 :     }

  00010	c3		 ret	 0
??1?$_Uninitialized_backout_al@V?$allocator@USTerrainTexture@@@std@@@std@@QAE@XZ ENDP ; std::_Uninitialized_backout_al<std::allocator<STerrainTexture> >::~_Uninitialized_backout_al<std::allocator<STerrainTexture> >
_TEXT	ENDS
; Function compile flags: /Ogtp
; File C:\Program Files\Microsoft Visual Studio\2022\Community\VC\Tools\MSVC\14.34.31933\include\vector
; File C:\Program Files\Microsoft Visual Studio\2022\Community\VC\Tools\MSVC\14.34.31933\include\xmemory
; File C:\Program Files\Microsoft Visual Studio\2022\Community\VC\Tools\MSVC\14.34.31933\include\vector
; File C:\Program Files\Microsoft Visual Studio\2022\Community\VC\Tools\MSVC\14.34.31933\include\xmemory
; File C:\Program Files\Microsoft Visual Studio\2022\Community\VC\Tools\MSVC\14.34.31933\include\vector
; File C:\Program Files\Microsoft Visual Studio\2022\Community\VC\Tools\MSVC\14.34.31933\include\xmemory
; File C:\Program Files\Microsoft Visual Studio\2022\Community\VC\Tools\MSVC\14.34.31933\include\vector
; File C:\Program Files\Microsoft Visual Studio\2022\Community\VC\Tools\MSVC\14.34.31933\include\xmemory
; File C:\Program Files\Microsoft Visual Studio\2022\Community\VC\Tools\MSVC\14.34.31933\include\vector
; File C:\Program Files\Microsoft Visual Studio\2022\Community\VC\Tools\MSVC\14.34.31933\include\xmemory
; File C:\Program Files\Microsoft Visual Studio\2022\Community\VC\Tools\MSVC\14.34.31933\include\vector
; File C:\Program Files\Microsoft Visual Studio\2022\Community\VC\Tools\MSVC\14.34.31933\include\xmemory
; File C:\Program Files\Microsoft Visual Studio\2022\Community\VC\Tools\MSVC\14.34.31933\include\vector
;	COMDAT ??$_Emplace_reallocate@ABUSTerrainTexture@@@?$vector@USTerrainTexture@@V?$allocator@USTerrainTexture@@@std@@@std@@AAEPAUSTerrainTexture@@QAU2@ABU2@@Z
_TEXT	SEGMENT
_this$ = -44						; size = 4
__Oldsize$1$ = -40					; size = 4
__Whereoff$1$ = -36					; size = 4
__Constructed_last$ = -36				; size = 4
tv303 = -32						; size = 4
$T2 = -28						; size = 4
__Constructed_first$ = -24				; size = 4
__Newcapacity$ = -20					; size = 4
__$EHRec$ = -16						; size = 16
__Whereptr$ = 8						; size = 4
_<_Val_0>$ = 12						; size = 4
??$_Emplace_reallocate@ABUSTerrainTexture@@@?$vector@USTerrainTexture@@V?$allocator@USTerrainTexture@@@std@@@std@@AAEPAUSTerrainTexture@@QAU2@ABU2@@Z PROC ; std::vector<STerrainTexture,std::allocator<STerrainTexture> >::_Emplace_reallocate<STerrainTexture const &>, COMDAT
; _this$ = ecx

; 875  :     _CONSTEXPR20 pointer _Emplace_reallocate(const pointer _Whereptr, _Valty&&... _Val) {

  00000	55		 push	 ebp
  00001	8b ec		 mov	 ebp, esp
  00003	6a ff		 push	 -1
  00005	68 00 00 00 00	 push	 __ehhandler$??$_Emplace_reallocate@ABUSTerrainTexture@@@?$vector@USTerrainTexture@@V?$allocator@USTerrainTexture@@@std@@@std@@AAEPAUSTerrainTexture@@QAU2@ABU2@@Z
  0000a	64 a1 00 00 00
	00		 mov	 eax, DWORD PTR fs:0
  00010	50		 push	 eax
  00011	83 ec 20	 sub	 esp, 32			; 00000020H
  00014	53		 push	 ebx
  00015	56		 push	 esi
  00016	57		 push	 edi
  00017	a1 00 00 00 00	 mov	 eax, DWORD PTR ___security_cookie
  0001c	33 c5		 xor	 eax, ebp
  0001e	50		 push	 eax
  0001f	8d 45 f4	 lea	 eax, DWORD PTR __$EHRec$[ebp+4]
  00022	64 a3 00 00 00
	00		 mov	 DWORD PTR fs:0, eax
  00028	89 65 f0	 mov	 DWORD PTR __$EHRec$[ebp], esp
  0002b	8b d9		 mov	 ebx, ecx
  0002d	89 5d d4	 mov	 DWORD PTR _this$[ebp], ebx

; 876  :         // reallocate and insert by perfectly forwarding _Val at _Whereptr
; 877  :         _Alty& _Al        = _Getal();
; 878  :         auto& _My_data    = _Mypair._Myval2;
; 879  :         pointer& _Myfirst = _My_data._Myfirst;
; 880  :         pointer& _Mylast  = _My_data._Mylast;
; 881  : 
; 882  :         _STL_INTERNAL_CHECK(_Mylast == _My_data._Myend); // check that we have no unused capacity
; 883  : 
; 884  :         const auto _Whereoff = static_cast<size_type>(_Whereptr - _Myfirst);

  00030	8b 75 08	 mov	 esi, DWORD PTR __Whereptr$[ebp]
  00033	b8 d3 20 0d d2	 mov	 eax, -770891565		; d20d20d3H
  00038	2b 33		 sub	 esi, DWORD PTR [ebx]

; 885  :         const auto _Oldsize  = static_cast<size_type>(_Mylast - _Myfirst);

  0003a	8b 4b 04	 mov	 ecx, DWORD PTR [ebx+4]
  0003d	2b 0b		 sub	 ecx, DWORD PTR [ebx]
  0003f	f7 ee		 imul	 esi
  00041	03 d6		 add	 edx, esi
  00043	c1 fa 07	 sar	 edx, 7
  00046	8b c2		 mov	 eax, edx
  00048	c1 e8 1f	 shr	 eax, 31			; 0000001fH
  0004b	03 c2		 add	 eax, edx
  0004d	89 45 dc	 mov	 DWORD PTR __Whereoff$1$[ebp], eax
  00050	b8 d3 20 0d d2	 mov	 eax, -770891565		; d20d20d3H
  00055	f7 e9		 imul	 ecx
  00057	03 d1		 add	 edx, ecx
  00059	c1 fa 07	 sar	 edx, 7
  0005c	8b c2		 mov	 eax, edx
  0005e	c1 e8 1f	 shr	 eax, 31			; 0000001fH
  00061	03 c2		 add	 eax, edx
  00063	89 45 d8	 mov	 DWORD PTR __Oldsize$1$[ebp], eax

; 886  : 
; 887  :         if (_Oldsize == max_size()) {

  00066	3d 41 1a a4 01	 cmp	 eax, 27531841		; 01a41a41H
  0006b	0f 84 42 01 00
	00		 je	 $LN40@Emplace_re

; 1942 :         return static_cast<size_type>(_My_data._Myend - _My_data._Myfirst);

  00071	8b 4b 08	 mov	 ecx, DWORD PTR [ebx+8]

; 889  :         }
; 890  : 
; 891  :         const size_type _Newsize     = _Oldsize + 1;

  00074	8d 78 01	 lea	 edi, DWORD PTR [eax+1]

; 1942 :         return static_cast<size_type>(_My_data._Myend - _My_data._Myfirst);

  00077	2b 0b		 sub	 ecx, DWORD PTR [ebx]
  00079	b8 d3 20 0d d2	 mov	 eax, -770891565		; d20d20d3H
  0007e	f7 e9		 imul	 ecx

; 2029 :         if (_Oldcapacity > _Max - _Oldcapacity / 2) {

  00080	b8 41 1a a4 01	 mov	 eax, 27531841		; 01a41a41H

; 1942 :         return static_cast<size_type>(_My_data._Myend - _My_data._Myfirst);

  00085	03 d1		 add	 edx, ecx
  00087	c1 fa 07	 sar	 edx, 7
  0008a	8b ca		 mov	 ecx, edx
  0008c	c1 e9 1f	 shr	 ecx, 31			; 0000001fH
  0008f	03 ca		 add	 ecx, edx

; 2029 :         if (_Oldcapacity > _Max - _Oldcapacity / 2) {

  00091	8b d1		 mov	 edx, ecx
  00093	d1 ea		 shr	 edx, 1
  00095	2b c2		 sub	 eax, edx
  00097	3b c8		 cmp	 ecx, eax
  00099	76 1a		 jbe	 SHORT $LN12@Emplace_re

; 2030 :             return _Max; // geometric growth would overflow

  0009b	b8 9c ff ff ff	 mov	 eax, -100		; ffffff9cH
  000a0	be 41 1a a4 01	 mov	 esi, 27531841		; 01a41a41H
; File C:\Program Files\Microsoft Visual Studio\2022\Community\VC\Tools\MSVC\14.34.31933\include\xmemory

; 229  :             return _Allocate_manually_vector_aligned<_Traits>(_Bytes);

  000a5	50		 push	 eax
; File C:\Program Files\Microsoft Visual Studio\2022\Community\VC\Tools\MSVC\14.34.31933\include\vector

; 2030 :             return _Max; // geometric growth would overflow

  000a6	89 75 ec	 mov	 DWORD PTR __Newcapacity$[ebp], esi
; File C:\Program Files\Microsoft Visual Studio\2022\Community\VC\Tools\MSVC\14.34.31933\include\xmemory

; 229  :             return _Allocate_manually_vector_aligned<_Traits>(_Bytes);

  000a9	e8 00 00 00 00	 call	 ??$_Allocate_manually_vector_aligned@U_Default_allocate_traits@std@@@std@@YAPAXI@Z ; std::_Allocate_manually_vector_aligned<std::_Default_allocate_traits>
  000ae	83 c4 04	 add	 esp, 4
  000b1	8b f8		 mov	 edi, eax
  000b3	eb 49		 jmp	 SHORT $LN36@Emplace_re
$LN12@Emplace_re:
; File C:\Program Files\Microsoft Visual Studio\2022\Community\VC\Tools\MSVC\14.34.31933\include\vector

; 2033 :         const size_type _Geometric = _Oldcapacity + _Oldcapacity / 2;

  000b5	8d 04 0a	 lea	 eax, DWORD PTR [edx+ecx]
; File C:\Program Files\Microsoft Visual Studio\2022\Community\VC\Tools\MSVC\14.34.31933\include\xmemory

; 60   :         if (_Count > _Max_possible) {

  000b8	8b f7		 mov	 esi, edi
  000ba	3b c7		 cmp	 eax, edi
  000bc	0f 43 f0	 cmovae	 esi, eax
  000bf	81 fe 41 1a a4
	01		 cmp	 esi, 27531841		; 01a41a41H
  000c5	0f 87 ed 00 00
	00		 ja	 $LN41@Emplace_re

; 62   :         }
; 63   :     }
; 64   : 
; 65   :     return _Count * _Ty_size;

  000cb	69 c6 9c 00 00
	00		 imul	 eax, esi, 156
  000d1	89 75 ec	 mov	 DWORD PTR __Newcapacity$[ebp], esi

; 228  :         if (_Bytes >= _Big_allocation_threshold) { // boost the alignment of big allocations to help autovectorization

  000d4	3d 00 10 00 00	 cmp	 eax, 4096		; 00001000H
  000d9	72 0d		 jb	 SHORT $LN24@Emplace_re

; 229  :             return _Allocate_manually_vector_aligned<_Traits>(_Bytes);

  000db	50		 push	 eax
  000dc	e8 00 00 00 00	 call	 ??$_Allocate_manually_vector_aligned@U_Default_allocate_traits@std@@@std@@YAPAXI@Z ; std::_Allocate_manually_vector_aligned<std::_Default_allocate_traits>
  000e1	83 c4 04	 add	 esp, 4
  000e4	8b f8		 mov	 edi, eax
  000e6	eb 16		 jmp	 SHORT $LN36@Emplace_re
$LN24@Emplace_re:

; 230  :         }
; 231  :     }
; 232  : #endif // defined(_M_IX86) || defined(_M_X64)
; 233  : 
; 234  :     if (_Bytes != 0) {

  000e8	85 c0		 test	 eax, eax
  000ea	74 0d		 je	 SHORT $LN25@Emplace_re

; 77   :         return ::operator new(_Bytes);

  000ec	50		 push	 eax
  000ed	e8 00 00 00 00	 call	 ??2@YAPAXI@Z		; operator new
  000f2	83 c4 04	 add	 esp, 4

; 235  :         return _Traits::_Allocate(_Bytes);

  000f5	8b f8		 mov	 edi, eax
  000f7	eb 02		 jmp	 SHORT $LN37@Emplace_re
$LN25@Emplace_re:

; 236  :     }
; 237  : 
; 238  :     return nullptr;

  000f9	33 ff		 xor	 edi, edi
$LN37@Emplace_re:
; File C:\Program Files\Microsoft Visual Studio\2022\Community\VC\Tools\MSVC\14.34.31933\include\vector

; 895  :         const pointer _Constructed_last = _Newvec + _Whereoff + 1;

  000fb	89 75 ec	 mov	 DWORD PTR __Newcapacity$[ebp], esi
$LN36@Emplace_re:
  000fe	69 45 dc 9c 00
	00 00		 imul	 eax, DWORD PTR __Whereoff$1$[ebp], 156
; File C:\Program Files\Microsoft Visual Studio\2022\Community\VC\Tools\MSVC\14.34.31933\include\xmemory

; 680  :             ::new (_Voidify_iter(_Ptr)) _Objty(_STD forward<_Types>(_Args)...);

  00105	ff 75 0c	 push	 DWORD PTR _<_Val_0>$[ebp]
; File C:\Program Files\Microsoft Visual Studio\2022\Community\VC\Tools\MSVC\14.34.31933\include\vector

; 895  :         const pointer _Constructed_last = _Newvec + _Whereoff + 1;

  00108	89 7d e4	 mov	 DWORD PTR $T2[ebp], edi

; 896  :         pointer _Constructed_first      = _Constructed_last;
; 897  : 
; 898  :         _TRY_BEGIN

  0010b	c7 45 fc 00 00
	00 00		 mov	 DWORD PTR __$EHRec$[ebp+12], 0
  00112	03 c7		 add	 eax, edi
  00114	89 45 e0	 mov	 DWORD PTR tv303[ebp], eax
  00117	8d 88 9c 00 00
	00		 lea	 ecx, DWORD PTR [eax+156]
  0011d	89 4d dc	 mov	 DWORD PTR __Constructed_last$[ebp], ecx
  00120	89 4d e8	 mov	 DWORD PTR __Constructed_first$[ebp], ecx
; File C:\Program Files\Microsoft Visual Studio\2022\Community\VC\Tools\MSVC\14.34.31933\include\xmemory

; 680  :             ::new (_Voidify_iter(_Ptr)) _Objty(_STD forward<_Types>(_Args)...);

  00123	8b c8		 mov	 ecx, eax
  00125	e8 00 00 00 00	 call	 ??0STerrainTexture@@QAE@ABU0@@Z
; File C:\Program Files\Microsoft Visual Studio\2022\Community\VC\Tools\MSVC\14.34.31933\include\vector

; 900  :         _Constructed_first = _Newvec + _Whereoff;

  0012a	8b 45 e0	 mov	 eax, DWORD PTR tv303[ebp]

; 901  : 
; 902  :         if (_Whereptr == _Mylast) { // at back, provide strong guarantee

  0012d	8b 4b 04	 mov	 ecx, DWORD PTR [ebx+4]
  00130	8b 55 08	 mov	 edx, DWORD PTR __Whereptr$[ebp]
  00133	89 45 e8	 mov	 DWORD PTR __Constructed_first$[ebp], eax
  00136	8b 03		 mov	 eax, DWORD PTR [ebx]
  00138	53		 push	 ebx
  00139	57		 push	 edi
  0013a	3b d1		 cmp	 edx, ecx
  0013c	75 09		 jne	 SHORT $LN4@Emplace_re

; 903  :             if constexpr (is_nothrow_move_constructible_v<_Ty> || !is_copy_constructible_v<_Ty>) {
; 904  :                 _Uninitialized_move(_Myfirst, _Mylast, _Newvec, _Al);
; 905  :             } else {
; 906  :                 _Uninitialized_copy(_Myfirst, _Mylast, _Newvec, _Al);

  0013e	51		 push	 ecx
  0013f	50		 push	 eax
  00140	e8 00 00 00 00	 call	 ??$_Uninitialized_copy@PAUSTerrainTexture@@PAU1@V?$allocator@USTerrainTexture@@@std@@@std@@YAPAUSTerrainTexture@@PAU1@00AAV?$allocator@USTerrainTexture@@@0@@Z ; std::_Uninitialized_copy<STerrainTexture *,STerrainTexture *,std::allocator<STerrainTexture> >

; 907  :             }
; 908  :         } else { // provide basic guarantee

  00145	eb 1c		 jmp	 SHORT $LN38@Emplace_re
$LN4@Emplace_re:

; 909  :             _Uninitialized_move(_Myfirst, _Whereptr, _Newvec, _Al);

  00147	52		 push	 edx
  00148	50		 push	 eax
  00149	e8 00 00 00 00	 call	 ??$_Uninitialized_move@PAUSTerrainTexture@@V?$allocator@USTerrainTexture@@@std@@@std@@YAPAUSTerrainTexture@@QAU1@0PAU1@AAV?$allocator@USTerrainTexture@@@0@@Z ; std::_Uninitialized_move<STerrainTexture *,std::allocator<STerrainTexture> >
  0014e	83 c4 10	 add	 esp, 16			; 00000010H

; 910  :             _Constructed_first = _Newvec;

  00151	89 7d e8	 mov	 DWORD PTR __Constructed_first$[ebp], edi

; 911  :             _Uninitialized_move(_Whereptr, _Mylast, _Newvec + _Whereoff + 1, _Al);

  00154	53		 push	 ebx
  00155	ff 75 dc	 push	 DWORD PTR __Constructed_last$[ebp]
  00158	ff 73 04	 push	 DWORD PTR [ebx+4]
  0015b	ff 75 08	 push	 DWORD PTR __Whereptr$[ebp]
  0015e	e8 00 00 00 00	 call	 ??$_Uninitialized_move@PAUSTerrainTexture@@V?$allocator@USTerrainTexture@@@std@@@std@@YAPAUSTerrainTexture@@QAU1@0PAU1@AAV?$allocator@USTerrainTexture@@@0@@Z ; std::_Uninitialized_move<STerrainTexture *,std::allocator<STerrainTexture> >
$LN38@Emplace_re:

; 917  :         _CATCH_END
; 918  : 
; 919  :         _Change_array(_Newvec, _Newsize, _Newcapacity);

  00163	8b 45 d8	 mov	 eax, DWORD PTR __Oldsize$1$[ebp]
  00166	83 c4 10	 add	 esp, 16			; 00000010H
  00169	40		 inc	 eax
  0016a	8b cb		 mov	 ecx, ebx
  0016c	56		 push	 esi
  0016d	50		 push	 eax
  0016e	57		 push	 edi
  0016f	e8 00 00 00 00	 call	 ?_Change_array@?$vector@USTerrainTexture@@V?$allocator@USTerrainTexture@@@std@@@std@@AAEXQAUSTerrainTexture@@II@Z ; std::vector<STerrainTexture,std::allocator<STerrainTexture> >::_Change_array

; 920  :         return _Newvec + _Whereoff;

  00174	8b 45 e0	 mov	 eax, DWORD PTR tv303[ebp]

; 921  :     }

  00177	8b 4d f4	 mov	 ecx, DWORD PTR __$EHRec$[ebp+4]
  0017a	64 89 0d 00 00
	00 00		 mov	 DWORD PTR fs:0, ecx
  00181	59		 pop	 ecx
  00182	5f		 pop	 edi
  00183	5e		 pop	 esi
  00184	5b		 pop	 ebx
  00185	8b e5		 mov	 esp, ebp
  00187	5d		 pop	 ebp
  00188	c2 08 00	 ret	 8
__catch$??$_Emplace_reallocate@ABUSTerrainTexture@@@?$vector@USTerrainTexture@@V?$allocator@USTerrainTexture@@@std@@@std@@AAEPAUSTerrainTexture@@QAU2@ABU2@@Z$0:

; 912  :         }
; 913  :         _CATCH_ALL
; 914  :         _Destroy_range(_Constructed_first, _Constructed_last, _Al);

  0018b	8b 75 d4	 mov	 esi, DWORD PTR _this$[ebp]
  0018e	56		 push	 esi
  0018f	ff 75 dc	 push	 DWORD PTR __Constructed_last$[ebp]
  00192	ff 75 e8	 push	 DWORD PTR __Constructed_first$[ebp]
  00195	e8 00 00 00 00	 call	 ??$_Destroy_range@V?$allocator@USTerrainTexture@@@std@@@std@@YAXPAUSTerrainTexture@@QAU1@AAV?$allocator@USTerrainTexture@@@0@@Z ; std::_Destroy_range<std::allocator<STerrainTexture> >
  0019a	83 c4 0c	 add	 esp, 12			; 0000000cH

; 915  :         _Al.deallocate(_Newvec, _Newcapacity);

  0019d	8b ce		 mov	 ecx, esi
  0019f	ff 75 ec	 push	 DWORD PTR __Newcapacity$[ebp]
  001a2	ff 75 e4	 push	 DWORD PTR $T2[ebp]
  001a5	e8 00 00 00 00	 call	 ?deallocate@?$allocator@USTerrainTexture@@@std@@QAEXQAUSTerrainTexture@@I@Z ; std::allocator<STerrainTexture>::deallocate

; 916  :         _RERAISE;

  001aa	6a 00		 push	 0
  001ac	6a 00		 push	 0
  001ae	e8 00 00 00 00	 call	 __CxxThrowException@8
$LN40@Emplace_re:

; 888  :             _Xlength();

  001b3	e8 00 00 00 00	 call	 ?_Xlength@?$vector@USTerrainTexture@@V?$allocator@USTerrainTexture@@@std@@@std@@CAXXZ ; std::vector<STerrainTexture,std::allocator<STerrainTexture> >::_Xlength
$LN41@Emplace_re:
; File C:\Program Files\Microsoft Visual Studio\2022\Community\VC\Tools\MSVC\14.34.31933\include\xmemory

; 61   :             _Throw_bad_array_new_length(); // multiply overflow

  001b8	e8 00 00 00 00	 call	 ?_Throw_bad_array_new_length@std@@YAXXZ ; std::_Throw_bad_array_new_length
$LN35@Emplace_re:
  001bd	cc		 int	 3
  001be	cc		 int	 3
  001bf	cc		 int	 3
  001c0	cc		 int	 3
  001c1	cc		 int	 3
  001c2	cc		 int	 3
_TEXT	ENDS
;	COMDAT text$x
text$x	SEGMENT
__ehhandler$??$_Emplace_reallocate@ABUSTerrainTexture@@@?$vector@USTerrainTexture@@V?$allocator@USTerrainTexture@@@std@@@std@@AAEPAUSTerrainTexture@@QAU2@ABU2@@Z:
  00000	90		 npad	 1
  00001	90		 npad	 1
  00002	8b 54 24 08	 mov	 edx, DWORD PTR [esp+8]
  00006	8d 42 0c	 lea	 eax, DWORD PTR [edx+12]
  00009	8b 4a d0	 mov	 ecx, DWORD PTR [edx-48]
  0000c	33 c8		 xor	 ecx, eax
  0000e	e8 00 00 00 00	 call	 @__security_check_cookie@4
  00013	b8 00 00 00 00	 mov	 eax, OFFSET __ehfuncinfo$??$_Emplace_reallocate@ABUSTerrainTexture@@@?$vector@USTerrainTexture@@V?$allocator@USTerrainTexture@@@std@@@std@@AAEPAUSTerrainTexture@@QAU2@ABU2@@Z
  00018	e9 00 00 00 00	 jmp	 ___CxxFrameHandler3
text$x	ENDS
??$_Emplace_reallocate@ABUSTerrainTexture@@@?$vector@USTerrainTexture@@V?$allocator@USTerrainTexture@@@std@@@std@@AAEPAUSTerrainTexture@@QAU2@ABU2@@Z ENDP ; std::vector<STerrainTexture,std::allocator<STerrainTexture> >::_Emplace_reallocate<STerrainTexture const &>
; Function compile flags: /Ogtp
; File C:\Program Files\Microsoft Visual Studio\2022\Community\VC\Tools\MSVC\14.34.31933\include\xmemory
;	COMDAT ??$_Uninitialized_value_construct_n@V?$allocator@USTerrainTexture@@@std@@@std@@YAPAUSTerrainTexture@@PAU1@IAAV?$allocator@USTerrainTexture@@@0@@Z
_TEXT	SEGMENT
__Backout$ = -24					; size = 12
__$EHRec$ = -12						; size = 12
__First$ = 8						; size = 4
__Count$ = 12						; size = 4
__Al$ = 16						; size = 4
??$_Uninitialized_value_construct_n@V?$allocator@USTerrainTexture@@@std@@@std@@YAPAUSTerrainTexture@@PAU1@IAAV?$allocator@USTerrainTexture@@@0@@Z PROC ; std::_Uninitialized_value_construct_n<std::allocator<STerrainTexture> >, COMDAT

; 1887 :     _Alloc_ptr_t<_Alloc> _First, _Alloc_size_t<_Alloc> _Count, _Alloc& _Al) {

  00000	55		 push	 ebp
  00001	8b ec		 mov	 ebp, esp
  00003	6a ff		 push	 -1
  00005	68 00 00 00 00	 push	 __ehhandler$??$_Uninitialized_value_construct_n@V?$allocator@USTerrainTexture@@@std@@@std@@YAPAUSTerrainTexture@@PAU1@IAAV?$allocator@USTerrainTexture@@@0@@Z
  0000a	64 a1 00 00 00
	00		 mov	 eax, DWORD PTR fs:0
  00010	50		 push	 eax
  00011	83 ec 0c	 sub	 esp, 12			; 0000000cH
  00014	53		 push	 ebx
  00015	56		 push	 esi
  00016	57		 push	 edi
  00017	a1 00 00 00 00	 mov	 eax, DWORD PTR ___security_cookie
  0001c	33 c5		 xor	 eax, ebp
  0001e	50		 push	 eax
  0001f	8d 45 f4	 lea	 eax, DWORD PTR __$EHRec$[ebp]
  00022	64 a3 00 00 00
	00		 mov	 DWORD PTR fs:0, eax

; 1652 :     _CONSTEXPR20 _Uninitialized_backout_al(pointer _Dest, _Alloc& _Al_) : _First(_Dest), _Last(_Dest), _Al(_Al_) {}

  00028	8b 7d 08	 mov	 edi, DWORD PTR __First$[ebp]
  0002b	8b 5d 10	 mov	 ebx, DWORD PTR __Al$[ebp]
  0002e	89 7d e8	 mov	 DWORD PTR __Backout$[ebp], edi
  00031	89 7d ec	 mov	 DWORD PTR __Backout$[ebp+4], edi
  00034	89 5d f0	 mov	 DWORD PTR __Backout$[ebp+8], ebx

; 1888 :     // value-initialize _Count objects to raw _First, using _Al
; 1889 :     using _Ptrty = typename _Alloc::value_type*;
; 1890 :     if constexpr (_Use_memset_value_construct_v<_Ptrty> && _Uses_default_construct<_Alloc, _Ptrty>::value) {
; 1891 : #if _HAS_CXX20
; 1892 :         if (!_STD is_constant_evaluated())
; 1893 : #endif // _HAS_CXX20
; 1894 :         {
; 1895 :             auto _PFirst = _Unfancy(_First);
; 1896 :             _Zero_range(_PFirst, _PFirst + _Count);
; 1897 :             return _First + _Count;
; 1898 :         }
; 1899 :     }
; 1900 : 
; 1901 :     _Uninitialized_backout_al<_Alloc> _Backout{_First, _Al};
; 1902 :     for (; 0 < _Count; --_Count) {

  00037	8b 75 0c	 mov	 esi, DWORD PTR __Count$[ebp]
  0003a	c7 45 fc 00 00
	00 00		 mov	 DWORD PTR __$EHRec$[ebp+8], 0
  00041	85 f6		 test	 esi, esi
  00043	74 15		 je	 SHORT $LN3@Uninitiali
$LL4@Uninitiali:

; 680  :             ::new (_Voidify_iter(_Ptr)) _Objty(_STD forward<_Types>(_Args)...);

  00045	8b cf		 mov	 ecx, edi
  00047	e8 00 00 00 00	 call	 ??0STerrainTexture@@QAE@XZ ; STerrainTexture::STerrainTexture

; 1664 :         ++_Last;

  0004c	81 c7 9c 00 00
	00		 add	 edi, 156		; 0000009cH
  00052	89 7d ec	 mov	 DWORD PTR __Backout$[ebp+4], edi

; 1888 :     // value-initialize _Count objects to raw _First, using _Al
; 1889 :     using _Ptrty = typename _Alloc::value_type*;
; 1890 :     if constexpr (_Use_memset_value_construct_v<_Ptrty> && _Uses_default_construct<_Alloc, _Ptrty>::value) {
; 1891 : #if _HAS_CXX20
; 1892 :         if (!_STD is_constant_evaluated())
; 1893 : #endif // _HAS_CXX20
; 1894 :         {
; 1895 :             auto _PFirst = _Unfancy(_First);
; 1896 :             _Zero_range(_PFirst, _PFirst + _Count);
; 1897 :             return _First + _Count;
; 1898 :         }
; 1899 :     }
; 1900 : 
; 1901 :     _Uninitialized_backout_al<_Alloc> _Backout{_First, _Al};
; 1902 :     for (; 0 < _Count; --_Count) {

  00055	83 ee 01	 sub	 esi, 1
  00058	75 eb		 jne	 SHORT $LL4@Uninitiali
$LN3@Uninitiali:

; 1658 :         _Destroy_range(_First, _Last, _Al);

  0005a	53		 push	 ebx
  0005b	57		 push	 edi
  0005c	57		 push	 edi
  0005d	e8 00 00 00 00	 call	 ??$_Destroy_range@V?$allocator@USTerrainTexture@@@std@@@std@@YAXPAUSTerrainTexture@@QAU1@AAV?$allocator@USTerrainTexture@@@0@@Z ; std::_Destroy_range<std::allocator<STerrainTexture> >
  00062	83 c4 0c	 add	 esp, 12			; 0000000cH

; 1903 :         _Backout._Emplace_back();
; 1904 :     }
; 1905 : 
; 1906 :     return _Backout._Release();

  00065	8b c7		 mov	 eax, edi

; 1907 : }

  00067	8b 4d f4	 mov	 ecx, DWORD PTR __$EHRec$[ebp]
  0006a	64 89 0d 00 00
	00 00		 mov	 DWORD PTR fs:0, ecx
  00071	59		 pop	 ecx
  00072	5f		 pop	 edi
  00073	5e		 pop	 esi
  00074	5b		 pop	 ebx
  00075	8b e5		 mov	 esp, ebp
  00077	5d		 pop	 ebp
  00078	c3		 ret	 0
_TEXT	ENDS
;	COMDAT text$x
text$x	SEGMENT
__unwindfunclet$??$_Uninitialized_value_construct_n@V?$allocator@USTerrainTexture@@@std@@@std@@YAPAUSTerrainTexture@@PAU1@IAAV?$allocator@USTerrainTexture@@@0@@Z$0:
  00000	8d 4d e8	 lea	 ecx, DWORD PTR __Backout$[ebp]
  00003	e9 00 00 00 00	 jmp	 ??1?$_Uninitialized_backout_al@V?$allocator@USTerrainTexture@@@std@@@std@@QAE@XZ ; std::_Uninitialized_backout_al<std::allocator<STerrainTexture> >::~_Uninitialized_backout_al<std::allocator<STerrainTexture> >
  00008	cc		 int	 3
  00009	cc		 int	 3
  0000a	cc		 int	 3
  0000b	cc		 int	 3
  0000c	cc		 int	 3
__ehhandler$??$_Uninitialized_value_construct_n@V?$allocator@USTerrainTexture@@@std@@@std@@YAPAUSTerrainTexture@@PAU1@IAAV?$allocator@USTerrainTexture@@@0@@Z:
  0000d	90		 npad	 1
  0000e	90		 npad	 1
  0000f	8b 54 24 08	 mov	 edx, DWORD PTR [esp+8]
  00013	8d 42 0c	 lea	 eax, DWORD PTR [edx+12]
  00016	8b 4a e4	 mov	 ecx, DWORD PTR [edx-28]
  00019	33 c8		 xor	 ecx, eax
  0001b	e8 00 00 00 00	 call	 @__security_check_cookie@4
  00020	b8 00 00 00 00	 mov	 eax, OFFSET __ehfuncinfo$??$_Uninitialized_value_construct_n@V?$allocator@USTerrainTexture@@@std@@@std@@YAPAUSTerrainTexture@@PAU1@IAAV?$allocator@USTerrainTexture@@@0@@Z
  00025	e9 00 00 00 00	 jmp	 ___CxxFrameHandler3
text$x	ENDS
??$_Uninitialized_value_construct_n@V?$allocator@USTerrainTexture@@@std@@@std@@YAPAUSTerrainTexture@@PAU1@IAAV?$allocator@USTerrainTexture@@@0@@Z ENDP ; std::_Uninitialized_value_construct_n<std::allocator<STerrainTexture> >
; Function compile flags: /Ogtp
; File C:\Program Files\Microsoft Visual Studio\2022\Community\VC\Tools\MSVC\14.34.31933\include\vector
; File C:\Program Files\Microsoft Visual Studio\2022\Community\VC\Tools\MSVC\14.34.31933\include\xmemory
; File C:\Program Files\Microsoft Visual Studio\2022\Community\VC\Tools\MSVC\14.34.31933\include\vector
; File C:\Program Files\Microsoft Visual Studio\2022\Community\VC\Tools\MSVC\14.34.31933\include\xmemory
; File C:\Program Files\Microsoft Visual Studio\2022\Community\VC\Tools\MSVC\14.34.31933\include\vector
; File C:\Program Files\Microsoft Visual Studio\2022\Community\VC\Tools\MSVC\14.34.31933\include\xmemory
; File C:\Program Files\Microsoft Visual Studio\2022\Community\VC\Tools\MSVC\14.34.31933\include\vector
; File C:\Program Files\Microsoft Visual Studio\2022\Community\VC\Tools\MSVC\14.34.31933\include\xmemory
; File C:\Program Files\Microsoft Visual Studio\2022\Community\VC\Tools\MSVC\14.34.31933\include\vector
; File C:\Program Files\Microsoft Visual Studio\2022\Community\VC\Tools\MSVC\14.34.31933\include\xmemory
; File C:\Program Files\Microsoft Visual Studio\2022\Community\VC\Tools\MSVC\14.34.31933\include\vector
;	COMDAT ??$_Resize_reallocate@U_Value_init_tag@std@@@?$vector@USTerrainTexture@@V?$allocator@USTerrainTexture@@@std@@@std@@AAEXIABU_Value_init_tag@1@@Z
_TEXT	SEGMENT
__Appended_first$ = -36					; size = 4
_this$ = -32						; size = 4
__Oldsize$1$ = -28					; size = 4
__Appended_last$ = -28					; size = 4
$T2 = -24						; size = 4
__Newcapacity$ = -20					; size = 4
__$EHRec$ = -16						; size = 16
__Newsize$ = 8						; size = 4
__Val$ = 12						; size = 4
??$_Resize_reallocate@U_Value_init_tag@std@@@?$vector@USTerrainTexture@@V?$allocator@USTerrainTexture@@@std@@@std@@AAEXIABU_Value_init_tag@1@@Z PROC ; std::vector<STerrainTexture,std::allocator<STerrainTexture> >::_Resize_reallocate<std::_Value_init_tag>, COMDAT
; _this$ = ecx

; 1574 :     _CONSTEXPR20 void _Resize_reallocate(const size_type _Newsize, const _Ty2& _Val) {

  00000	55		 push	 ebp
  00001	8b ec		 mov	 ebp, esp
  00003	6a ff		 push	 -1
  00005	68 00 00 00 00	 push	 __ehhandler$??$_Resize_reallocate@U_Value_init_tag@std@@@?$vector@USTerrainTexture@@V?$allocator@USTerrainTexture@@@std@@@std@@AAEXIABU_Value_init_tag@1@@Z
  0000a	64 a1 00 00 00
	00		 mov	 eax, DWORD PTR fs:0
  00010	50		 push	 eax
  00011	83 ec 18	 sub	 esp, 24			; 00000018H
  00014	53		 push	 ebx
  00015	56		 push	 esi
  00016	57		 push	 edi
  00017	a1 00 00 00 00	 mov	 eax, DWORD PTR ___security_cookie
  0001c	33 c5		 xor	 eax, ebp
  0001e	50		 push	 eax
  0001f	8d 45 f4	 lea	 eax, DWORD PTR __$EHRec$[ebp+4]
  00022	64 a3 00 00 00
	00		 mov	 DWORD PTR fs:0, eax
  00028	89 65 f0	 mov	 DWORD PTR __$EHRec$[ebp], esp
  0002b	8b d9		 mov	 ebx, ecx
  0002d	89 5d e0	 mov	 DWORD PTR _this$[ebp], ebx

; 1575 :         if (_Newsize > max_size()) {

  00030	8b 7d 08	 mov	 edi, DWORD PTR __Newsize$[ebp]
  00033	81 ff 41 1a a4
	01		 cmp	 edi, 27531841		; 01a41a41H
  00039	0f 87 2e 01 00
	00		 ja	 $LN33@Resize_rea

; 1577 :         }
; 1578 : 
; 1579 :         auto& _Al         = _Getal();
; 1580 :         auto& _My_data    = _Mypair._Myval2;
; 1581 :         pointer& _Myfirst = _My_data._Myfirst;
; 1582 :         pointer& _Mylast  = _My_data._Mylast;
; 1583 : 
; 1584 :         const auto _Oldsize          = static_cast<size_type>(_Mylast - _Myfirst);

  0003f	8b 4b 04	 mov	 ecx, DWORD PTR [ebx+4]
  00042	b8 d3 20 0d d2	 mov	 eax, -770891565		; d20d20d3H
  00047	2b 0b		 sub	 ecx, DWORD PTR [ebx]
  00049	f7 e9		 imul	 ecx
  0004b	03 d1		 add	 edx, ecx

; 1942 :         return static_cast<size_type>(_My_data._Myend - _My_data._Myfirst);

  0004d	8b 4b 08	 mov	 ecx, DWORD PTR [ebx+8]
  00050	2b 0b		 sub	 ecx, DWORD PTR [ebx]

; 1577 :         }
; 1578 : 
; 1579 :         auto& _Al         = _Getal();
; 1580 :         auto& _My_data    = _Mypair._Myval2;
; 1581 :         pointer& _Myfirst = _My_data._Myfirst;
; 1582 :         pointer& _Mylast  = _My_data._Mylast;
; 1583 : 
; 1584 :         const auto _Oldsize          = static_cast<size_type>(_Mylast - _Myfirst);

  00052	c1 fa 07	 sar	 edx, 7
  00055	8b c2		 mov	 eax, edx
  00057	c1 e8 1f	 shr	 eax, 31			; 0000001fH
  0005a	03 c2		 add	 eax, edx
  0005c	89 45 e4	 mov	 DWORD PTR __Oldsize$1$[ebp], eax

; 1942 :         return static_cast<size_type>(_My_data._Myend - _My_data._Myfirst);

  0005f	b8 d3 20 0d d2	 mov	 eax, -770891565		; d20d20d3H
  00064	f7 e9		 imul	 ecx

; 2029 :         if (_Oldcapacity > _Max - _Oldcapacity / 2) {

  00066	b8 41 1a a4 01	 mov	 eax, 27531841		; 01a41a41H

; 1942 :         return static_cast<size_type>(_My_data._Myend - _My_data._Myfirst);

  0006b	03 d1		 add	 edx, ecx
  0006d	c1 fa 07	 sar	 edx, 7
  00070	8b ca		 mov	 ecx, edx
  00072	c1 e9 1f	 shr	 ecx, 31			; 0000001fH
  00075	03 ca		 add	 ecx, edx

; 2029 :         if (_Oldcapacity > _Max - _Oldcapacity / 2) {

  00077	8b d1		 mov	 edx, ecx
  00079	d1 ea		 shr	 edx, 1
  0007b	2b c2		 sub	 eax, edx
  0007d	3b c8		 cmp	 ecx, eax
  0007f	76 1a		 jbe	 SHORT $LN10@Resize_rea

; 2030 :             return _Max; // geometric growth would overflow

  00081	b8 9c ff ff ff	 mov	 eax, -100		; ffffff9cH
  00086	be 41 1a a4 01	 mov	 esi, 27531841		; 01a41a41H
; File C:\Program Files\Microsoft Visual Studio\2022\Community\VC\Tools\MSVC\14.34.31933\include\xmemory

; 229  :             return _Allocate_manually_vector_aligned<_Traits>(_Bytes);

  0008b	50		 push	 eax
; File C:\Program Files\Microsoft Visual Studio\2022\Community\VC\Tools\MSVC\14.34.31933\include\vector

; 2030 :             return _Max; // geometric growth would overflow

  0008c	89 75 ec	 mov	 DWORD PTR __Newcapacity$[ebp], esi
; File C:\Program Files\Microsoft Visual Studio\2022\Community\VC\Tools\MSVC\14.34.31933\include\xmemory

; 229  :             return _Allocate_manually_vector_aligned<_Traits>(_Bytes);

  0008f	e8 00 00 00 00	 call	 ??$_Allocate_manually_vector_aligned@U_Default_allocate_traits@std@@@std@@YAPAXI@Z ; std::_Allocate_manually_vector_aligned<std::_Default_allocate_traits>
  00094	83 c4 04	 add	 esp, 4
  00097	8b f8		 mov	 edi, eax
  00099	eb 4d		 jmp	 SHORT $LN31@Resize_rea
$LN10@Resize_rea:
; File C:\Program Files\Microsoft Visual Studio\2022\Community\VC\Tools\MSVC\14.34.31933\include\vector

; 2033 :         const size_type _Geometric = _Oldcapacity + _Oldcapacity / 2;

  0009b	8d 34 0a	 lea	 esi, DWORD PTR [edx+ecx]

; 2034 : 
; 2035 :         if (_Geometric < _Newsize) {

  0009e	3b f7		 cmp	 esi, edi
  000a0	73 1f		 jae	 SHORT $LN11@Resize_rea

; 2036 :             return _Newsize; // geometric growth would be insufficient

  000a2	8b f7		 mov	 esi, edi
  000a4	89 75 ec	 mov	 DWORD PTR __Newcapacity$[ebp], esi
$LN18@Resize_rea:
; File C:\Program Files\Microsoft Visual Studio\2022\Community\VC\Tools\MSVC\14.34.31933\include\xmemory

; 65   :     return _Count * _Ty_size;

  000a7	69 c6 9c 00 00
	00		 imul	 eax, esi, 156

; 228  :         if (_Bytes >= _Big_allocation_threshold) { // boost the alignment of big allocations to help autovectorization

  000ad	3d 00 10 00 00	 cmp	 eax, 4096		; 00001000H
  000b2	72 1e		 jb	 SHORT $LN22@Resize_rea

; 229  :             return _Allocate_manually_vector_aligned<_Traits>(_Bytes);

  000b4	50		 push	 eax
  000b5	e8 00 00 00 00	 call	 ??$_Allocate_manually_vector_aligned@U_Default_allocate_traits@std@@@std@@YAPAXI@Z ; std::_Allocate_manually_vector_aligned<std::_Default_allocate_traits>
  000ba	83 c4 04	 add	 esp, 4
  000bd	8b f8		 mov	 edi, eax
  000bf	eb 27		 jmp	 SHORT $LN31@Resize_rea
$LN11@Resize_rea:
; File C:\Program Files\Microsoft Visual Studio\2022\Community\VC\Tools\MSVC\14.34.31933\include\vector

; 2039 :         return _Geometric; // geometric growth is sufficient

  000c1	89 75 ec	 mov	 DWORD PTR __Newcapacity$[ebp], esi
; File C:\Program Files\Microsoft Visual Studio\2022\Community\VC\Tools\MSVC\14.34.31933\include\xmemory

; 60   :         if (_Count > _Max_possible) {

  000c4	81 fe 41 1a a4
	01		 cmp	 esi, 27531841		; 01a41a41H
  000ca	0f 87 a2 00 00
	00		 ja	 $LN34@Resize_rea
  000d0	eb d5		 jmp	 SHORT $LN18@Resize_rea
$LN22@Resize_rea:

; 234  :     if (_Bytes != 0) {

  000d2	85 c0		 test	 eax, eax
  000d4	74 10		 je	 SHORT $LN23@Resize_rea

; 77   :         return ::operator new(_Bytes);

  000d6	50		 push	 eax
  000d7	e8 00 00 00 00	 call	 ??2@YAPAXI@Z		; operator new
  000dc	83 c4 04	 add	 esp, 4

; 235  :         return _Traits::_Allocate(_Bytes);

  000df	89 45 e8	 mov	 DWORD PTR $T2[ebp], eax
  000e2	8b f8		 mov	 edi, eax
  000e4	eb 05		 jmp	 SHORT $LN21@Resize_rea
$LN23@Resize_rea:

; 236  :     }
; 237  : 
; 238  :     return nullptr;

  000e6	33 ff		 xor	 edi, edi
$LN31@Resize_rea:
; File C:\Program Files\Microsoft Visual Studio\2022\Community\VC\Tools\MSVC\14.34.31933\include\vector

; 1588 :         const pointer _Appended_first = _Newvec + _Oldsize;

  000e8	89 7d e8	 mov	 DWORD PTR $T2[ebp], edi
$LN21@Resize_rea:
  000eb	8b 55 e4	 mov	 edx, DWORD PTR __Oldsize$1$[ebp]

; 1589 :         pointer _Appended_last        = _Appended_first;
; 1590 : 
; 1591 :         _TRY_BEGIN
; 1592 :         if constexpr (is_same_v<_Ty2, _Ty>) {
; 1593 :             _Appended_last = _Uninitialized_fill_n(_Appended_first, _Newsize - _Oldsize, _Val, _Al);
; 1594 :         } else {
; 1595 :             _STL_INTERNAL_STATIC_ASSERT(is_same_v<_Ty2, _Value_init_tag>);
; 1596 :             _Appended_last = _Uninitialized_value_construct_n(_Appended_first, _Newsize - _Oldsize, _Al);

  000ee	8b 45 08	 mov	 eax, DWORD PTR __Newsize$[ebp]
  000f1	69 ca 9c 00 00
	00		 imul	 ecx, edx, 156
  000f7	2b c2		 sub	 eax, edx
  000f9	53		 push	 ebx
  000fa	50		 push	 eax
  000fb	c7 45 fc 00 00
	00 00		 mov	 DWORD PTR __$EHRec$[ebp+12], 0
  00102	03 cf		 add	 ecx, edi
  00104	51		 push	 ecx
  00105	89 4d dc	 mov	 DWORD PTR __Appended_first$[ebp], ecx
  00108	89 4d e4	 mov	 DWORD PTR __Appended_last$[ebp], ecx
  0010b	e8 00 00 00 00	 call	 ??$_Uninitialized_value_construct_n@V?$allocator@USTerrainTexture@@@std@@@std@@YAPAUSTerrainTexture@@PAU1@IAAV?$allocator@USTerrainTexture@@@0@@Z ; std::_Uninitialized_value_construct_n<std::allocator<STerrainTexture> >
  00110	83 c4 0c	 add	 esp, 12			; 0000000cH
  00113	89 45 e4	 mov	 DWORD PTR __Appended_last$[ebp], eax

; 1597 :         }
; 1598 : 
; 1599 :         if constexpr (is_nothrow_move_constructible_v<_Ty> || !is_copy_constructible_v<_Ty>) {
; 1600 :             _Uninitialized_move(_Myfirst, _Mylast, _Newvec, _Al);
; 1601 :         } else {
; 1602 :             _Uninitialized_copy(_Myfirst, _Mylast, _Newvec, _Al);

  00116	53		 push	 ebx
  00117	57		 push	 edi
  00118	ff 73 04	 push	 DWORD PTR [ebx+4]
  0011b	ff 33		 push	 DWORD PTR [ebx]
  0011d	e8 00 00 00 00	 call	 ??$_Uninitialized_copy@PAUSTerrainTexture@@PAU1@V?$allocator@USTerrainTexture@@@std@@@std@@YAPAUSTerrainTexture@@PAU1@00AAV?$allocator@USTerrainTexture@@@0@@Z ; std::_Uninitialized_copy<STerrainTexture *,STerrainTexture *,std::allocator<STerrainTexture> >
  00122	83 c4 10	 add	 esp, 16			; 00000010H

; 1608 :         _CATCH_END
; 1609 : 
; 1610 :         _Change_array(_Newvec, _Newsize, _Newcapacity);

  00125	8b cb		 mov	 ecx, ebx
  00127	56		 push	 esi
  00128	ff 75 08	 push	 DWORD PTR __Newsize$[ebp]
  0012b	57		 push	 edi
  0012c	e8 00 00 00 00	 call	 ?_Change_array@?$vector@USTerrainTexture@@V?$allocator@USTerrainTexture@@@std@@@std@@AAEXQAUSTerrainTexture@@II@Z ; std::vector<STerrainTexture,std::allocator<STerrainTexture> >::_Change_array

; 1611 :     }

  00131	8b 4d f4	 mov	 ecx, DWORD PTR __$EHRec$[ebp+4]
  00134	64 89 0d 00 00
	00 00		 mov	 DWORD PTR fs:0, ecx
  0013b	59		 pop	 ecx
  0013c	5f		 pop	 edi
  0013d	5e		 pop	 esi
  0013e	5b		 pop	 ebx
  0013f	8b e5		 mov	 esp, ebp
  00141	5d		 pop	 ebp
  00142	c2 08 00	 ret	 8
__catch$??$_Resize_reallocate@U_Value_init_tag@std@@@?$vector@USTerrainTexture@@V?$allocator@USTerrainTexture@@@std@@@std@@AAEXIABU_Value_init_tag@1@@Z$0:

; 1603 :         }
; 1604 :         _CATCH_ALL
; 1605 :         _Destroy_range(_Appended_first, _Appended_last, _Al);

  00145	8b 75 e0	 mov	 esi, DWORD PTR _this$[ebp]
  00148	56		 push	 esi
  00149	ff 75 e4	 push	 DWORD PTR __Appended_last$[ebp]
  0014c	ff 75 dc	 push	 DWORD PTR __Appended_first$[ebp]
  0014f	e8 00 00 00 00	 call	 ??$_Destroy_range@V?$allocator@USTerrainTexture@@@std@@@std@@YAXPAUSTerrainTexture@@QAU1@AAV?$allocator@USTerrainTexture@@@0@@Z ; std::_Destroy_range<std::allocator<STerrainTexture> >
  00154	83 c4 0c	 add	 esp, 12			; 0000000cH

; 1606 :         _Al.deallocate(_Newvec, _Newcapacity);

  00157	8b ce		 mov	 ecx, esi
  00159	ff 75 ec	 push	 DWORD PTR __Newcapacity$[ebp]
  0015c	ff 75 e8	 push	 DWORD PTR $T2[ebp]
  0015f	e8 00 00 00 00	 call	 ?deallocate@?$allocator@USTerrainTexture@@@std@@QAEXQAUSTerrainTexture@@I@Z ; std::allocator<STerrainTexture>::deallocate

; 1607 :         _RERAISE;

  00164	6a 00		 push	 0
  00166	6a 00		 push	 0
  00168	e8 00 00 00 00	 call	 __CxxThrowException@8
$LN33@Resize_rea:

; 1576 :             _Xlength();

  0016d	e8 00 00 00 00	 call	 ?_Xlength@?$vector@USTerrainTexture@@V?$allocator@USTerrainTexture@@@std@@@std@@CAXXZ ; std::vector<STerrainTexture,std::allocator<STerrainTexture> >::_Xlength
$LN34@Resize_rea:
; File C:\Program Files\Microsoft Visual Studio\2022\Community\VC\Tools\MSVC\14.34.31933\include\xmemory

; 61   :             _Throw_bad_array_new_length(); // multiply overflow

  00172	e8 00 00 00 00	 call	 ?_Throw_bad_array_new_length@std@@YAXXZ ; std::_Throw_bad_array_new_length
$LN30@Resize_rea:
  00177	cc		 int	 3
  00178	cc		 int	 3
  00179	cc		 int	 3
  0017a	cc		 int	 3
  0017b	cc		 int	 3
  0017c	cc		 int	 3
_TEXT	ENDS
;	COMDAT text$x
text$x	SEGMENT
__ehhandler$??$_Resize_reallocate@U_Value_init_tag@std@@@?$vector@USTerrainTexture@@V?$allocator@USTerrainTexture@@@std@@@std@@AAEXIABU_Value_init_tag@1@@Z:
  00000	90		 npad	 1
  00001	90		 npad	 1
  00002	8b 54 24 08	 mov	 edx, DWORD PTR [esp+8]
  00006	8d 42 0c	 lea	 eax, DWORD PTR [edx+12]
  00009	8b 4a d8	 mov	 ecx, DWORD PTR [edx-40]
  0000c	33 c8		 xor	 ecx, eax
  0000e	e8 00 00 00 00	 call	 @__security_check_cookie@4
  00013	b8 00 00 00 00	 mov	 eax, OFFSET __ehfuncinfo$??$_Resize_reallocate@U_Value_init_tag@std@@@?$vector@USTerrainTexture@@V?$allocator@USTerrainTexture@@@std@@@std@@AAEXIABU_Value_init_tag@1@@Z
  00018	e9 00 00 00 00	 jmp	 ___CxxFrameHandler3
text$x	ENDS
??$_Resize_reallocate@U_Value_init_tag@std@@@?$vector@USTerrainTexture@@V?$allocator@USTerrainTexture@@@std@@@std@@AAEXIABU_Value_init_tag@1@@Z ENDP ; std::vector<STerrainTexture,std::allocator<STerrainTexture> >::_Resize_reallocate<std::_Value_init_tag>
; Function compile flags: /Ogtp
; File C:\Program Files\Microsoft Visual Studio\2022\Community\VC\Tools\MSVC\14.34.31933\include\xtree
; File C:\Program Files\Microsoft Visual Studio\2022\Community\VC\Tools\MSVC\14.34.31933\include\utility
; File C:\Program Files\Microsoft Visual Studio\2022\Community\VC\Tools\MSVC\14.34.31933\include\xtree
; File C:\Program Files\Microsoft Visual Studio\2022\Community\VC\Tools\MSVC\14.34.31933\include\xmemory
; File C:\Program Files\Microsoft Visual Studio\2022\Community\VC\Tools\MSVC\14.34.31933\include\xtree
; File C:\Program Files\Microsoft Visual Studio\2022\Community\VC\Tools\MSVC\14.34.31933\include\xmemory
; File C:\Program Files\Microsoft Visual Studio\2022\Community\VC\Tools\MSVC\14.34.31933\include\xtree
;	COMDAT ??$_Erase_tree@V?$allocator@U?$_Tree_node@U?$pair@$$CBV?$basic_string@DU?$char_traits@D@std@@V?$allocator@D@2@@std@@V?$vector@V?$basic_string@DU?$char_traits@D@std@@V?$allocator@D@2@@std@@V?$allocator@V?$basic_string@DU?$char_traits@D@std@@V?$allocator@D@2@@std@@@2@@2@@std@@PAX@std@@@std@@@?$_Tree_val@U?$_Tree_simple_types@U?$pair@$$CBV?$basic_string@DU?$char_traits@D@std@@V?$allocator@D@2@@std@@V?$vector@V?$basic_string@DU?$char_traits@D@std@@V?$allocator@D@2@@std@@V?$allocator@V?$basic_string@DU?$char_traits@D@std@@V?$allocator@D@2@@std@@@2@@2@@std@@@std@@@std@@QAEXAAV?$allocator@U?$_Tree_node@U?$pair@$$CBV?$basic_string@DU?$char_traits@D@std@@V?$allocator@D@2@@std@@V?$vector@V?$basic_string@DU?$char_traits@D@std@@V?$allocator@D@2@@std@@V?$allocator@V?$basic_string@DU?$char_traits@D@std@@V?$allocator@D@2@@std@@@2@@2@@std@@PAX@std@@@1@PAU?$_Tree_node@U?$pair@$$CBV?$basic_string@DU?$char_traits@D@std@@V?$allocator@D@2@@std@@V?$vector@V?$basic_string@DU?$char_traits@D@std@@V?$allocator@D@2@@std@@V?$allocator@V?$basic_string@DU?$char_traits@D@std@@V?$allocator@D@2@@std@@@2@@2@@std@@PAX@1@@Z
_TEXT	SEGMENT
_this$1$ = -4						; size = 4
__Al$ = 8						; size = 4
__Rootnode$ = 12					; size = 4
??$_Erase_tree@V?$allocator@U?$_Tree_node@U?$pair@$$CBV?$basic_string@DU?$char_traits@D@std@@V?$allocator@D@2@@std@@V?$vector@V?$basic_string@DU?$char_traits@D@std@@V?$allocator@D@2@@std@@V?$allocator@V?$basic_string@DU?$char_traits@D@std@@V?$allocator@D@2@@std@@@2@@2@@std@@PAX@std@@@std@@@?$_Tree_val@U?$_Tree_simple_types@U?$pair@$$CBV?$basic_string@DU?$char_traits@D@std@@V?$allocator@D@2@@std@@V?$vector@V?$basic_string@DU?$char_traits@D@std@@V?$allocator@D@2@@std@@V?$allocator@V?$basic_string@DU?$char_traits@D@std@@V?$allocator@D@2@@std@@@2@@2@@std@@@std@@@std@@QAEXAAV?$allocator@U?$_Tree_node@U?$pair@$$CBV?$basic_string@DU?$char_traits@D@std@@V?$allocator@D@2@@std@@V?$vector@V?$basic_string@DU?$char_traits@D@std@@V?$allocator@D@2@@std@@V?$allocator@V?$basic_string@DU?$char_traits@D@std@@V?$allocator@D@2@@std@@@2@@2@@std@@PAX@std@@@1@PAU?$_Tree_node@U?$pair@$$CBV?$basic_string@DU?$char_traits@D@std@@V?$allocator@D@2@@std@@V?$vector@V?$basic_string@DU?$char_traits@D@std@@V?$allocator@D@2@@std@@V?$allocator@V?$basic_string@DU?$char_traits@D@std@@V?$allocator@D@2@@std@@@2@@2@@std@@PAX@1@@Z PROC ; std::_Tree_val<std::_Tree_simple_types<std::pair<std::basic_string<char,std::char_traits<char>,std::allocator<char> > const ,std::vector<std::basic_string<char,std::char_traits<char>,std::allocator<char> >,std::allocator<std::basic_string<char,std::char_traits<char>,std::allocator<char> > > > > > >::_Erase_tree<std::allocator<std::_Tree_node<std::pair<std::basic_string<char,std::char_traits<char>,std::allocator<char> > const ,std::vector<std::basic_string<char,std::char_traits<char>,std::allocator<char> >,std::allocator<std::basic_string<char,std::char_traits<char>,std::allocator<char> > > > >,void *> > >, COMDAT
; _this$ = ecx

; 744  :     void _Erase_tree(_Alnode& _Al, _Nodeptr _Rootnode) noexcept {

  00000	55		 push	 ebp
  00001	8b ec		 mov	 ebp, esp
  00003	51		 push	 ecx
  00004	56		 push	 esi

; 745  :         while (!_Rootnode->_Isnil) { // free subtrees, then node

  00005	8b 75 0c	 mov	 esi, DWORD PTR __Rootnode$[ebp]
  00008	8b c1		 mov	 eax, ecx
  0000a	89 45 fc	 mov	 DWORD PTR _this$1$[ebp], eax
  0000d	80 7e 0d 00	 cmp	 BYTE PTR [esi+13], 0
  00011	75 34		 jne	 SHORT $LN3@Erase_tree
  00013	53		 push	 ebx
  00014	8b 5d 08	 mov	 ebx, DWORD PTR __Al$[ebp]
  00017	57		 push	 edi
$LL2@Erase_tree:

; 746  :             _Erase_tree(_Al, _Rootnode->_Right);

  00018	ff 76 08	 push	 DWORD PTR [esi+8]
  0001b	8b c8		 mov	 ecx, eax
  0001d	53		 push	 ebx
  0001e	e8 00 00 00 00	 call	 ??$_Erase_tree@V?$allocator@U?$_Tree_node@U?$pair@$$CBV?$basic_string@DU?$char_traits@D@std@@V?$allocator@D@2@@std@@V?$vector@V?$basic_string@DU?$char_traits@D@std@@V?$allocator@D@2@@std@@V?$allocator@V?$basic_string@DU?$char_traits@D@std@@V?$allocator@D@2@@std@@@2@@2@@std@@PAX@std@@@std@@@?$_Tree_val@U?$_Tree_simple_types@U?$pair@$$CBV?$basic_string@DU?$char_traits@D@std@@V?$allocator@D@2@@std@@V?$vector@V?$basic_string@DU?$char_traits@D@std@@V?$allocator@D@2@@std@@V?$allocator@V?$basic_string@DU?$char_traits@D@std@@V?$allocator@D@2@@std@@@2@@2@@std@@@std@@@std@@QAEXAAV?$allocator@U?$_Tree_node@U?$pair@$$CBV?$basic_string@DU?$char_traits@D@std@@V?$allocator@D@2@@std@@V?$vector@V?$basic_string@DU?$char_traits@D@std@@V?$allocator@D@2@@std@@V?$allocator@V?$basic_string@DU?$char_traits@D@std@@V?$allocator@D@2@@std@@@2@@2@@std@@PAX@std@@@1@PAU?$_Tree_node@U?$pair@$$CBV?$basic_string@DU?$char_traits@D@std@@V?$allocator@D@2@@std@@V?$vector@V?$basic_string@DU?$char_traits@D@std@@V?$allocator@D@2@@std@@V?$allocator@V?$basic_string@DU?$char_traits@D@std@@V?$allocator@D@2@@std@@@2@@2@@std@@PAX@1@@Z ; std::_Tree_val<std::_Tree_simple_types<std::pair<std::basic_string<char,std::char_traits<char>,std::allocator<char> > const ,std::vector<std::basic_string<char,std::char_traits<char>,std::allocator<char> >,std::allocator<std::basic_string<char,std::char_traits<char>,std::allocator<char> > > > > > >::_Erase_tree<std::allocator<std::_Tree_node<std::pair<std::basic_string<char,std::char_traits<char>,std::allocator<char> > const ,std::vector<std::basic_string<char,std::char_traits<char>,std::allocator<char> >,std::allocator<std::basic_string<char,std::char_traits<char>,std::allocator<char> > > > >,void *> > >
; File C:\Program Files\Microsoft Visual Studio\2022\Community\VC\Tools\MSVC\14.34.31933\include\utility

; 653  :     _Ty _Old_val = static_cast<_Ty&&>(_Val);

  00023	8b fe		 mov	 edi, esi

; 654  :     _Val         = static_cast<_Other&&>(_New_val);

  00025	8b 36		 mov	 esi, DWORD PTR [esi]
; File C:\Program Files\Microsoft Visual Studio\2022\Community\VC\Tools\MSVC\14.34.31933\include\xtree

; 382  :         allocator_traits<_Alloc>::destroy(_Al, _STD addressof(_Ptr->_Myval));

  00027	8d 47 10	 lea	 eax, DWORD PTR [edi+16]
  0002a	50		 push	 eax
  0002b	53		 push	 ebx
  0002c	e8 00 00 00 00	 call	 ??$destroy@U?$pair@$$CBV?$basic_string@DU?$char_traits@D@std@@V?$allocator@D@2@@std@@V?$vector@V?$basic_string@DU?$char_traits@D@std@@V?$allocator@D@2@@std@@V?$allocator@V?$basic_string@DU?$char_traits@D@std@@V?$allocator@D@2@@std@@@2@@2@@std@@@?$_Default_allocator_traits@V?$allocator@U?$_Tree_node@U?$pair@$$CBV?$basic_string@DU?$char_traits@D@std@@V?$allocator@D@2@@std@@V?$vector@V?$basic_string@DU?$char_traits@D@std@@V?$allocator@D@2@@std@@V?$allocator@V?$basic_string@DU?$char_traits@D@std@@V?$allocator@D@2@@std@@@2@@2@@std@@PAX@std@@@std@@@std@@SAXAAV?$allocator@U?$_Tree_node@U?$pair@$$CBV?$basic_string@DU?$char_traits@D@std@@V?$allocator@D@2@@std@@V?$vector@V?$basic_string@DU?$char_traits@D@std@@V?$allocator@D@2@@std@@V?$allocator@V?$basic_string@DU?$char_traits@D@std@@V?$allocator@D@2@@std@@@2@@2@@std@@PAX@std@@@1@QAU?$pair@$$CBV?$basic_string@DU?$char_traits@D@std@@V?$allocator@D@2@@std@@V?$vector@V?$basic_string@DU?$char_traits@D@std@@V?$allocator@D@2@@std@@V?$allocator@V?$basic_string@DU?$char_traits@D@std@@V?$allocator@D@2@@std@@@2@@2@@1@@Z ; std::_Default_allocator_traits<std::allocator<std::_Tree_node<std::pair<std::basic_string<char,std::char_traits<char>,std::allocator<char> > const ,std::vector<std::basic_string<char,std::char_traits<char>,std::allocator<char> >,std::allocator<std::basic_string<char,std::char_traits<char>,std::allocator<char> > > > >,void *> > >::destroy<std::pair<std::basic_string<char,std::char_traits<char>,std::allocator<char> > const ,std::vector<std::basic_string<char,std::char_traits<char>,std::allocator<char> >,std::allocator<std::basic_string<char,std::char_traits<char>,std::allocator<char> > > > > >
; File C:\Program Files\Microsoft Visual Studio\2022\Community\VC\Tools\MSVC\14.34.31933\include\xmemory

; 255  :         ::operator delete(_Ptr, _Bytes);

  00031	6a 34		 push	 52			; 00000034H
  00033	57		 push	 edi
  00034	e8 00 00 00 00	 call	 ??3@YAXPAXI@Z		; operator delete
; File C:\Program Files\Microsoft Visual Studio\2022\Community\VC\Tools\MSVC\14.34.31933\include\xtree

; 745  :         while (!_Rootnode->_Isnil) { // free subtrees, then node

  00039	8b 45 fc	 mov	 eax, DWORD PTR _this$1$[ebp]
; File C:\Program Files\Microsoft Visual Studio\2022\Community\VC\Tools\MSVC\14.34.31933\include\xmemory

; 255  :         ::operator delete(_Ptr, _Bytes);

  0003c	83 c4 10	 add	 esp, 16			; 00000010H
; File C:\Program Files\Microsoft Visual Studio\2022\Community\VC\Tools\MSVC\14.34.31933\include\xtree

; 745  :         while (!_Rootnode->_Isnil) { // free subtrees, then node

  0003f	80 7e 0d 00	 cmp	 BYTE PTR [esi+13], 0
  00043	74 d3		 je	 SHORT $LL2@Erase_tree
  00045	5f		 pop	 edi
  00046	5b		 pop	 ebx
$LN3@Erase_tree:
  00047	5e		 pop	 esi

; 747  :             _Alnode::value_type::_Freenode(_Al, _STD exchange(_Rootnode, _Rootnode->_Left));
; 748  :         }
; 749  :     }

  00048	8b e5		 mov	 esp, ebp
  0004a	5d		 pop	 ebp
  0004b	c2 08 00	 ret	 8
??$_Erase_tree@V?$allocator@U?$_Tree_node@U?$pair@$$CBV?$basic_string@DU?$char_traits@D@std@@V?$allocator@D@2@@std@@V?$vector@V?$basic_string@DU?$char_traits@D@std@@V?$allocator@D@2@@std@@V?$allocator@V?$basic_string@DU?$char_traits@D@std@@V?$allocator@D@2@@std@@@2@@2@@std@@PAX@std@@@std@@@?$_Tree_val@U?$_Tree_simple_types@U?$pair@$$CBV?$basic_string@DU?$char_traits@D@std@@V?$allocator@D@2@@std@@V?$vector@V?$basic_string@DU?$char_traits@D@std@@V?$allocator@D@2@@std@@V?$allocator@V?$basic_string@DU?$char_traits@D@std@@V?$allocator@D@2@@std@@@2@@2@@std@@@std@@@std@@QAEXAAV?$allocator@U?$_Tree_node@U?$pair@$$CBV?$basic_string@DU?$char_traits@D@std@@V?$allocator@D@2@@std@@V?$vector@V?$basic_string@DU?$char_traits@D@std@@V?$allocator@D@2@@std@@V?$allocator@V?$basic_string@DU?$char_traits@D@std@@V?$allocator@D@2@@std@@@2@@2@@std@@PAX@std@@@1@PAU?$_Tree_node@U?$pair@$$CBV?$basic_string@DU?$char_traits@D@std@@V?$allocator@D@2@@std@@V?$vector@V?$basic_string@DU?$char_traits@D@std@@V?$allocator@D@2@@std@@V?$allocator@V?$basic_string@DU?$char_traits@D@std@@V?$allocator@D@2@@std@@@2@@2@@std@@PAX@1@@Z ENDP ; std::_Tree_val<std::_Tree_simple_types<std::pair<std::basic_string<char,std::char_traits<char>,std::allocator<char> > const ,std::vector<std::basic_string<char,std::char_traits<char>,std::allocator<char> >,std::allocator<std::basic_string<char,std::char_traits<char>,std::allocator<char> > > > > > >::_Erase_tree<std::allocator<std::_Tree_node<std::pair<std::basic_string<char,std::char_traits<char>,std::allocator<char> > const ,std::vector<std::basic_string<char,std::char_traits<char>,std::allocator<char> >,std::allocator<std::basic_string<char,std::char_traits<char>,std::allocator<char> > > > >,void *> > >
_TEXT	ENDS
; Function compile flags: /Ogtp
; File C:\Program Files\Microsoft Visual Studio\2022\Community\VC\Tools\MSVC\14.34.31933\include\xmemory
;	COMDAT ??1?$_Alloc_construct_ptr@V?$allocator@U?$_Tree_node@U?$pair@$$CBV?$basic_string@DU?$char_traits@D@std@@V?$allocator@D@2@@std@@V?$vector@V?$basic_string@DU?$char_traits@D@std@@V?$allocator@D@2@@std@@V?$allocator@V?$basic_string@DU?$char_traits@D@std@@V?$allocator@D@2@@std@@@2@@2@@std@@PAX@std@@@std@@@std@@QAE@XZ
_TEXT	SEGMENT
??1?$_Alloc_construct_ptr@V?$allocator@U?$_Tree_node@U?$pair@$$CBV?$basic_string@DU?$char_traits@D@std@@V?$allocator@D@2@@std@@V?$vector@V?$basic_string@DU?$char_traits@D@std@@V?$allocator@D@2@@std@@V?$allocator@V?$basic_string@DU?$char_traits@D@std@@V?$allocator@D@2@@std@@@2@@2@@std@@PAX@std@@@std@@@std@@QAE@XZ PROC ; std::_Alloc_construct_ptr<std::allocator<std::_Tree_node<std::pair<std::basic_string<char,std::char_traits<char>,std::allocator<char> > const ,std::vector<std::basic_string<char,std::char_traits<char>,std::allocator<char> >,std::allocator<std::basic_string<char,std::char_traits<char>,std::allocator<char> > > > >,void *> > >::~_Alloc_construct_ptr<std::allocator<std::_Tree_node<std::pair<std::basic_string<char,std::char_traits<char>,std::allocator<char> > const ,std::vector<std::basic_string<char,std::char_traits<char>,std::allocator<char> >,std::allocator<std::basic_string<char,std::char_traits<char>,std::allocator<char> > > > >,void *> > >, COMDAT
; _this$ = ecx

; 1017 :         if (_Ptr) {

  00000	8b 41 04	 mov	 eax, DWORD PTR [ecx+4]
  00003	85 c0		 test	 eax, eax
  00005	74 0b		 je	 SHORT $LN8@Alloc_cons

; 255  :         ::operator delete(_Ptr, _Bytes);

  00007	6a 34		 push	 52			; 00000034H
  00009	50		 push	 eax
  0000a	e8 00 00 00 00	 call	 ??3@YAXPAXI@Z		; operator delete
  0000f	83 c4 08	 add	 esp, 8
$LN8@Alloc_cons:

; 1018 :             _Al.deallocate(_Ptr, 1);
; 1019 :         }
; 1020 :     }

  00012	c3		 ret	 0
??1?$_Alloc_construct_ptr@V?$allocator@U?$_Tree_node@U?$pair@$$CBV?$basic_string@DU?$char_traits@D@std@@V?$allocator@D@2@@std@@V?$vector@V?$basic_string@DU?$char_traits@D@std@@V?$allocator@D@2@@std@@V?$allocator@V?$basic_string@DU?$char_traits@D@std@@V?$allocator@D@2@@std@@@2@@2@@std@@PAX@std@@@std@@@std@@QAE@XZ ENDP ; std::_Alloc_construct_ptr<std::allocator<std::_Tree_node<std::pair<std::basic_string<char,std::char_traits<char>,std::allocator<char> > const ,std::vector<std::basic_string<char,std::char_traits<char>,std::allocator<char> >,std::allocator<std::basic_string<char,std::char_traits<char>,std::allocator<char> > > > >,void *> > >::~_Alloc_construct_ptr<std::allocator<std::_Tree_node<std::pair<std::basic_string<char,std::char_traits<char>,std::allocator<char> > const ,std::vector<std::basic_string<char,std::char_traits<char>,std::allocator<char> >,std::allocator<std::basic_string<char,std::char_traits<char>,std::allocator<char> > > > >,void *> > >
_TEXT	ENDS
; Function compile flags: /Ogtp
; File C:\Program Files\Microsoft Visual Studio\2022\Community\VC\Tools\MSVC\14.34.31933\include\xtree
; File C:\Program Files\Microsoft Visual Studio\2022\Community\VC\Tools\MSVC\14.34.31933\include\xstddef
; File C:\Program Files\Microsoft Visual Studio\2022\Community\VC\Tools\MSVC\14.34.31933\include\xtree
;	COMDAT ??$_Find_lower_bound@V?$basic_string@DU?$char_traits@D@std@@V?$allocator@D@2@@std@@@?$_Tree@V?$_Tmap_traits@V?$basic_string@DU?$char_traits@D@std@@V?$allocator@D@2@@std@@V?$vector@V?$basic_string@DU?$char_traits@D@std@@V?$allocator@D@2@@std@@V?$allocator@V?$basic_string@DU?$char_traits@D@std@@V?$allocator@D@2@@std@@@2@@2@U?$less@V?$basic_string@DU?$char_traits@D@std@@V?$allocator@D@2@@std@@@2@V?$allocator@U?$pair@$$CBV?$basic_string@DU?$char_traits@D@std@@V?$allocator@D@2@@std@@V?$vector@V?$basic_string@DU?$char_traits@D@std@@V?$allocator@D@2@@std@@V?$allocator@V?$basic_string@DU?$char_traits@D@std@@V?$allocator@D@2@@std@@@2@@2@@std@@@2@$0A@@std@@@std@@IBE?AU?$_Tree_find_result@PAU?$_Tree_node@U?$pair@$$CBV?$basic_string@DU?$char_traits@D@std@@V?$allocator@D@2@@std@@V?$vector@V?$basic_string@DU?$char_traits@D@std@@V?$allocator@D@2@@std@@V?$allocator@V?$basic_string@DU?$char_traits@D@std@@V?$allocator@D@2@@std@@@2@@2@@std@@PAX@std@@@1@ABV?$basic_string@DU?$char_traits@D@std@@V?$allocator@D@2@@1@@Z
_TEXT	SEGMENT
___$ReturnUdt$ = 8					; size = 4
__Keyval$ = 12						; size = 4
??$_Find_lower_bound@V?$basic_string@DU?$char_traits@D@std@@V?$allocator@D@2@@std@@@?$_Tree@V?$_Tmap_traits@V?$basic_string@DU?$char_traits@D@std@@V?$allocator@D@2@@std@@V?$vector@V?$basic_string@DU?$char_traits@D@std@@V?$allocator@D@2@@std@@V?$allocator@V?$basic_string@DU?$char_traits@D@std@@V?$allocator@D@2@@std@@@2@@2@U?$less@V?$basic_string@DU?$char_traits@D@std@@V?$allocator@D@2@@std@@@2@V?$allocator@U?$pair@$$CBV?$basic_string@DU?$char_traits@D@std@@V?$allocator@D@2@@std@@V?$vector@V?$basic_string@DU?$char_traits@D@std@@V?$allocator@D@2@@std@@V?$allocator@V?$basic_string@DU?$char_traits@D@std@@V?$allocator@D@2@@std@@@2@@2@@std@@@2@$0A@@std@@@std@@IBE?AU?$_Tree_find_result@PAU?$_Tree_node@U?$pair@$$CBV?$basic_string@DU?$char_traits@D@std@@V?$allocator@D@2@@std@@V?$vector@V?$basic_string@DU?$char_traits@D@std@@V?$allocator@D@2@@std@@V?$allocator@V?$basic_string@DU?$char_traits@D@std@@V?$allocator@D@2@@std@@@2@@2@@std@@PAX@std@@@1@ABV?$basic_string@DU?$char_traits@D@std@@V?$allocator@D@2@@1@@Z PROC ; std::_Tree<std::_Tmap_traits<std::basic_string<char,std::char_traits<char>,std::allocator<char> >,std::vector<std::basic_string<char,std::char_traits<char>,std::allocator<char> >,std::allocator<std::basic_string<char,std::char_traits<char>,std::allocator<char> > > >,std::less<std::basic_string<char,std::char_traits<char>,std::allocator<char> > >,std::allocator<std::pair<std::basic_string<char,std::char_traits<char>,std::allocator<char> > const ,std::vector<std::basic_string<char,std::char_traits<char>,std::allocator<char> >,std::allocator<std::basic_string<char,std::char_traits<char>,std::allocator<char> > > > > >,0> >::_Find_lower_bound<std::basic_string<char,std::char_traits<char>,std::allocator<char> > >, COMDAT
; _this$ = ecx

; 1609 :     _Tree_find_result<_Nodeptr> _Find_lower_bound(const _Keyty& _Keyval) const {

  00000	55		 push	 ebp
  00001	8b ec		 mov	 ebp, esp

; 1610 :         const auto _Scary = _Get_scary();
; 1611 :         _Tree_find_result<_Nodeptr> _Result{{_Scary->_Myhead->_Parent, _Tree_child::_Right}, _Scary->_Myhead};

  00003	8b 01		 mov	 eax, DWORD PTR [ecx]
  00005	56		 push	 esi
  00006	57		 push	 edi
  00007	8b 7d 08	 mov	 edi, DWORD PTR ___$ReturnUdt$[ebp]
  0000a	8b 70 04	 mov	 esi, DWORD PTR [eax+4]
  0000d	89 37		 mov	 DWORD PTR [edi], esi

; 1612 :         _Nodeptr _Trynode = _Result._Location._Parent;
; 1613 :         while (!_Trynode->_Isnil) {

  0000f	80 7e 0d 00	 cmp	 BYTE PTR [esi+13], 0
  00013	c7 47 04 00 00
	00 00		 mov	 DWORD PTR [edi+4], 0
  0001a	89 47 08	 mov	 DWORD PTR [edi+8], eax
  0001d	75 32		 jne	 SHORT $LN12@Find_lower
  0001f	53		 push	 ebx
  00020	8b 5d 0c	 mov	 ebx, DWORD PTR __Keyval$[ebp]
$LL2@Find_lower:

; 1615 :             if (_DEBUG_LT_PRED(_Getcomp(), _Traits::_Kfn(_Trynode->_Myval), _Keyval)) {

  00023	8d 46 10	 lea	 eax, DWORD PTR [esi+16]
  00026	89 37		 mov	 DWORD PTR [edi], esi
; File C:\Program Files\Microsoft Visual Studio\2022\Community\VC\Tools\MSVC\14.34.31933\include\xstddef

; 143  :         return _Left < _Right;

  00028	53		 push	 ebx
  00029	50		 push	 eax
  0002a	e8 00 00 00 00	 call	 ??$?MDU?$char_traits@D@std@@V?$allocator@D@1@@std@@YA_NABV?$basic_string@DU?$char_traits@D@std@@V?$allocator@D@2@@0@0@Z ; std::operator<<char,std::char_traits<char>,std::allocator<char> >
  0002f	83 c4 08	 add	 esp, 8
; File C:\Program Files\Microsoft Visual Studio\2022\Community\VC\Tools\MSVC\14.34.31933\include\xtree

; 1615 :             if (_DEBUG_LT_PRED(_Getcomp(), _Traits::_Kfn(_Trynode->_Myval), _Keyval)) {

  00032	84 c0		 test	 al, al
  00034	74 07		 je	 SHORT $LN4@Find_lower

; 1616 :                 _Result._Location._Child = _Tree_child::_Right;
; 1617 :                 _Trynode                 = _Trynode->_Right;

  00036	8b 76 08	 mov	 esi, DWORD PTR [esi+8]
  00039	33 c0		 xor	 eax, eax

; 1618 :             } else {

  0003b	eb 0a		 jmp	 SHORT $LN5@Find_lower
$LN4@Find_lower:

; 1619 :                 _Result._Location._Child = _Tree_child::_Left;
; 1620 :                 _Result._Bound           = _Trynode;

  0003d	89 77 08	 mov	 DWORD PTR [edi+8], esi

; 1621 :                 _Trynode                 = _Trynode->_Left;

  00040	b8 01 00 00 00	 mov	 eax, 1
  00045	8b 36		 mov	 esi, DWORD PTR [esi]
$LN5@Find_lower:

; 1612 :         _Nodeptr _Trynode = _Result._Location._Parent;
; 1613 :         while (!_Trynode->_Isnil) {

  00047	89 47 04	 mov	 DWORD PTR [edi+4], eax
  0004a	80 7e 0d 00	 cmp	 BYTE PTR [esi+13], 0
  0004e	74 d3		 je	 SHORT $LL2@Find_lower

; 1622 :             }
; 1623 :         }
; 1624 : 
; 1625 :         return _Result;

  00050	5b		 pop	 ebx
$LN12@Find_lower:

; 1626 :     }

  00051	8b c7		 mov	 eax, edi
  00053	5f		 pop	 edi
  00054	5e		 pop	 esi
  00055	5d		 pop	 ebp
  00056	c2 08 00	 ret	 8
??$_Find_lower_bound@V?$basic_string@DU?$char_traits@D@std@@V?$allocator@D@2@@std@@@?$_Tree@V?$_Tmap_traits@V?$basic_string@DU?$char_traits@D@std@@V?$allocator@D@2@@std@@V?$vector@V?$basic_string@DU?$char_traits@D@std@@V?$allocator@D@2@@std@@V?$allocator@V?$basic_string@DU?$char_traits@D@std@@V?$allocator@D@2@@std@@@2@@2@U?$less@V?$basic_string@DU?$char_traits@D@std@@V?$allocator@D@2@@std@@@2@V?$allocator@U?$pair@$$CBV?$basic_string@DU?$char_traits@D@std@@V?$allocator@D@2@@std@@V?$vector@V?$basic_string@DU?$char_traits@D@std@@V?$allocator@D@2@@std@@V?$allocator@V?$basic_string@DU?$char_traits@D@std@@V?$allocator@D@2@@std@@@2@@2@@std@@@2@$0A@@std@@@std@@IBE?AU?$_Tree_find_result@PAU?$_Tree_node@U?$pair@$$CBV?$basic_string@DU?$char_traits@D@std@@V?$allocator@D@2@@std@@V?$vector@V?$basic_string@DU?$char_traits@D@std@@V?$allocator@D@2@@std@@V?$allocator@V?$basic_string@DU?$char_traits@D@std@@V?$allocator@D@2@@std@@@2@@2@@std@@PAX@std@@@1@ABV?$basic_string@DU?$char_traits@D@std@@V?$allocator@D@2@@1@@Z ENDP ; std::_Tree<std::_Tmap_traits<std::basic_string<char,std::char_traits<char>,std::allocator<char> >,std::vector<std::basic_string<char,std::char_traits<char>,std::allocator<char> >,std::allocator<std::basic_string<char,std::char_traits<char>,std::allocator<char> > > >,std::less<std::basic_string<char,std::char_traits<char>,std::allocator<char> > >,std::allocator<std::pair<std::basic_string<char,std::char_traits<char>,std::allocator<char> > const ,std::vector<std::basic_string<char,std::char_traits<char>,std::allocator<char> >,std::allocator<std::basic_string<char,std::char_traits<char>,std::allocator<char> > > > > >,0> >::_Find_lower_bound<std::basic_string<char,std::char_traits<char>,std::allocator<char> > >
_TEXT	ENDS
; Function compile flags: /Ogtp
; File C:\Program Files\Microsoft Visual Studio\2022\Community\VC\Tools\MSVC\14.34.31933\include\xmemory
;	COMDAT ??$_Uninitialized_copy@PAUSTerrainTexture@@PAU1@V?$allocator@USTerrainTexture@@@std@@@std@@YAPAUSTerrainTexture@@PAU1@00AAV?$allocator@USTerrainTexture@@@0@@Z
_TEXT	SEGMENT
__Backout$ = -24					; size = 12
__$EHRec$ = -12						; size = 12
__First$ = 8						; size = 4
__Last$ = 12						; size = 4
__Dest$ = 16						; size = 4
__Al$ = 20						; size = 4
??$_Uninitialized_copy@PAUSTerrainTexture@@PAU1@V?$allocator@USTerrainTexture@@@std@@@std@@YAPAUSTerrainTexture@@PAU1@00AAV?$allocator@USTerrainTexture@@@0@@Z PROC ; std::_Uninitialized_copy<STerrainTexture *,STerrainTexture *,std::allocator<STerrainTexture> >, COMDAT

; 1680 :     _InIt _First, _Se _Last, _Alloc_ptr_t<_Alloc> _Dest, _Alloc& _Al) {

  00000	55		 push	 ebp
  00001	8b ec		 mov	 ebp, esp
  00003	6a ff		 push	 -1
  00005	68 00 00 00 00	 push	 __ehhandler$??$_Uninitialized_copy@PAUSTerrainTexture@@PAU1@V?$allocator@USTerrainTexture@@@std@@@std@@YAPAUSTerrainTexture@@PAU1@00AAV?$allocator@USTerrainTexture@@@0@@Z
  0000a	64 a1 00 00 00
	00		 mov	 eax, DWORD PTR fs:0
  00010	50		 push	 eax
  00011	83 ec 0c	 sub	 esp, 12			; 0000000cH
  00014	53		 push	 ebx
  00015	56		 push	 esi
  00016	57		 push	 edi
  00017	a1 00 00 00 00	 mov	 eax, DWORD PTR ___security_cookie
  0001c	33 c5		 xor	 eax, ebp
  0001e	50		 push	 eax
  0001f	8d 45 f4	 lea	 eax, DWORD PTR __$EHRec$[ebp]
  00022	64 a3 00 00 00
	00		 mov	 DWORD PTR fs:0, eax

; 1652 :     _CONSTEXPR20 _Uninitialized_backout_al(pointer _Dest, _Alloc& _Al_) : _First(_Dest), _Last(_Dest), _Al(_Al_) {}

  00028	8b 7d 10	 mov	 edi, DWORD PTR __Dest$[ebp]
  0002b	8b 45 14	 mov	 eax, DWORD PTR __Al$[ebp]

; 1681 :     // copy [_First, _Last) to raw _Dest, using _Al
; 1682 :     // note: only called internally from elsewhere in the STL
; 1683 :     using _Ptrval = typename _Alloc::value_type*;
; 1684 : 
; 1685 : #ifdef __cpp_lib_concepts
; 1686 :     auto _UFirst = _RANGES _Unwrap_iter<_Se>(_STD move(_First));
; 1687 :     auto _ULast  = _RANGES _Unwrap_sent<_InIt>(_STD move(_Last));
; 1688 : #else // ^^^ __cpp_lib_concepts / !__cpp_lib_concepts vvv
; 1689 :     // In pre-concepts world, _Uninitialized_copy should only ever be called with an iterator
; 1690 :     // and sentinel of the same type, so `_Get_unwrapped` is fine to call.
; 1691 :     auto _UFirst = _Get_unwrapped(_STD move(_First));

  0002e	8b 75 08	 mov	 esi, DWORD PTR __First$[ebp]

; 1652 :     _CONSTEXPR20 _Uninitialized_backout_al(pointer _Dest, _Alloc& _Al_) : _First(_Dest), _Last(_Dest), _Al(_Al_) {}

  00031	89 7d e8	 mov	 DWORD PTR __Backout$[ebp], edi
  00034	89 7d ec	 mov	 DWORD PTR __Backout$[ebp+4], edi
  00037	89 45 f0	 mov	 DWORD PTR __Backout$[ebp+8], eax

; 1692 :     auto _ULast = _Get_unwrapped(_STD move(_Last));
; 1693 : #endif // ^^^ !__cpp_lib_concepts ^^^
; 1694 : 
; 1695 :     constexpr bool _Can_memmove = _Sent_copy_cat<decltype(_UFirst), decltype(_ULast), _Ptrval>::_Bitcopy_constructible
; 1696 :                                && _Uses_default_construct<_Alloc, _Ptrval, decltype(*_UFirst)>::value;
; 1697 : 
; 1698 :     if constexpr (_Can_memmove) {
; 1699 : #if _HAS_CXX20
; 1700 :         if (!_STD is_constant_evaluated())
; 1701 : #endif // _HAS_CXX20
; 1702 :         {
; 1703 :             if constexpr (is_same_v<decltype(_UFirst), decltype(_ULast)>) {
; 1704 :                 _Copy_memmove(_To_address(_UFirst), _To_address(_ULast), _Unfancy(_Dest));
; 1705 :                 _Dest += _ULast - _UFirst;
; 1706 :             } else {
; 1707 :                 const auto _Count = static_cast<size_t>(_ULast - _UFirst);
; 1708 :                 _Copy_memmove_n(_To_address(_UFirst), _Count, _Unfancy(_Dest));
; 1709 :                 _Dest += _Count;
; 1710 :             }
; 1711 :             return _Dest;
; 1712 :         }
; 1713 :     }
; 1714 : 
; 1715 :     _Uninitialized_backout_al<_Alloc> _Backout{_Dest, _Al};
; 1716 :     for (; _UFirst != _ULast; ++_UFirst) {

  0003a	8b 5d 0c	 mov	 ebx, DWORD PTR __Last$[ebp]
  0003d	c7 45 fc 00 00
	00 00		 mov	 DWORD PTR __$EHRec$[ebp+8], 0
  00044	3b f3		 cmp	 esi, ebx
  00046	74 1e		 je	 SHORT $LN3@Uninitiali
$LL4@Uninitiali:

; 680  :             ::new (_Voidify_iter(_Ptr)) _Objty(_STD forward<_Types>(_Args)...);

  00048	56		 push	 esi
  00049	8b cf		 mov	 ecx, edi
  0004b	e8 00 00 00 00	 call	 ??0STerrainTexture@@QAE@ABU0@@Z

; 1664 :         ++_Last;

  00050	81 c7 9c 00 00
	00		 add	 edi, 156		; 0000009cH

; 1692 :     auto _ULast = _Get_unwrapped(_STD move(_Last));
; 1693 : #endif // ^^^ !__cpp_lib_concepts ^^^
; 1694 : 
; 1695 :     constexpr bool _Can_memmove = _Sent_copy_cat<decltype(_UFirst), decltype(_ULast), _Ptrval>::_Bitcopy_constructible
; 1696 :                                && _Uses_default_construct<_Alloc, _Ptrval, decltype(*_UFirst)>::value;
; 1697 : 
; 1698 :     if constexpr (_Can_memmove) {
; 1699 : #if _HAS_CXX20
; 1700 :         if (!_STD is_constant_evaluated())
; 1701 : #endif // _HAS_CXX20
; 1702 :         {
; 1703 :             if constexpr (is_same_v<decltype(_UFirst), decltype(_ULast)>) {
; 1704 :                 _Copy_memmove(_To_address(_UFirst), _To_address(_ULast), _Unfancy(_Dest));
; 1705 :                 _Dest += _ULast - _UFirst;
; 1706 :             } else {
; 1707 :                 const auto _Count = static_cast<size_t>(_ULast - _UFirst);
; 1708 :                 _Copy_memmove_n(_To_address(_UFirst), _Count, _Unfancy(_Dest));
; 1709 :                 _Dest += _Count;
; 1710 :             }
; 1711 :             return _Dest;
; 1712 :         }
; 1713 :     }
; 1714 : 
; 1715 :     _Uninitialized_backout_al<_Alloc> _Backout{_Dest, _Al};
; 1716 :     for (; _UFirst != _ULast; ++_UFirst) {

  00056	81 c6 9c 00 00
	00		 add	 esi, 156		; 0000009cH

; 1664 :         ++_Last;

  0005c	89 7d ec	 mov	 DWORD PTR __Backout$[ebp+4], edi

; 1692 :     auto _ULast = _Get_unwrapped(_STD move(_Last));
; 1693 : #endif // ^^^ !__cpp_lib_concepts ^^^
; 1694 : 
; 1695 :     constexpr bool _Can_memmove = _Sent_copy_cat<decltype(_UFirst), decltype(_ULast), _Ptrval>::_Bitcopy_constructible
; 1696 :                                && _Uses_default_construct<_Alloc, _Ptrval, decltype(*_UFirst)>::value;
; 1697 : 
; 1698 :     if constexpr (_Can_memmove) {
; 1699 : #if _HAS_CXX20
; 1700 :         if (!_STD is_constant_evaluated())
; 1701 : #endif // _HAS_CXX20
; 1702 :         {
; 1703 :             if constexpr (is_same_v<decltype(_UFirst), decltype(_ULast)>) {
; 1704 :                 _Copy_memmove(_To_address(_UFirst), _To_address(_ULast), _Unfancy(_Dest));
; 1705 :                 _Dest += _ULast - _UFirst;
; 1706 :             } else {
; 1707 :                 const auto _Count = static_cast<size_t>(_ULast - _UFirst);
; 1708 :                 _Copy_memmove_n(_To_address(_UFirst), _Count, _Unfancy(_Dest));
; 1709 :                 _Dest += _Count;
; 1710 :             }
; 1711 :             return _Dest;
; 1712 :         }
; 1713 :     }
; 1714 : 
; 1715 :     _Uninitialized_backout_al<_Alloc> _Backout{_Dest, _Al};
; 1716 :     for (; _UFirst != _ULast; ++_UFirst) {

  0005f	3b f3		 cmp	 esi, ebx
  00061	75 e5		 jne	 SHORT $LL4@Uninitiali
  00063	8b 45 14	 mov	 eax, DWORD PTR __Al$[ebp]
$LN3@Uninitiali:

; 1658 :         _Destroy_range(_First, _Last, _Al);

  00066	50		 push	 eax
  00067	57		 push	 edi
  00068	57		 push	 edi
  00069	e8 00 00 00 00	 call	 ??$_Destroy_range@V?$allocator@USTerrainTexture@@@std@@@std@@YAXPAUSTerrainTexture@@QAU1@AAV?$allocator@USTerrainTexture@@@0@@Z ; std::_Destroy_range<std::allocator<STerrainTexture> >
  0006e	83 c4 0c	 add	 esp, 12			; 0000000cH

; 1717 :         _Backout._Emplace_back(*_UFirst);
; 1718 :     }
; 1719 : 
; 1720 :     return _Backout._Release();

  00071	8b c7		 mov	 eax, edi

; 1721 : }

  00073	8b 4d f4	 mov	 ecx, DWORD PTR __$EHRec$[ebp]
  00076	64 89 0d 00 00
	00 00		 mov	 DWORD PTR fs:0, ecx
  0007d	59		 pop	 ecx
  0007e	5f		 pop	 edi
  0007f	5e		 pop	 esi
  00080	5b		 pop	 ebx
  00081	8b e5		 mov	 esp, ebp
  00083	5d		 pop	 ebp
  00084	c3		 ret	 0
_TEXT	ENDS
;	COMDAT text$x
text$x	SEGMENT
__unwindfunclet$??$_Uninitialized_copy@PAUSTerrainTexture@@PAU1@V?$allocator@USTerrainTexture@@@std@@@std@@YAPAUSTerrainTexture@@PAU1@00AAV?$allocator@USTerrainTexture@@@0@@Z$0:
  00000	8d 4d e8	 lea	 ecx, DWORD PTR __Backout$[ebp]
  00003	e9 00 00 00 00	 jmp	 ??1?$_Uninitialized_backout_al@V?$allocator@USTerrainTexture@@@std@@@std@@QAE@XZ ; std::_Uninitialized_backout_al<std::allocator<STerrainTexture> >::~_Uninitialized_backout_al<std::allocator<STerrainTexture> >
  00008	cc		 int	 3
  00009	cc		 int	 3
  0000a	cc		 int	 3
  0000b	cc		 int	 3
  0000c	cc		 int	 3
__ehhandler$??$_Uninitialized_copy@PAUSTerrainTexture@@PAU1@V?$allocator@USTerrainTexture@@@std@@@std@@YAPAUSTerrainTexture@@PAU1@00AAV?$allocator@USTerrainTexture@@@0@@Z:
  0000d	90		 npad	 1
  0000e	90		 npad	 1
  0000f	8b 54 24 08	 mov	 edx, DWORD PTR [esp+8]
  00013	8d 42 0c	 lea	 eax, DWORD PTR [edx+12]
  00016	8b 4a e4	 mov	 ecx, DWORD PTR [edx-28]
  00019	33 c8		 xor	 ecx, eax
  0001b	e8 00 00 00 00	 call	 @__security_check_cookie@4
  00020	b8 00 00 00 00	 mov	 eax, OFFSET __ehfuncinfo$??$_Uninitialized_copy@PAUSTerrainTexture@@PAU1@V?$allocator@USTerrainTexture@@@std@@@std@@YAPAUSTerrainTexture@@PAU1@00AAV?$allocator@USTerrainTexture@@@0@@Z
  00025	e9 00 00 00 00	 jmp	 ___CxxFrameHandler3
text$x	ENDS
??$_Uninitialized_copy@PAUSTerrainTexture@@PAU1@V?$allocator@USTerrainTexture@@@std@@@std@@YAPAUSTerrainTexture@@PAU1@00AAV?$allocator@USTerrainTexture@@@0@@Z ENDP ; std::_Uninitialized_copy<STerrainTexture *,STerrainTexture *,std::allocator<STerrainTexture> >
; Function compile flags: /Ogtp
; File C:\Program Files\Microsoft Visual Studio\2022\Community\VC\Tools\MSVC\14.34.31933\include\xstring
; File C:\Program Files\Microsoft Visual Studio\2022\Community\VC\Tools\MSVC\14.34.31933\include\xmemory
; File C:\Program Files\Microsoft Visual Studio\2022\Community\VC\Tools\MSVC\14.34.31933\include\utility
; File C:\Program Files\Microsoft Visual Studio\2022\Community\VC\Tools\MSVC\14.34.31933\include\xstring
; File C:\Program Files\Microsoft Visual Studio\2022\Community\VC\Tools\MSVC\14.34.31933\include\xmemory
; File C:\Program Files\Microsoft Visual Studio\2022\Community\VC\Tools\MSVC\14.34.31933\include\xstring
;	COMDAT ??$_Construct@$00PBD@?$basic_string@DU?$char_traits@D@std@@V?$allocator@D@2@@std@@AAEXQBDI@Z
_TEXT	SEGMENT
__Arg$ = 8						; size = 4
$T1 = 12						; size = 4
__Count$ = 12						; size = 4
??$_Construct@$00PBD@?$basic_string@DU?$char_traits@D@std@@V?$allocator@D@2@@std@@AAEXQBDI@Z PROC ; std::basic_string<char,std::char_traits<char>,std::allocator<char> >::_Construct<1,char const *>, COMDAT
; _this$ = ecx

; 2730 :     _CONSTEXPR20 void _Construct(const _Char_or_ptr _Arg, _CRT_GUARDOVERFLOW const size_type _Count) {

  00000	55		 push	 ebp
  00001	8b ec		 mov	 ebp, esp
  00003	53		 push	 ebx
  00004	57		 push	 edi

; 2731 :         auto& _My_data = _Mypair._Myval2;
; 2732 :         _STL_INTERNAL_CHECK(!_My_data._Large_string_engaged());
; 2733 : 
; 2734 :         if constexpr (_Strat == _Construct_strategy::_From_char) {
; 2735 :             _STL_INTERNAL_STATIC_ASSERT(is_same_v<_Char_or_ptr, _Elem>);
; 2736 :         } else {
; 2737 :             _STL_INTERNAL_STATIC_ASSERT(_Is_elem_cptr<_Char_or_ptr>::value);
; 2738 :         }
; 2739 : 
; 2740 :         if (_Count > max_size()) {

  00005	8b 7d 0c	 mov	 edi, DWORD PTR __Count$[ebp]
  00008	8b d9		 mov	 ebx, ecx
  0000a	81 ff ff ff ff
	7f		 cmp	 edi, 2147483647		; 7fffffffH
  00010	0f 87 9f 00 00
	00		 ja	 $LN29@Construct

; 2742 :         }
; 2743 : 
; 2744 :         auto& _Al       = _Getal();
; 2745 :         auto&& _Alproxy = _GET_PROXY_ALLOCATOR(_Alty, _Al);
; 2746 :         _Container_proxy_ptr<_Alty> _Proxy(_Alproxy, _My_data);
; 2747 : 
; 2748 :         if (_Count < _BUF_SIZE) {

  00016	c7 43 14 0f 00
	00 00		 mov	 DWORD PTR [ebx+20], 15	; 0000000fH
  0001d	83 ff 10	 cmp	 edi, 16			; 00000010H
  00020	73 1a		 jae	 SHORT $LN3@Construct

; 117  :         _CSTD memmove(_First1, _First2, _Count * sizeof(_Elem));

  00022	57		 push	 edi
  00023	ff 75 08	 push	 DWORD PTR __Arg$[ebp]

; 2749 :             _My_data._Mysize = _Count;

  00026	89 7b 10	 mov	 DWORD PTR [ebx+16], edi

; 117  :         _CSTD memmove(_First1, _First2, _Count * sizeof(_Elem));

  00029	53		 push	 ebx
  0002a	e8 00 00 00 00	 call	 _memmove
  0002f	83 c4 0c	 add	 esp, 12			; 0000000cH

; 2750 :             _My_data._Myres  = _BUF_SIZE - 1;
; 2751 :             if constexpr (_Strat == _Construct_strategy::_From_char) {
; 2752 :                 _Traits::assign(_My_data._Bx._Buf, _Count, _Arg);
; 2753 :                 _Traits::assign(_My_data._Bx._Buf[_Count], _Elem());
; 2754 :             } else if constexpr (_Strat == _Construct_strategy::_From_ptr) {
; 2755 :                 _Traits::move(_My_data._Bx._Buf, _Arg, _Count);
; 2756 :                 _Traits::assign(_My_data._Bx._Buf[_Count], _Elem());

  00032	c6 04 1f 00	 mov	 BYTE PTR [edi+ebx], 0
  00036	5f		 pop	 edi

; 2789 :         } else { // _Strat == _Construct_strategy::_From_string
; 2790 :             _Traits::copy(_Unfancy(_New_ptr), _Arg, _Count + 1);
; 2791 :         }
; 2792 : 
; 2793 :         _ASAN_STRING_CREATE(*this);
; 2794 :         _Proxy._Release();
; 2795 :     }

  00037	5b		 pop	 ebx
  00038	5d		 pop	 ebp
  00039	c2 08 00	 ret	 8
$LN3@Construct:
  0003c	56		 push	 esi

; 4883 :         const size_type _Masked = _Requested | _ALLOC_MASK;

  0003d	8b f7		 mov	 esi, edi
  0003f	83 ce 0f	 or	 esi, 15			; 0000000fH
  00042	81 fe ff ff ff
	7f		 cmp	 esi, 2147483647		; 7fffffffH

; 4884 :         if (_Masked > _Max) { // the mask overflows, settle for max_size()

  00048	76 15		 jbe	 SHORT $LN10@Construct

; 4885 :             return _Max;

  0004a	b8 00 00 00 80	 mov	 eax, -2147483648	; 80000000H
  0004f	be ff ff ff 7f	 mov	 esi, 2147483647		; 7fffffffH
; File C:\Program Files\Microsoft Visual Studio\2022\Community\VC\Tools\MSVC\14.34.31933\include\xmemory

; 229  :             return _Allocate_manually_vector_aligned<_Traits>(_Bytes);

  00054	50		 push	 eax
  00055	e8 00 00 00 00	 call	 ??$_Allocate_manually_vector_aligned@U_Default_allocate_traits@std@@@std@@YAPAXI@Z ; std::_Allocate_manually_vector_aligned<std::_Default_allocate_traits>
  0005a	83 c4 04	 add	 esp, 4
  0005d	eb 30		 jmp	 SHORT $LN27@Construct
$LN10@Construct:
; File C:\Program Files\Microsoft Visual Studio\2022\Community\VC\Tools\MSVC\14.34.31933\include\utility

; 43   :     return _Left < _Right ? _Right : _Left;

  0005f	b8 16 00 00 00	 mov	 eax, 22			; 00000016H
  00064	3b f0		 cmp	 esi, eax
  00066	0f 42 f0	 cmovb	 esi, eax
; File C:\Program Files\Microsoft Visual Studio\2022\Community\VC\Tools\MSVC\14.34.31933\include\xstring

; 2772 :         const pointer _New_ptr        = _Al.allocate(_New_capacity + 1); // throws

  00069	8d 46 01	 lea	 eax, DWORD PTR [esi+1]
; File C:\Program Files\Microsoft Visual Studio\2022\Community\VC\Tools\MSVC\14.34.31933\include\xmemory

; 228  :         if (_Bytes >= _Big_allocation_threshold) { // boost the alignment of big allocations to help autovectorization

  0006c	3d 00 10 00 00	 cmp	 eax, 4096		; 00001000H
  00071	72 0b		 jb	 SHORT $LN18@Construct

; 229  :             return _Allocate_manually_vector_aligned<_Traits>(_Bytes);

  00073	50		 push	 eax
  00074	e8 00 00 00 00	 call	 ??$_Allocate_manually_vector_aligned@U_Default_allocate_traits@std@@@std@@YAPAXI@Z ; std::_Allocate_manually_vector_aligned<std::_Default_allocate_traits>
  00079	83 c4 04	 add	 esp, 4
  0007c	eb 11		 jmp	 SHORT $LN27@Construct
$LN18@Construct:

; 230  :         }
; 231  :     }
; 232  : #endif // defined(_M_IX86) || defined(_M_X64)
; 233  : 
; 234  :     if (_Bytes != 0) {

  0007e	85 c0		 test	 eax, eax
  00080	74 0b		 je	 SHORT $LN19@Construct

; 77   :         return ::operator new(_Bytes);

  00082	50		 push	 eax
  00083	e8 00 00 00 00	 call	 ??2@YAPAXI@Z		; operator new
  00088	83 c4 04	 add	 esp, 4

; 235  :         return _Traits::_Allocate(_Bytes);

  0008b	eb 02		 jmp	 SHORT $LN27@Construct
$LN19@Construct:

; 236  :     }
; 237  : 
; 238  :     return nullptr;

  0008d	33 c0		 xor	 eax, eax
$LN27@Construct:
; File C:\Program Files\Microsoft Visual Studio\2022\Community\VC\Tools\MSVC\14.34.31933\include\xstring

; 64   :         _CSTD memcpy(_First1, _First2, _Count * sizeof(_Elem));

  0008f	57		 push	 edi
  00090	ff 75 08	 push	 DWORD PTR __Arg$[ebp]

; 2773 :         _Construct_in_place(_My_data._Bx._Ptr, _New_ptr);

  00093	89 45 0c	 mov	 DWORD PTR $T1[ebp], eax

; 64   :         _CSTD memcpy(_First1, _First2, _Count * sizeof(_Elem));

  00096	50		 push	 eax

; 2773 :         _Construct_in_place(_My_data._Bx._Ptr, _New_ptr);

  00097	89 03		 mov	 DWORD PTR [ebx], eax

; 2774 : 
; 2775 : #if _HAS_CXX20
; 2776 :         if (_STD is_constant_evaluated()) { // Begin the lifetimes of the objects before copying to avoid UB
; 2777 :             _Traits::assign(_Unfancy(_New_ptr), _New_capacity + 1, _Elem());
; 2778 :         }
; 2779 : #endif // _HAS_CXX20
; 2780 : 
; 2781 :         _My_data._Mysize = _Count;

  00099	89 7b 10	 mov	 DWORD PTR [ebx+16], edi

; 2782 :         _My_data._Myres  = _New_capacity;

  0009c	89 73 14	 mov	 DWORD PTR [ebx+20], esi

; 64   :         _CSTD memcpy(_First1, _First2, _Count * sizeof(_Elem));

  0009f	e8 00 00 00 00	 call	 _memcpy

; 2783 :         if constexpr (_Strat == _Construct_strategy::_From_char) {
; 2784 :             _Traits::assign(_Unfancy(_New_ptr), _Count, _Arg);
; 2785 :             _Traits::assign(_Unfancy(_New_ptr)[_Count], _Elem());
; 2786 :         } else if constexpr (_Strat == _Construct_strategy::_From_ptr) {
; 2787 :             _Traits::copy(_Unfancy(_New_ptr), _Arg, _Count);
; 2788 :             _Traits::assign(_Unfancy(_New_ptr)[_Count], _Elem());

  000a4	8b 45 0c	 mov	 eax, DWORD PTR $T1[ebp]

; 64   :         _CSTD memcpy(_First1, _First2, _Count * sizeof(_Elem));

  000a7	83 c4 0c	 add	 esp, 12			; 0000000cH

; 2783 :         if constexpr (_Strat == _Construct_strategy::_From_char) {
; 2784 :             _Traits::assign(_Unfancy(_New_ptr), _Count, _Arg);
; 2785 :             _Traits::assign(_Unfancy(_New_ptr)[_Count], _Elem());
; 2786 :         } else if constexpr (_Strat == _Construct_strategy::_From_ptr) {
; 2787 :             _Traits::copy(_Unfancy(_New_ptr), _Arg, _Count);
; 2788 :             _Traits::assign(_Unfancy(_New_ptr)[_Count], _Elem());

  000aa	5e		 pop	 esi
  000ab	c6 04 38 00	 mov	 BYTE PTR [eax+edi], 0
  000af	5f		 pop	 edi

; 2789 :         } else { // _Strat == _Construct_strategy::_From_string
; 2790 :             _Traits::copy(_Unfancy(_New_ptr), _Arg, _Count + 1);
; 2791 :         }
; 2792 : 
; 2793 :         _ASAN_STRING_CREATE(*this);
; 2794 :         _Proxy._Release();
; 2795 :     }

  000b0	5b		 pop	 ebx
  000b1	5d		 pop	 ebp
  000b2	c2 08 00	 ret	 8
$LN29@Construct:

; 2741 :             _Xlen_string(); // result too long

  000b5	e8 00 00 00 00	 call	 ?_Xlen_string@std@@YAXXZ ; std::_Xlen_string
$LN26@Construct:
  000ba	cc		 int	 3
??$_Construct@$00PBD@?$basic_string@DU?$char_traits@D@std@@V?$allocator@D@2@@std@@AAEXQBDI@Z ENDP ; std::basic_string<char,std::char_traits<char>,std::allocator<char> >::_Construct<1,char const *>
_TEXT	ENDS
; Function compile flags: /Ogtp
; File C:\Program Files\Microsoft Visual Studio\2022\Community\VC\Tools\MSVC\14.34.31933\include\xstring
; File C:\Program Files\Microsoft Visual Studio\2022\Community\VC\Tools\MSVC\14.34.31933\include\utility
; File C:\Program Files\Microsoft Visual Studio\2022\Community\VC\Tools\MSVC\14.34.31933\include\xstring
; File C:\Program Files\Microsoft Visual Studio\2022\Community\VC\Tools\MSVC\14.34.31933\include\utility
; File C:\Program Files\Microsoft Visual Studio\2022\Community\VC\Tools\MSVC\14.34.31933\include\xstring
;	COMDAT ??$_Traits_compare@U?$char_traits@D@std@@@std@@YAHQBDI0I@Z
_TEXT	SEGMENT
__Left$ = 8						; size = 4
__Left_size$ = 12					; size = 4
__Right$ = 16						; size = 4
__Right_size$ = 20					; size = 4
??$_Traits_compare@U?$char_traits@D@std@@@std@@YAHQBDI0I@Z PROC ; std::_Traits_compare<std::char_traits<char> >, COMDAT

; 600  :     _In_reads_(_Right_size) const _Traits_ptr_t<_Traits> _Right, const size_t _Right_size) noexcept {

  00000	55		 push	 ebp
  00001	8b ec		 mov	 ebp, esp

; 398  :         return _CSTD memcmp(_First1, _First2, _Count);

  00003	8b 55 08	 mov	 edx, DWORD PTR __Left$[ebp]

; 600  :     _In_reads_(_Right_size) const _Traits_ptr_t<_Traits> _Right, const size_t _Right_size) noexcept {

  00006	53		 push	 ebx
; File C:\Program Files\Microsoft Visual Studio\2022\Community\VC\Tools\MSVC\14.34.31933\include\utility

; 66   :     return _Right < _Left ? _Right : _Left;

  00007	8b 5d 14	 mov	 ebx, DWORD PTR __Right_size$[ebp]
; File C:\Program Files\Microsoft Visual Studio\2022\Community\VC\Tools\MSVC\14.34.31933\include\xstring

; 600  :     _In_reads_(_Right_size) const _Traits_ptr_t<_Traits> _Right, const size_t _Right_size) noexcept {

  0000a	56		 push	 esi

; 398  :         return _CSTD memcmp(_First1, _First2, _Count);

  0000b	8b 75 10	 mov	 esi, DWORD PTR __Right$[ebp]

; 600  :     _In_reads_(_Right_size) const _Traits_ptr_t<_Traits> _Right, const size_t _Right_size) noexcept {

  0000e	57		 push	 edi
; File C:\Program Files\Microsoft Visual Studio\2022\Community\VC\Tools\MSVC\14.34.31933\include\utility

; 66   :     return _Right < _Left ? _Right : _Left;

  0000f	8b 7d 0c	 mov	 edi, DWORD PTR __Left_size$[ebp]
  00012	3b df		 cmp	 ebx, edi
  00014	8b cf		 mov	 ecx, edi
  00016	0f 42 cb	 cmovb	 ecx, ebx
; File C:\Program Files\Microsoft Visual Studio\2022\Community\VC\Tools\MSVC\14.34.31933\include\xstring

; 398  :         return _CSTD memcmp(_First1, _First2, _Count);

  00019	83 e9 04	 sub	 ecx, 4
  0001c	72 13		 jb	 SHORT $LN12@Traits_com
  0001e	66 90		 npad	 2
$LL13@Traits_com:
  00020	8b 02		 mov	 eax, DWORD PTR [edx]
  00022	3b 06		 cmp	 eax, DWORD PTR [esi]
  00024	75 10		 jne	 SHORT $LN11@Traits_com
  00026	83 c2 04	 add	 edx, 4
  00029	83 c6 04	 add	 esi, 4
  0002c	83 e9 04	 sub	 ecx, 4
  0002f	73 ef		 jae	 SHORT $LL13@Traits_com
$LN12@Traits_com:
  00031	83 f9 fc	 cmp	 ecx, -4			; fffffffcH
  00034	74 34		 je	 SHORT $LN10@Traits_com
$LN11@Traits_com:
  00036	8a 02		 mov	 al, BYTE PTR [edx]
  00038	3a 06		 cmp	 al, BYTE PTR [esi]
  0003a	75 27		 jne	 SHORT $LN14@Traits_com
  0003c	83 f9 fd	 cmp	 ecx, -3			; fffffffdH
  0003f	74 29		 je	 SHORT $LN10@Traits_com
  00041	8a 42 01	 mov	 al, BYTE PTR [edx+1]
  00044	3a 46 01	 cmp	 al, BYTE PTR [esi+1]
  00047	75 1a		 jne	 SHORT $LN14@Traits_com
  00049	83 f9 fe	 cmp	 ecx, -2			; fffffffeH
  0004c	74 1c		 je	 SHORT $LN10@Traits_com
  0004e	8a 42 02	 mov	 al, BYTE PTR [edx+2]
  00051	3a 46 02	 cmp	 al, BYTE PTR [esi+2]
  00054	75 0d		 jne	 SHORT $LN14@Traits_com
  00056	83 f9 ff	 cmp	 ecx, -1
  00059	74 0f		 je	 SHORT $LN10@Traits_com
  0005b	8a 42 03	 mov	 al, BYTE PTR [edx+3]
  0005e	3a 46 03	 cmp	 al, BYTE PTR [esi+3]
  00061	74 07		 je	 SHORT $LN10@Traits_com
$LN14@Traits_com:
  00063	1b c0		 sbb	 eax, eax
  00065	83 c8 01	 or	 eax, 1
  00068	eb 02		 jmp	 SHORT $LN15@Traits_com
$LN10@Traits_com:
  0006a	33 c0		 xor	 eax, eax
$LN15@Traits_com:

; 601  :     // compare [_Left, _Left + _Left_size) to [_Right, _Right + _Right_size) using _Traits
; 602  :     const int _Ans = _Traits::compare(_Left, _Right, (_STD min)(_Left_size, _Right_size));
; 603  : 
; 604  :     if (_Ans != 0) {

  0006c	85 c0		 test	 eax, eax
  0006e	75 10		 jne	 SHORT $LN1@Traits_com

; 605  :         return _Ans;
; 606  :     }
; 607  : 
; 608  :     if (_Left_size < _Right_size) {

  00070	3b df		 cmp	 ebx, edi
  00072	76 08		 jbe	 SHORT $LN16@Traits_com

; 613  :         return 1;
; 614  :     }
; 615  : 
; 616  :     return 0;
; 617  : }

  00074	5f		 pop	 edi
  00075	5e		 pop	 esi
  00076	83 c8 ff	 or	 eax, -1
  00079	5b		 pop	 ebx
  0007a	5d		 pop	 ebp
  0007b	c3		 ret	 0
$LN16@Traits_com:

; 609  :         return -1;
; 610  :     }
; 611  : 
; 612  :     if (_Left_size > _Right_size) {

  0007c	1b c0		 sbb	 eax, eax
  0007e	f7 d8		 neg	 eax
$LN1@Traits_com:

; 613  :         return 1;
; 614  :     }
; 615  : 
; 616  :     return 0;
; 617  : }

  00080	5f		 pop	 edi
  00081	5e		 pop	 esi
  00082	5b		 pop	 ebx
  00083	5d		 pop	 ebp
  00084	c3		 ret	 0
??$_Traits_compare@U?$char_traits@D@std@@@std@@YAHQBDI0I@Z ENDP ; std::_Traits_compare<std::char_traits<char> >
_TEXT	ENDS
; Function compile flags: /Ogtp
; File C:\Program Files\Microsoft Visual Studio\2022\Community\VC\Tools\MSVC\14.34.31933\include\xmemory
; File C:\Users\Marian\Desktop\Aeldra\ProjectA-main\Binary\Client\PRTerrainLib\TextureSet.h
; File C:\Program Files\Microsoft Visual Studio\2022\Community\VC\Tools\MSVC\14.34.31933\include\xstring
; File C:\Program Files\Microsoft Visual Studio\2022\Community\VC\Tools\MSVC\14.34.31933\include\xmemory
; File C:\Program Files\Microsoft Visual Studio\2022\Community\VC\Tools\MSVC\14.34.31933\include\xstring
; File C:\Program Files\Microsoft Visual Studio\2022\Community\VC\Tools\MSVC\14.34.31933\include\xmemory
; File C:\Program Files\Microsoft Visual Studio\2022\Community\VC\Tools\MSVC\14.34.31933\include\xstring
; File C:\Program Files\Microsoft Visual Studio\2022\Community\VC\Tools\MSVC\14.34.31933\include\xmemory
;	COMDAT ??$destroy@USTerrainTexture@@@?$_Default_allocator_traits@V?$allocator@USTerrainTexture@@@std@@@std@@SAXAAV?$allocator@USTerrainTexture@@@1@QAUSTerrainTexture@@@Z
_TEXT	SEGMENT
___formal$ = 8						; size = 4
__Ptr$ = 12						; size = 4
??$destroy@USTerrainTexture@@@?$_Default_allocator_traits@V?$allocator@USTerrainTexture@@@std@@@std@@SAXAAV?$allocator@USTerrainTexture@@@1@QAUSTerrainTexture@@@Z PROC ; std::_Default_allocator_traits<std::allocator<STerrainTexture> >::destroy<STerrainTexture>, COMDAT

; 685  :     static _CONSTEXPR20 void destroy(_Alloc&, _Uty* const _Ptr) {

  00000	55		 push	 ebp
  00001	8b ec		 mov	 ebp, esp
  00003	56		 push	 esi
; File C:\Users\Marian\Desktop\Aeldra\ProjectA-main\Binary\Client\PRTerrainLib\TextureSet.h

; 21   : 	}

  00004	8b 75 0c	 mov	 esi, DWORD PTR __Ptr$[ebp]
  00007	8d 4e 1c	 lea	 ecx, DWORD PTR [esi+28]
  0000a	e8 00 00 00 00	 call	 ??1CGraphicImageInstance@@UAE@XZ ; CGraphicImageInstance::~CGraphicImageInstance
; File C:\Program Files\Microsoft Visual Studio\2022\Community\VC\Tools\MSVC\14.34.31933\include\xstring

; 2301 :         return _BUF_SIZE <= _Myres;

  0000f	8b 4e 14	 mov	 ecx, DWORD PTR [esi+20]
  00012	83 f9 10	 cmp	 ecx, 16			; 00000010H

; 5011 :         if (_My_data._Large_string_engaged()) {

  00015	72 27		 jb	 SHORT $LN21@destroy
; File C:\Program Files\Microsoft Visual Studio\2022\Community\VC\Tools\MSVC\14.34.31933\include\xmemory

; 830  :         _Deallocate<_New_alignof<_Ty>>(_Ptr, sizeof(_Ty) * _Count);

  00017	8b 06		 mov	 eax, DWORD PTR [esi]
; File C:\Program Files\Microsoft Visual Studio\2022\Community\VC\Tools\MSVC\14.34.31933\include\xstring

; 5016 :             _Al.deallocate(_Ptr, _My_data._Myres + 1);

  00019	41		 inc	 ecx
; File C:\Program Files\Microsoft Visual Studio\2022\Community\VC\Tools\MSVC\14.34.31933\include\xmemory

; 251  :         if (_Bytes >= _Big_allocation_threshold) { // boost the alignment of big allocations to help autovectorization

  0001a	81 f9 00 10 00
	00		 cmp	 ecx, 4096		; 00001000H
  00020	72 12		 jb	 SHORT $LN31@destroy

; 150  :     const uintptr_t _Ptr_container   = _Ptr_user[-1];

  00022	8b 50 fc	 mov	 edx, DWORD PTR [eax-4]
  00025	83 c1 23	 add	 ecx, 35			; 00000023H

; 151  : 
; 152  :     // If the following asserts, it likely means that we are performing
; 153  :     // an aligned delete on memory coming from an unaligned allocation.
; 154  :     _STL_ASSERT(_Ptr_user[-2] == _Big_allocation_sentinel, "invalid argument");
; 155  : 
; 156  :     // Extra paranoia on aligned allocation/deallocation; ensure _Ptr_container is
; 157  :     // in range [_Min_back_shift, _Non_user_size]
; 158  : #ifdef _DEBUG
; 159  :     constexpr uintptr_t _Min_back_shift = 2 * sizeof(void*);
; 160  : #else // ^^^ _DEBUG ^^^ // vvv !_DEBUG vvv
; 161  :     constexpr uintptr_t _Min_back_shift = sizeof(void*);
; 162  : #endif // _DEBUG
; 163  :     const uintptr_t _Back_shift = reinterpret_cast<uintptr_t>(_Ptr) - _Ptr_container;

  00028	2b c2		 sub	 eax, edx

; 164  :     _STL_VERIFY(_Back_shift >= _Min_back_shift && _Back_shift <= _Non_user_size, "invalid argument");

  0002a	83 c0 fc	 add	 eax, -4			; fffffffcH
  0002d	83 f8 1f	 cmp	 eax, 31			; 0000001fH
  00030	77 20		 ja	 SHORT $LN28@destroy

; 165  :     _Ptr = reinterpret_cast<void*>(_Ptr_container);

  00032	8b c2		 mov	 eax, edx
$LN31@destroy:

; 255  :         ::operator delete(_Ptr, _Bytes);

  00034	51		 push	 ecx
  00035	50		 push	 eax
  00036	e8 00 00 00 00	 call	 ??3@YAXPAXI@Z		; operator delete
  0003b	83 c4 08	 add	 esp, 8
$LN21@destroy:
; File C:\Program Files\Microsoft Visual Studio\2022\Community\VC\Tools\MSVC\14.34.31933\include\xstring

; 5019 :         _My_data._Mysize = 0;

  0003e	c7 46 10 00 00
	00 00		 mov	 DWORD PTR [esi+16], 0

; 5020 :         _My_data._Myres  = _BUF_SIZE - 1;

  00045	c7 46 14 0f 00
	00 00		 mov	 DWORD PTR [esi+20], 15	; 0000000fH

; 5021 :         // the _Traits::assign is last so the codegen doesn't think the char write can alias this
; 5022 :         _Traits::assign(_My_data._Bx._Buf[0], _Elem());

  0004c	c6 06 00	 mov	 BYTE PTR [esi], 0
  0004f	5e		 pop	 esi
; File C:\Program Files\Microsoft Visual Studio\2022\Community\VC\Tools\MSVC\14.34.31933\include\xmemory

; 691  :     }

  00050	5d		 pop	 ebp
  00051	c3		 ret	 0
$LN28@destroy:

; 164  :     _STL_VERIFY(_Back_shift >= _Min_back_shift && _Back_shift <= _Non_user_size, "invalid argument");

  00052	e8 00 00 00 00	 call	 __invalid_parameter_noinfo_noreturn
$LN39@destroy:
  00057	cc		 int	 3
??$destroy@USTerrainTexture@@@?$_Default_allocator_traits@V?$allocator@USTerrainTexture@@@std@@@std@@SAXAAV?$allocator@USTerrainTexture@@@1@QAUSTerrainTexture@@@Z ENDP ; std::_Default_allocator_traits<std::allocator<STerrainTexture> >::destroy<STerrainTexture>
_TEXT	ENDS
; Function compile flags: /Ogtp
; File C:\Program Files\Microsoft Visual Studio\2022\Community\VC\Tools\MSVC\14.34.31933\include\xmemory
; File C:\Users\Marian\Desktop\Aeldra\ProjectA-main\Binary\Client\PRTerrainLib\TextureSet.h
; File C:\Program Files\Microsoft Visual Studio\2022\Community\VC\Tools\MSVC\14.34.31933\include\xstring
; File C:\Program Files\Microsoft Visual Studio\2022\Community\VC\Tools\MSVC\14.34.31933\include\xmemory
; File C:\Program Files\Microsoft Visual Studio\2022\Community\VC\Tools\MSVC\14.34.31933\include\xstring
; File C:\Program Files\Microsoft Visual Studio\2022\Community\VC\Tools\MSVC\14.34.31933\include\xmemory
; File C:\Program Files\Microsoft Visual Studio\2022\Community\VC\Tools\MSVC\14.34.31933\include\xstring
; File C:\Program Files\Microsoft Visual Studio\2022\Community\VC\Tools\MSVC\14.34.31933\include\xmemory
;	COMDAT ??$_Destroy_range@V?$allocator@USTerrainTexture@@@std@@@std@@YAXPAUSTerrainTexture@@QAU1@AAV?$allocator@USTerrainTexture@@@0@@Z
_TEXT	SEGMENT
__First$ = 8						; size = 4
__Last$ = 12						; size = 4
__Al$ = 16						; size = 4
??$_Destroy_range@V?$allocator@USTerrainTexture@@@std@@@std@@YAXPAUSTerrainTexture@@QAU1@AAV?$allocator@USTerrainTexture@@@0@@Z PROC ; std::_Destroy_range<std::allocator<STerrainTexture> >, COMDAT

; 943  : _CONSTEXPR20 void _Destroy_range(_Alloc_ptr_t<_Alloc> _First, const _Alloc_ptr_t<_Alloc> _Last, _Alloc& _Al) noexcept {

  00000	55		 push	 ebp
  00001	8b ec		 mov	 ebp, esp
  00003	56		 push	 esi

; 947  :         for (; _First != _Last; ++_First) {

  00004	8b 75 08	 mov	 esi, DWORD PTR __First$[ebp]
  00007	57		 push	 edi
  00008	8b 7d 0c	 mov	 edi, DWORD PTR __Last$[ebp]
  0000b	3b f7		 cmp	 esi, edi
  0000d	74 58		 je	 SHORT $LN50@Destroy_ra
  0000f	83 c6 14	 add	 esi, 20			; 00000014H
$LL4@Destroy_ra:
; File C:\Users\Marian\Desktop\Aeldra\ProjectA-main\Binary\Client\PRTerrainLib\TextureSet.h

; 21   : 	}

  00012	8d 4e 08	 lea	 ecx, DWORD PTR [esi+8]
  00015	e8 00 00 00 00	 call	 ??1CGraphicImageInstance@@UAE@XZ ; CGraphicImageInstance::~CGraphicImageInstance
; File C:\Program Files\Microsoft Visual Studio\2022\Community\VC\Tools\MSVC\14.34.31933\include\xstring

; 2301 :         return _BUF_SIZE <= _Myres;

  0001a	8b 0e		 mov	 ecx, DWORD PTR [esi]
  0001c	83 f9 10	 cmp	 ecx, 16			; 00000010H

; 5011 :         if (_My_data._Large_string_engaged()) {

  0001f	72 28		 jb	 SHORT $LN49@Destroy_ra
; File C:\Program Files\Microsoft Visual Studio\2022\Community\VC\Tools\MSVC\14.34.31933\include\xmemory

; 830  :         _Deallocate<_New_alignof<_Ty>>(_Ptr, sizeof(_Ty) * _Count);

  00021	8b 46 ec	 mov	 eax, DWORD PTR [esi-20]
; File C:\Program Files\Microsoft Visual Studio\2022\Community\VC\Tools\MSVC\14.34.31933\include\xstring

; 5016 :             _Al.deallocate(_Ptr, _My_data._Myres + 1);

  00024	41		 inc	 ecx
; File C:\Program Files\Microsoft Visual Studio\2022\Community\VC\Tools\MSVC\14.34.31933\include\xmemory

; 251  :         if (_Bytes >= _Big_allocation_threshold) { // boost the alignment of big allocations to help autovectorization

  00025	81 f9 00 10 00
	00		 cmp	 ecx, 4096		; 00001000H
  0002b	72 12		 jb	 SHORT $LN36@Destroy_ra

; 150  :     const uintptr_t _Ptr_container   = _Ptr_user[-1];

  0002d	8b 50 fc	 mov	 edx, DWORD PTR [eax-4]
  00030	83 c1 23	 add	 ecx, 35			; 00000023H

; 151  : 
; 152  :     // If the following asserts, it likely means that we are performing
; 153  :     // an aligned delete on memory coming from an unaligned allocation.
; 154  :     _STL_ASSERT(_Ptr_user[-2] == _Big_allocation_sentinel, "invalid argument");
; 155  : 
; 156  :     // Extra paranoia on aligned allocation/deallocation; ensure _Ptr_container is
; 157  :     // in range [_Min_back_shift, _Non_user_size]
; 158  : #ifdef _DEBUG
; 159  :     constexpr uintptr_t _Min_back_shift = 2 * sizeof(void*);
; 160  : #else // ^^^ _DEBUG ^^^ // vvv !_DEBUG vvv
; 161  :     constexpr uintptr_t _Min_back_shift = sizeof(void*);
; 162  : #endif // _DEBUG
; 163  :     const uintptr_t _Back_shift = reinterpret_cast<uintptr_t>(_Ptr) - _Ptr_container;

  00033	2b c2		 sub	 eax, edx

; 164  :     _STL_VERIFY(_Back_shift >= _Min_back_shift && _Back_shift <= _Non_user_size, "invalid argument");

  00035	83 c0 fc	 add	 eax, -4			; fffffffcH
  00038	83 f8 1f	 cmp	 eax, 31			; 0000001fH
  0003b	77 2e		 ja	 SHORT $LN33@Destroy_ra

; 165  :     _Ptr = reinterpret_cast<void*>(_Ptr_container);

  0003d	8b c2		 mov	 eax, edx
$LN36@Destroy_ra:

; 255  :         ::operator delete(_Ptr, _Bytes);

  0003f	51		 push	 ecx
  00040	50		 push	 eax
  00041	e8 00 00 00 00	 call	 ??3@YAXPAXI@Z		; operator delete
  00046	83 c4 08	 add	 esp, 8
$LN49@Destroy_ra:
; File C:\Program Files\Microsoft Visual Studio\2022\Community\VC\Tools\MSVC\14.34.31933\include\xstring

; 5019 :         _My_data._Mysize = 0;

  00049	c7 46 fc 00 00
	00 00		 mov	 DWORD PTR [esi-4], 0

; 5020 :         _My_data._Myres  = _BUF_SIZE - 1;

  00050	c7 06 0f 00 00
	00		 mov	 DWORD PTR [esi], 15	; 0000000fH

; 5021 :         // the _Traits::assign is last so the codegen doesn't think the char write can alias this
; 5022 :         _Traits::assign(_My_data._Bx._Buf[0], _Elem());

  00056	c6 46 ec 00	 mov	 BYTE PTR [esi-20], 0
; File C:\Program Files\Microsoft Visual Studio\2022\Community\VC\Tools\MSVC\14.34.31933\include\xmemory

; 947  :         for (; _First != _Last; ++_First) {

  0005a	81 c6 9c 00 00
	00		 add	 esi, 156		; 0000009cH
  00060	8d 46 ec	 lea	 eax, DWORD PTR [esi-20]
  00063	3b c7		 cmp	 eax, edi
  00065	75 ab		 jne	 SHORT $LL4@Destroy_ra
$LN50@Destroy_ra:
  00067	5f		 pop	 edi

; 948  :             allocator_traits<_Alloc>::destroy(_Al, _Unfancy(_First));
; 949  :         }
; 950  :     }
; 951  : }

  00068	5e		 pop	 esi
  00069	5d		 pop	 ebp
  0006a	c3		 ret	 0
$LN33@Destroy_ra:

; 164  :     _STL_VERIFY(_Back_shift >= _Min_back_shift && _Back_shift <= _Non_user_size, "invalid argument");

  0006b	e8 00 00 00 00	 call	 __invalid_parameter_noinfo_noreturn
$LN51@Destroy_ra:
  00070	cc		 int	 3
??$_Destroy_range@V?$allocator@USTerrainTexture@@@std@@@std@@YAXPAUSTerrainTexture@@QAU1@AAV?$allocator@USTerrainTexture@@@0@@Z ENDP ; std::_Destroy_range<std::allocator<STerrainTexture> >
_TEXT	ENDS
; Function compile flags: /Ogtp
; File C:\Program Files\Microsoft Visual Studio\2022\Community\VC\Tools\MSVC\14.34.31933\include\xtree
; File C:\Program Files\Microsoft Visual Studio\2022\Community\VC\Tools\MSVC\14.34.31933\include\xmemory
;	COMDAT ??1?$map@V?$basic_string@DU?$char_traits@D@std@@V?$allocator@D@2@@std@@V?$vector@V?$basic_string@DU?$char_traits@D@std@@V?$allocator@D@2@@std@@V?$allocator@V?$basic_string@DU?$char_traits@D@std@@V?$allocator@D@2@@std@@@2@@2@U?$less@V?$basic_string@DU?$char_traits@D@std@@V?$allocator@D@2@@std@@@2@V?$allocator@U?$pair@$$CBV?$basic_string@DU?$char_traits@D@std@@V?$allocator@D@2@@std@@V?$vector@V?$basic_string@DU?$char_traits@D@std@@V?$allocator@D@2@@std@@V?$allocator@V?$basic_string@DU?$char_traits@D@std@@V?$allocator@D@2@@std@@@2@@2@@std@@@2@@std@@QAE@XZ
_TEXT	SEGMENT
??1?$map@V?$basic_string@DU?$char_traits@D@std@@V?$allocator@D@2@@std@@V?$vector@V?$basic_string@DU?$char_traits@D@std@@V?$allocator@D@2@@std@@V?$allocator@V?$basic_string@DU?$char_traits@D@std@@V?$allocator@D@2@@std@@@2@@2@U?$less@V?$basic_string@DU?$char_traits@D@std@@V?$allocator@D@2@@std@@@2@V?$allocator@U?$pair@$$CBV?$basic_string@DU?$char_traits@D@std@@V?$allocator@D@2@@std@@V?$vector@V?$basic_string@DU?$char_traits@D@std@@V?$allocator@D@2@@std@@V?$allocator@V?$basic_string@DU?$char_traits@D@std@@V?$allocator@D@2@@std@@@2@@2@@std@@@2@@std@@QAE@XZ PROC ; std::map<std::basic_string<char,std::char_traits<char>,std::allocator<char> >,std::vector<std::basic_string<char,std::char_traits<char>,std::allocator<char> >,std::allocator<std::basic_string<char,std::char_traits<char>,std::allocator<char> > > >,std::less<std::basic_string<char,std::char_traits<char>,std::allocator<char> > >,std::allocator<std::pair<std::basic_string<char,std::char_traits<char>,std::allocator<char> > const ,std::vector<std::basic_string<char,std::char_traits<char>,std::allocator<char> >,std::allocator<std::basic_string<char,std::char_traits<char>,std::allocator<char> > > > > > >::~map<std::basic_string<char,std::char_traits<char>,std::allocator<char> >,std::vector<std::basic_string<char,std::char_traits<char>,std::allocator<char> >,std::allocator<std::basic_string<char,std::char_traits<char>,std::allocator<char> > > >,std::less<std::basic_string<char,std::char_traits<char>,std::allocator<char> > >,std::allocator<std::pair<std::basic_string<char,std::char_traits<char>,std::allocator<char> > const ,std::vector<std::basic_string<char,std::char_traits<char>,std::allocator<char> >,std::allocator<std::basic_string<char,std::char_traits<char>,std::allocator<char> > > > > > >, COMDAT
; _this$ = ecx
; File C:\Program Files\Microsoft Visual Studio\2022\Community\VC\Tools\MSVC\14.34.31933\include\xtree

; 754  :         _Erase_tree(_Al, _Myhead->_Parent);

  00000	56		 push	 esi
  00001	8b f1		 mov	 esi, ecx
  00003	8b 06		 mov	 eax, DWORD PTR [esi]
  00005	ff 70 04	 push	 DWORD PTR [eax+4]
  00008	56		 push	 esi
  00009	e8 00 00 00 00	 call	 ??$_Erase_tree@V?$allocator@U?$_Tree_node@U?$pair@$$CBV?$basic_string@DU?$char_traits@D@std@@V?$allocator@D@2@@std@@V?$vector@V?$basic_string@DU?$char_traits@D@std@@V?$allocator@D@2@@std@@V?$allocator@V?$basic_string@DU?$char_traits@D@std@@V?$allocator@D@2@@std@@@2@@2@@std@@PAX@std@@@std@@@?$_Tree_val@U?$_Tree_simple_types@U?$pair@$$CBV?$basic_string@DU?$char_traits@D@std@@V?$allocator@D@2@@std@@V?$vector@V?$basic_string@DU?$char_traits@D@std@@V?$allocator@D@2@@std@@V?$allocator@V?$basic_string@DU?$char_traits@D@std@@V?$allocator@D@2@@std@@@2@@2@@std@@@std@@@std@@QAEXAAV?$allocator@U?$_Tree_node@U?$pair@$$CBV?$basic_string@DU?$char_traits@D@std@@V?$allocator@D@2@@std@@V?$vector@V?$basic_string@DU?$char_traits@D@std@@V?$allocator@D@2@@std@@V?$allocator@V?$basic_string@DU?$char_traits@D@std@@V?$allocator@D@2@@std@@@2@@2@@std@@PAX@std@@@1@PAU?$_Tree_node@U?$pair@$$CBV?$basic_string@DU?$char_traits@D@std@@V?$allocator@D@2@@std@@V?$vector@V?$basic_string@DU?$char_traits@D@std@@V?$allocator@D@2@@std@@V?$allocator@V?$basic_string@DU?$char_traits@D@std@@V?$allocator@D@2@@std@@@2@@2@@std@@PAX@1@@Z ; std::_Tree_val<std::_Tree_simple_types<std::pair<std::basic_string<char,std::char_traits<char>,std::allocator<char> > const ,std::vector<std::basic_string<char,std::char_traits<char>,std::allocator<char> >,std::allocator<std::basic_string<char,std::char_traits<char>,std::allocator<char> > > > > > >::_Erase_tree<std::allocator<std::_Tree_node<std::pair<std::basic_string<char,std::char_traits<char>,std::allocator<char> > const ,std::vector<std::basic_string<char,std::char_traits<char>,std::allocator<char> >,std::allocator<std::basic_string<char,std::char_traits<char>,std::allocator<char> > > > >,void *> > >
; File C:\Program Files\Microsoft Visual Studio\2022\Community\VC\Tools\MSVC\14.34.31933\include\xmemory

; 255  :         ::operator delete(_Ptr, _Bytes);

  0000e	6a 34		 push	 52			; 00000034H
  00010	ff 36		 push	 DWORD PTR [esi]
  00012	e8 00 00 00 00	 call	 ??3@YAXPAXI@Z		; operator delete
  00017	83 c4 08	 add	 esp, 8
  0001a	5e		 pop	 esi
  0001b	c3		 ret	 0
??1?$map@V?$basic_string@DU?$char_traits@D@std@@V?$allocator@D@2@@std@@V?$vector@V?$basic_string@DU?$char_traits@D@std@@V?$allocator@D@2@@std@@V?$allocator@V?$basic_string@DU?$char_traits@D@std@@V?$allocator@D@2@@std@@@2@@2@U?$less@V?$basic_string@DU?$char_traits@D@std@@V?$allocator@D@2@@std@@@2@V?$allocator@U?$pair@$$CBV?$basic_string@DU?$char_traits@D@std@@V?$allocator@D@2@@std@@V?$vector@V?$basic_string@DU?$char_traits@D@std@@V?$allocator@D@2@@std@@V?$allocator@V?$basic_string@DU?$char_traits@D@std@@V?$allocator@D@2@@std@@@2@@2@@std@@@2@@std@@QAE@XZ ENDP ; std::map<std::basic_string<char,std::char_traits<char>,std::allocator<char> >,std::vector<std::basic_string<char,std::char_traits<char>,std::allocator<char> >,std::allocator<std::basic_string<char,std::char_traits<char>,std::allocator<char> > > >,std::less<std::basic_string<char,std::char_traits<char>,std::allocator<char> > >,std::allocator<std::pair<std::basic_string<char,std::char_traits<char>,std::allocator<char> > const ,std::vector<std::basic_string<char,std::char_traits<char>,std::allocator<char> >,std::allocator<std::basic_string<char,std::char_traits<char>,std::allocator<char> > > > > > >::~map<std::basic_string<char,std::char_traits<char>,std::allocator<char> >,std::vector<std::basic_string<char,std::char_traits<char>,std::allocator<char> >,std::allocator<std::basic_string<char,std::char_traits<char>,std::allocator<char> > > >,std::less<std::basic_string<char,std::char_traits<char>,std::allocator<char> > >,std::allocator<std::pair<std::basic_string<char,std::char_traits<char>,std::allocator<char> > const ,std::vector<std::basic_string<char,std::char_traits<char>,std::allocator<char> >,std::allocator<std::basic_string<char,std::char_traits<char>,std::allocator<char> > > > > > >
_TEXT	ENDS
; Function compile flags: /Ogtp
; File C:\Program Files\Microsoft Visual Studio\2022\Community\VC\Tools\MSVC\14.34.31933\include\xtree
;	COMDAT ?_Insert_node@?$_Tree_val@U?$_Tree_simple_types@U?$pair@$$CBV?$basic_string@DU?$char_traits@D@std@@V?$allocator@D@2@@std@@V?$vector@V?$basic_string@DU?$char_traits@D@std@@V?$allocator@D@2@@std@@V?$allocator@V?$basic_string@DU?$char_traits@D@std@@V?$allocator@D@2@@std@@@2@@2@@std@@@std@@@std@@QAEPAU?$_Tree_node@U?$pair@$$CBV?$basic_string@DU?$char_traits@D@std@@V?$allocator@D@2@@std@@V?$vector@V?$basic_string@DU?$char_traits@D@std@@V?$allocator@D@2@@std@@V?$allocator@V?$basic_string@DU?$char_traits@D@std@@V?$allocator@D@2@@std@@@2@@2@@std@@PAX@2@U?$_Tree_id@PAU?$_Tree_node@U?$pair@$$CBV?$basic_string@DU?$char_traits@D@std@@V?$allocator@D@2@@std@@V?$vector@V?$basic_string@DU?$char_traits@D@std@@V?$allocator@D@2@@std@@V?$allocator@V?$basic_string@DU?$char_traits@D@std@@V?$allocator@D@2@@std@@@2@@2@@std@@PAX@std@@@2@QAU32@@Z
_TEXT	SEGMENT
__Head$1$ = -4						; size = 4
__Loc$ = 8						; size = 8
__Newnode$ = 16						; size = 4
?_Insert_node@?$_Tree_val@U?$_Tree_simple_types@U?$pair@$$CBV?$basic_string@DU?$char_traits@D@std@@V?$allocator@D@2@@std@@V?$vector@V?$basic_string@DU?$char_traits@D@std@@V?$allocator@D@2@@std@@V?$allocator@V?$basic_string@DU?$char_traits@D@std@@V?$allocator@D@2@@std@@@2@@2@@std@@@std@@@std@@QAEPAU?$_Tree_node@U?$pair@$$CBV?$basic_string@DU?$char_traits@D@std@@V?$allocator@D@2@@std@@V?$vector@V?$basic_string@DU?$char_traits@D@std@@V?$allocator@D@2@@std@@V?$allocator@V?$basic_string@DU?$char_traits@D@std@@V?$allocator@D@2@@std@@@2@@2@@std@@PAX@2@U?$_Tree_id@PAU?$_Tree_node@U?$pair@$$CBV?$basic_string@DU?$char_traits@D@std@@V?$allocator@D@2@@std@@V?$vector@V?$basic_string@DU?$char_traits@D@std@@V?$allocator@D@2@@std@@V?$allocator@V?$basic_string@DU?$char_traits@D@std@@V?$allocator@D@2@@std@@@2@@2@@std@@PAX@std@@@2@QAU32@@Z PROC ; std::_Tree_val<std::_Tree_simple_types<std::pair<std::basic_string<char,std::char_traits<char>,std::allocator<char> > const ,std::vector<std::basic_string<char,std::char_traits<char>,std::allocator<char> >,std::allocator<std::basic_string<char,std::char_traits<char>,std::allocator<char> > > > > > >::_Insert_node, COMDAT
; _this$ = ecx

; 646  :     _Nodeptr _Insert_node(const _Tree_id<_Nodeptr> _Loc, const _Nodeptr _Newnode) noexcept {

  00000	55		 push	 ebp
  00001	8b ec		 mov	 ebp, esp
  00003	51		 push	 ecx

; 647  :         ++_Mysize;
; 648  :         const auto _Head  = _Myhead;
; 649  :         _Newnode->_Parent = _Loc._Parent;

  00004	8b 55 08	 mov	 edx, DWORD PTR __Loc$[ebp]
  00007	53		 push	 ebx
  00008	8b d9		 mov	 ebx, ecx
  0000a	57		 push	 edi
  0000b	8b 7d 10	 mov	 edi, DWORD PTR __Newnode$[ebp]
  0000e	8b 03		 mov	 eax, DWORD PTR [ebx]
  00010	ff 43 04	 inc	 DWORD PTR [ebx+4]
  00013	89 45 fc	 mov	 DWORD PTR __Head$1$[ebp], eax
  00016	89 57 04	 mov	 DWORD PTR [edi+4], edx

; 650  :         if (_Loc._Parent == _Head) { // first node in tree, just set head values

  00019	3b d0		 cmp	 edx, eax
  0001b	75 16		 jne	 SHORT $LN5@Insert_nod

; 651  :             _Head->_Left     = _Newnode;

  0001d	89 38		 mov	 DWORD PTR [eax], edi

; 652  :             _Head->_Parent   = _Newnode;

  0001f	89 78 04	 mov	 DWORD PTR [eax+4], edi

; 653  :             _Head->_Right    = _Newnode;

  00022	89 78 08	 mov	 DWORD PTR [eax+8], edi

; 712  :         return _Newnode;
; 713  :     }

  00025	8b c7		 mov	 eax, edi
  00027	c6 47 0c 01	 mov	 BYTE PTR [edi+12], 1
  0002b	5f		 pop	 edi
  0002c	5b		 pop	 ebx
  0002d	8b e5		 mov	 esp, ebp
  0002f	5d		 pop	 ebp
  00030	c2 0c 00	 ret	 12			; 0000000cH
$LN5@Insert_nod:

; 654  :             _Newnode->_Color = _Black; // the root is black
; 655  :             return _Newnode;
; 656  :         }
; 657  : 
; 658  :         _STL_INTERNAL_CHECK(_Loc._Child != _Tree_child::_Unused);
; 659  :         if (_Loc._Child == _Tree_child::_Right) { // add to right of _Loc._Parent

  00033	83 7d 0c 00	 cmp	 DWORD PTR __Loc$[ebp+4], 0
  00037	75 0d		 jne	 SHORT $LN6@Insert_nod

; 660  :             _STL_INTERNAL_CHECK(_Loc._Parent->_Right->_Isnil);
; 661  :             _Loc._Parent->_Right = _Newnode;

  00039	89 7a 08	 mov	 DWORD PTR [edx+8], edi

; 662  :             if (_Loc._Parent == _Head->_Right) { // remember rightmost node

  0003c	3b 50 08	 cmp	 edx, DWORD PTR [eax+8]
  0003f	75 0d		 jne	 SHORT $LN9@Insert_nod

; 663  :                 _Head->_Right = _Newnode;

  00041	89 78 08	 mov	 DWORD PTR [eax+8], edi

; 664  :             }
; 665  :         } else { // add to left of _Loc._Parent

  00044	eb 08		 jmp	 SHORT $LN9@Insert_nod
$LN6@Insert_nod:

; 666  :             _STL_INTERNAL_CHECK(_Loc._Parent->_Left->_Isnil);
; 667  :             _Loc._Parent->_Left = _Newnode;

  00046	89 3a		 mov	 DWORD PTR [edx], edi

; 668  :             if (_Loc._Parent == _Head->_Left) { // remember leftmost node

  00048	3b 10		 cmp	 edx, DWORD PTR [eax]
  0004a	75 02		 jne	 SHORT $LN9@Insert_nod

; 669  :                 _Head->_Left = _Newnode;

  0004c	89 38		 mov	 DWORD PTR [eax], edi
$LN9@Insert_nod:

; 670  :             }
; 671  :         }
; 672  : 
; 673  :         for (_Nodeptr _Pnode = _Newnode; _Pnode->_Parent->_Color == _Red;) {

  0004e	8b 4f 04	 mov	 ecx, DWORD PTR [edi+4]
  00051	8b c7		 mov	 eax, edi
  00053	80 79 0c 00	 cmp	 BYTE PTR [ecx+12], 0
  00057	0f 85 7d 01 00
	00		 jne	 $LN3@Insert_nod
  0005d	56		 push	 esi
  0005e	66 90		 npad	 2
$LL2@Insert_nod:

; 674  :             if (_Pnode->_Parent == _Pnode->_Parent->_Parent->_Left) { // fixup red-red in left subtree

  00060	8b 50 04	 mov	 edx, DWORD PTR [eax+4]
  00063	8b 72 04	 mov	 esi, DWORD PTR [edx+4]
  00066	8b 0e		 mov	 ecx, DWORD PTR [esi]
  00068	3b d1		 cmp	 edx, ecx
  0006a	0f 85 aa 00 00
	00		 jne	 $LN10@Insert_nod

; 675  :                 const auto _Parent_sibling = _Pnode->_Parent->_Parent->_Right;

  00070	8b 4e 08	 mov	 ecx, DWORD PTR [esi+8]

; 676  :                 if (_Parent_sibling->_Color == _Red) { // parent's sibling has two red children, blacken both

  00073	80 79 0c 00	 cmp	 BYTE PTR [ecx+12], 0
  00077	0f 84 a3 00 00
	00		 je	 $LN54@Insert_nod

; 677  :                     _Pnode->_Parent->_Color          = _Black;
; 678  :                     _Parent_sibling->_Color          = _Black;
; 679  :                     _Pnode->_Parent->_Parent->_Color = _Red;
; 680  :                     _Pnode                           = _Pnode->_Parent->_Parent;
; 681  :                 } else { // parent's sibling has red and black children
; 682  :                     if (_Pnode == _Pnode->_Parent->_Right) { // rotate right child to left

  0007d	8b 72 08	 mov	 esi, DWORD PTR [edx+8]
  00080	3b c6		 cmp	 eax, esi
  00082	75 37		 jne	 SHORT $LN51@Insert_nod

; 462  :         _Wherenode->_Right = _Pnode->_Left;

  00084	8b 0e		 mov	 ecx, DWORD PTR [esi]

; 683  :                         _Pnode = _Pnode->_Parent;

  00086	8b c2		 mov	 eax, edx

; 462  :         _Wherenode->_Right = _Pnode->_Left;

  00088	89 4a 08	 mov	 DWORD PTR [edx+8], ecx

; 463  : 
; 464  :         if (!_Pnode->_Left->_Isnil) {

  0008b	8b 0e		 mov	 ecx, DWORD PTR [esi]
  0008d	80 79 0d 00	 cmp	 BYTE PTR [ecx+13], 0
  00091	75 03		 jne	 SHORT $LN34@Insert_nod

; 465  :             _Pnode->_Left->_Parent = _Wherenode;

  00093	89 41 04	 mov	 DWORD PTR [ecx+4], eax
$LN34@Insert_nod:

; 466  :         }
; 467  : 
; 468  :         _Pnode->_Parent = _Wherenode->_Parent;

  00096	8b 4a 04	 mov	 ecx, DWORD PTR [edx+4]
  00099	89 4e 04	 mov	 DWORD PTR [esi+4], ecx

; 469  : 
; 470  :         if (_Wherenode == _Myhead->_Parent) {

  0009c	8b 0b		 mov	 ecx, DWORD PTR [ebx]
  0009e	3b 41 04	 cmp	 eax, DWORD PTR [ecx+4]
  000a1	75 05		 jne	 SHORT $LN35@Insert_nod

; 471  :             _Myhead->_Parent = _Pnode;

  000a3	89 71 04	 mov	 DWORD PTR [ecx+4], esi
  000a6	eb 0e		 jmp	 SHORT $LN38@Insert_nod
$LN35@Insert_nod:

; 472  :         } else if (_Wherenode == _Wherenode->_Parent->_Left) {

  000a8	8b 4a 04	 mov	 ecx, DWORD PTR [edx+4]
  000ab	3b 01		 cmp	 eax, DWORD PTR [ecx]
  000ad	75 04		 jne	 SHORT $LN37@Insert_nod

; 473  :             _Wherenode->_Parent->_Left = _Pnode;

  000af	89 31		 mov	 DWORD PTR [ecx], esi

; 474  :         } else {

  000b1	eb 03		 jmp	 SHORT $LN38@Insert_nod
$LN37@Insert_nod:

; 475  :             _Wherenode->_Parent->_Right = _Pnode;

  000b3	89 71 08	 mov	 DWORD PTR [ecx+8], esi
$LN38@Insert_nod:

; 476  :         }
; 477  : 
; 478  :         _Pnode->_Left       = _Wherenode;

  000b6	89 06		 mov	 DWORD PTR [esi], eax

; 479  :         _Wherenode->_Parent = _Pnode;

  000b8	89 72 04	 mov	 DWORD PTR [edx+4], esi
$LN51@Insert_nod:

; 684  :                         _Lrotate(_Pnode);
; 685  :                     }
; 686  : 
; 687  :                     _Pnode->_Parent->_Color          = _Black; // propagate red up

  000bb	8b 48 04	 mov	 ecx, DWORD PTR [eax+4]
  000be	c6 41 0c 01	 mov	 BYTE PTR [ecx+12], 1

; 688  :                     _Pnode->_Parent->_Parent->_Color = _Red;

  000c2	8b 48 04	 mov	 ecx, DWORD PTR [eax+4]
  000c5	8b 49 04	 mov	 ecx, DWORD PTR [ecx+4]
  000c8	c6 41 0c 00	 mov	 BYTE PTR [ecx+12], 0

; 689  :                     _Rrotate(_Pnode->_Parent->_Parent);

  000cc	8b 48 04	 mov	 ecx, DWORD PTR [eax+4]
  000cf	8b 51 04	 mov	 edx, DWORD PTR [ecx+4]

; 483  :         _Nodeptr _Pnode   = _Wherenode->_Left;

  000d2	8b 32		 mov	 esi, DWORD PTR [edx]

; 484  :         _Wherenode->_Left = _Pnode->_Right;

  000d4	8b 4e 08	 mov	 ecx, DWORD PTR [esi+8]
  000d7	89 0a		 mov	 DWORD PTR [edx], ecx

; 485  : 
; 486  :         if (!_Pnode->_Right->_Isnil) {

  000d9	8b 4e 08	 mov	 ecx, DWORD PTR [esi+8]
  000dc	80 79 0d 00	 cmp	 BYTE PTR [ecx+13], 0
  000e0	75 03		 jne	 SHORT $LN20@Insert_nod

; 487  :             _Pnode->_Right->_Parent = _Wherenode;

  000e2	89 51 04	 mov	 DWORD PTR [ecx+4], edx
$LN20@Insert_nod:

; 488  :         }
; 489  : 
; 490  :         _Pnode->_Parent = _Wherenode->_Parent;

  000e5	8b 4a 04	 mov	 ecx, DWORD PTR [edx+4]
  000e8	89 4e 04	 mov	 DWORD PTR [esi+4], ecx

; 491  : 
; 492  :         if (_Wherenode == _Myhead->_Parent) {

  000eb	8b 0b		 mov	 ecx, DWORD PTR [ebx]
  000ed	3b 51 04	 cmp	 edx, DWORD PTR [ecx+4]
  000f0	75 0b		 jne	 SHORT $LN21@Insert_nod

; 493  :             _Myhead->_Parent = _Pnode;

  000f2	89 71 04	 mov	 DWORD PTR [ecx+4], esi

; 498  :         }
; 499  : 
; 500  :         _Pnode->_Right      = _Wherenode;

  000f5	89 56 08	 mov	 DWORD PTR [esi+8], edx

; 690  :                 }
; 691  :             } else { // fixup red-red in right subtree

  000f8	e9 cc 00 00 00	 jmp	 $LN53@Insert_nod
$LN21@Insert_nod:

; 494  :         } else if (_Wherenode == _Wherenode->_Parent->_Right) {

  000fd	8b 4a 04	 mov	 ecx, DWORD PTR [edx+4]
  00100	3b 51 08	 cmp	 edx, DWORD PTR [ecx+8]
  00103	75 0b		 jne	 SHORT $LN23@Insert_nod

; 495  :             _Wherenode->_Parent->_Right = _Pnode;

  00105	89 71 08	 mov	 DWORD PTR [ecx+8], esi

; 498  :         }
; 499  : 
; 500  :         _Pnode->_Right      = _Wherenode;

  00108	89 56 08	 mov	 DWORD PTR [esi+8], edx

; 690  :                 }
; 691  :             } else { // fixup red-red in right subtree

  0010b	e9 b9 00 00 00	 jmp	 $LN53@Insert_nod
$LN23@Insert_nod:

; 497  :             _Wherenode->_Parent->_Left = _Pnode;

  00110	89 31		 mov	 DWORD PTR [ecx], esi

; 498  :         }
; 499  : 
; 500  :         _Pnode->_Right      = _Wherenode;

  00112	89 56 08	 mov	 DWORD PTR [esi+8], edx

; 690  :                 }
; 691  :             } else { // fixup red-red in right subtree

  00115	e9 af 00 00 00	 jmp	 $LN53@Insert_nod
$LN10@Insert_nod:

; 692  :                 const auto _Parent_sibling = _Pnode->_Parent->_Parent->_Left;
; 693  :                 if (_Parent_sibling->_Color == _Red) { // parent's sibling has two red children, blacken both

  0011a	80 79 0c 00	 cmp	 BYTE PTR [ecx+12], 0
  0011e	75 1d		 jne	 SHORT $LN15@Insert_nod
$LN54@Insert_nod:

; 670  :             }
; 671  :         }
; 672  : 
; 673  :         for (_Nodeptr _Pnode = _Newnode; _Pnode->_Parent->_Color == _Red;) {

  00120	c6 42 0c 01	 mov	 BYTE PTR [edx+12], 1
  00124	c6 41 0c 01	 mov	 BYTE PTR [ecx+12], 1
  00128	8b 48 04	 mov	 ecx, DWORD PTR [eax+4]
  0012b	8b 49 04	 mov	 ecx, DWORD PTR [ecx+4]
  0012e	c6 41 0c 00	 mov	 BYTE PTR [ecx+12], 0
  00132	8b 48 04	 mov	 ecx, DWORD PTR [eax+4]
  00135	8b 41 04	 mov	 eax, DWORD PTR [ecx+4]
  00138	e9 8f 00 00 00	 jmp	 $LN32@Insert_nod
$LN15@Insert_nod:

; 694  :                     _Pnode->_Parent->_Color          = _Black;
; 695  :                     _Parent_sibling->_Color          = _Black;
; 696  :                     _Pnode->_Parent->_Parent->_Color = _Red;
; 697  :                     _Pnode                           = _Pnode->_Parent->_Parent;
; 698  :                 } else { // parent's sibling has red and black children
; 699  :                     if (_Pnode == _Pnode->_Parent->_Left) { // rotate left child to right

  0013d	8b 32		 mov	 esi, DWORD PTR [edx]
  0013f	3b c6		 cmp	 eax, esi
  00141	75 3a		 jne	 SHORT $LN46@Insert_nod

; 484  :         _Wherenode->_Left = _Pnode->_Right;

  00143	8b 4e 08	 mov	 ecx, DWORD PTR [esi+8]

; 700  :                         _Pnode = _Pnode->_Parent;

  00146	8b c2		 mov	 eax, edx

; 484  :         _Wherenode->_Left = _Pnode->_Right;

  00148	89 08		 mov	 DWORD PTR [eax], ecx

; 485  : 
; 486  :         if (!_Pnode->_Right->_Isnil) {

  0014a	8b 4e 08	 mov	 ecx, DWORD PTR [esi+8]
  0014d	80 79 0d 00	 cmp	 BYTE PTR [ecx+13], 0
  00151	75 03		 jne	 SHORT $LN41@Insert_nod

; 487  :             _Pnode->_Right->_Parent = _Wherenode;

  00153	89 41 04	 mov	 DWORD PTR [ecx+4], eax
$LN41@Insert_nod:

; 488  :         }
; 489  : 
; 490  :         _Pnode->_Parent = _Wherenode->_Parent;

  00156	8b 4a 04	 mov	 ecx, DWORD PTR [edx+4]
  00159	89 4e 04	 mov	 DWORD PTR [esi+4], ecx

; 491  : 
; 492  :         if (_Wherenode == _Myhead->_Parent) {

  0015c	8b 0b		 mov	 ecx, DWORD PTR [ebx]
  0015e	3b 41 04	 cmp	 eax, DWORD PTR [ecx+4]
  00161	75 05		 jne	 SHORT $LN42@Insert_nod

; 493  :             _Myhead->_Parent = _Pnode;

  00163	89 71 04	 mov	 DWORD PTR [ecx+4], esi
  00166	eb 0f		 jmp	 SHORT $LN45@Insert_nod
$LN42@Insert_nod:

; 494  :         } else if (_Wherenode == _Wherenode->_Parent->_Right) {

  00168	8b 4a 04	 mov	 ecx, DWORD PTR [edx+4]
  0016b	3b 41 08	 cmp	 eax, DWORD PTR [ecx+8]
  0016e	75 05		 jne	 SHORT $LN44@Insert_nod

; 495  :             _Wherenode->_Parent->_Right = _Pnode;

  00170	89 71 08	 mov	 DWORD PTR [ecx+8], esi

; 496  :         } else {

  00173	eb 02		 jmp	 SHORT $LN45@Insert_nod
$LN44@Insert_nod:

; 497  :             _Wherenode->_Parent->_Left = _Pnode;

  00175	89 31		 mov	 DWORD PTR [ecx], esi
$LN45@Insert_nod:

; 498  :         }
; 499  : 
; 500  :         _Pnode->_Right      = _Wherenode;

  00177	89 46 08	 mov	 DWORD PTR [esi+8], eax

; 501  :         _Wherenode->_Parent = _Pnode;

  0017a	89 72 04	 mov	 DWORD PTR [edx+4], esi
$LN46@Insert_nod:

; 701  :                         _Rrotate(_Pnode);
; 702  :                     }
; 703  : 
; 704  :                     _Pnode->_Parent->_Color          = _Black; // propagate red up

  0017d	8b 48 04	 mov	 ecx, DWORD PTR [eax+4]
  00180	c6 41 0c 01	 mov	 BYTE PTR [ecx+12], 1

; 705  :                     _Pnode->_Parent->_Parent->_Color = _Red;

  00184	8b 48 04	 mov	 ecx, DWORD PTR [eax+4]
  00187	8b 49 04	 mov	 ecx, DWORD PTR [ecx+4]
  0018a	c6 41 0c 00	 mov	 BYTE PTR [ecx+12], 0

; 706  :                     _Lrotate(_Pnode->_Parent->_Parent);

  0018e	8b 48 04	 mov	 ecx, DWORD PTR [eax+4]
  00191	8b 51 04	 mov	 edx, DWORD PTR [ecx+4]

; 461  :         _Nodeptr _Pnode    = _Wherenode->_Right;

  00194	8b 72 08	 mov	 esi, DWORD PTR [edx+8]

; 462  :         _Wherenode->_Right = _Pnode->_Left;

  00197	8b 0e		 mov	 ecx, DWORD PTR [esi]
  00199	89 4a 08	 mov	 DWORD PTR [edx+8], ecx

; 463  : 
; 464  :         if (!_Pnode->_Left->_Isnil) {

  0019c	8b 0e		 mov	 ecx, DWORD PTR [esi]
  0019e	80 79 0d 00	 cmp	 BYTE PTR [ecx+13], 0
  001a2	75 03		 jne	 SHORT $LN27@Insert_nod

; 465  :             _Pnode->_Left->_Parent = _Wherenode;

  001a4	89 51 04	 mov	 DWORD PTR [ecx+4], edx
$LN27@Insert_nod:

; 466  :         }
; 467  : 
; 468  :         _Pnode->_Parent = _Wherenode->_Parent;

  001a7	8b 4a 04	 mov	 ecx, DWORD PTR [edx+4]
  001aa	89 4e 04	 mov	 DWORD PTR [esi+4], ecx

; 469  : 
; 470  :         if (_Wherenode == _Myhead->_Parent) {

  001ad	8b 0b		 mov	 ecx, DWORD PTR [ebx]
  001af	3b 51 04	 cmp	 edx, DWORD PTR [ecx+4]
  001b2	75 05		 jne	 SHORT $LN28@Insert_nod

; 471  :             _Myhead->_Parent = _Pnode;

  001b4	89 71 04	 mov	 DWORD PTR [ecx+4], esi
  001b7	eb 0e		 jmp	 SHORT $LN31@Insert_nod
$LN28@Insert_nod:

; 472  :         } else if (_Wherenode == _Wherenode->_Parent->_Left) {

  001b9	8b 4a 04	 mov	 ecx, DWORD PTR [edx+4]
  001bc	3b 11		 cmp	 edx, DWORD PTR [ecx]
  001be	75 04		 jne	 SHORT $LN30@Insert_nod

; 473  :             _Wherenode->_Parent->_Left = _Pnode;

  001c0	89 31		 mov	 DWORD PTR [ecx], esi

; 474  :         } else {

  001c2	eb 03		 jmp	 SHORT $LN31@Insert_nod
$LN30@Insert_nod:

; 475  :             _Wherenode->_Parent->_Right = _Pnode;

  001c4	89 71 08	 mov	 DWORD PTR [ecx+8], esi
$LN31@Insert_nod:

; 476  :         }
; 477  : 
; 478  :         _Pnode->_Left       = _Wherenode;

  001c7	89 16		 mov	 DWORD PTR [esi], edx
$LN53@Insert_nod:

; 670  :             }
; 671  :         }
; 672  : 
; 673  :         for (_Nodeptr _Pnode = _Newnode; _Pnode->_Parent->_Color == _Red;) {

  001c9	89 72 04	 mov	 DWORD PTR [edx+4], esi
$LN32@Insert_nod:
  001cc	8b 48 04	 mov	 ecx, DWORD PTR [eax+4]
  001cf	80 79 0c 00	 cmp	 BYTE PTR [ecx+12], 0
  001d3	0f 84 87 fe ff
	ff		 je	 $LL2@Insert_nod
  001d9	5e		 pop	 esi
$LN3@Insert_nod:

; 707  :                 }
; 708  :             }
; 709  :         }
; 710  : 
; 711  :         _Head->_Parent->_Color = _Black; // root is always black

  001da	8b 45 fc	 mov	 eax, DWORD PTR __Head$1$[ebp]
  001dd	8b 40 04	 mov	 eax, DWORD PTR [eax+4]
  001e0	c6 40 0c 01	 mov	 BYTE PTR [eax+12], 1

; 712  :         return _Newnode;
; 713  :     }

  001e4	8b c7		 mov	 eax, edi
  001e6	5f		 pop	 edi
  001e7	5b		 pop	 ebx
  001e8	8b e5		 mov	 esp, ebp
  001ea	5d		 pop	 ebp
  001eb	c2 0c 00	 ret	 12			; 0000000cH
?_Insert_node@?$_Tree_val@U?$_Tree_simple_types@U?$pair@$$CBV?$basic_string@DU?$char_traits@D@std@@V?$allocator@D@2@@std@@V?$vector@V?$basic_string@DU?$char_traits@D@std@@V?$allocator@D@2@@std@@V?$allocator@V?$basic_string@DU?$char_traits@D@std@@V?$allocator@D@2@@std@@@2@@2@@std@@@std@@@std@@QAEPAU?$_Tree_node@U?$pair@$$CBV?$basic_string@DU?$char_traits@D@std@@V?$allocator@D@2@@std@@V?$vector@V?$basic_string@DU?$char_traits@D@std@@V?$allocator@D@2@@std@@V?$allocator@V?$basic_string@DU?$char_traits@D@std@@V?$allocator@D@2@@std@@@2@@2@@std@@PAX@2@U?$_Tree_id@PAU?$_Tree_node@U?$pair@$$CBV?$basic_string@DU?$char_traits@D@std@@V?$allocator@D@2@@std@@V?$vector@V?$basic_string@DU?$char_traits@D@std@@V?$allocator@D@2@@std@@V?$allocator@V?$basic_string@DU?$char_traits@D@std@@V?$allocator@D@2@@std@@@2@@2@@std@@PAX@std@@@2@QAU32@@Z ENDP ; std::_Tree_val<std::_Tree_simple_types<std::pair<std::basic_string<char,std::char_traits<char>,std::allocator<char> > const ,std::vector<std::basic_string<char,std::char_traits<char>,std::allocator<char> >,std::allocator<std::basic_string<char,std::char_traits<char>,std::allocator<char> > > > > > >::_Insert_node
_TEXT	ENDS
; Function compile flags: /Ogtp
;	COMDAT ??_GCTextureSet@@UAEPAXI@Z
_TEXT	SEGMENT
___flags$ = 8						; size = 4
??_GCTextureSet@@UAEPAXI@Z PROC				; CTextureSet::`scalar deleting destructor', COMDAT
; _this$ = ecx
  00000	55		 push	 ebp
  00001	8b ec		 mov	 ebp, esp
  00003	56		 push	 esi
  00004	8b f1		 mov	 esi, ecx
  00006	e8 00 00 00 00	 call	 ??1CTextureSet@@UAE@XZ	; CTextureSet::~CTextureSet
  0000b	f6 45 08 01	 test	 BYTE PTR ___flags$[ebp], 1
  0000f	74 0e		 je	 SHORT $LN4@scalar
  00011	68 c4 00 00 00	 push	 196			; 000000c4H
  00016	56		 push	 esi
  00017	e8 00 00 00 00	 call	 ??3@YAXPAXI@Z		; operator delete
  0001c	83 c4 08	 add	 esp, 8
$LN4@scalar:
  0001f	8b c6		 mov	 eax, esi
  00021	5e		 pop	 esi
  00022	5d		 pop	 ebp
  00023	c2 04 00	 ret	 4
??_GCTextureSet@@UAEPAXI@Z ENDP				; CTextureSet::`scalar deleting destructor'
_TEXT	ENDS
; Function compile flags: /Ogtp
; File C:\Program Files\Microsoft Visual Studio\2022\Community\VC\Tools\MSVC\14.34.31933\include\vector
;	COMDAT ?_Xlength@?$vector@USTerrainTexture@@V?$allocator@USTerrainTexture@@@std@@@std@@CAXXZ
_TEXT	SEGMENT
?_Xlength@?$vector@USTerrainTexture@@V?$allocator@USTerrainTexture@@@std@@@std@@CAXXZ PROC ; std::vector<STerrainTexture,std::allocator<STerrainTexture> >::_Xlength, COMDAT

; 2201 :         _Xlength_error("vector too long");

  00000	68 00 00 00 00	 push	 OFFSET ??_C@_0BA@FOIKENOD@vector?5too?5long@
  00005	e8 00 00 00 00	 call	 ?_Xlength_error@std@@YAXPBD@Z ; std::_Xlength_error
$LN3@Xlength:
  0000a	cc		 int	 3
?_Xlength@?$vector@USTerrainTexture@@V?$allocator@USTerrainTexture@@@std@@@std@@CAXXZ ENDP ; std::vector<STerrainTexture,std::allocator<STerrainTexture> >::_Xlength
_TEXT	ENDS
; Function compile flags: /Ogtp
; File C:\Program Files\Microsoft Visual Studio\2022\Community\VC\Tools\MSVC\14.34.31933\include\vector
; File C:\Program Files\Microsoft Visual Studio\2022\Community\VC\Tools\MSVC\14.34.31933\include\xmemory
; File C:\Program Files\Microsoft Visual Studio\2022\Community\VC\Tools\MSVC\14.34.31933\include\vector
; File C:\Program Files\Microsoft Visual Studio\2022\Community\VC\Tools\MSVC\14.34.31933\include\xmemory
; File C:\Program Files\Microsoft Visual Studio\2022\Community\VC\Tools\MSVC\14.34.31933\include\vector
;	COMDAT ?_Change_array@?$vector@USTerrainTexture@@V?$allocator@USTerrainTexture@@@std@@@std@@AAEXQAUSTerrainTexture@@II@Z
_TEXT	SEGMENT
__Newvec$ = 8						; size = 4
__Newsize$ = 12						; size = 4
__Newcapacity$ = 16					; size = 4
?_Change_array@?$vector@USTerrainTexture@@V?$allocator@USTerrainTexture@@@std@@@std@@AAEXQAUSTerrainTexture@@II@Z PROC ; std::vector<STerrainTexture,std::allocator<STerrainTexture> >::_Change_array, COMDAT
; _this$ = ecx

; 2076 :     _CONSTEXPR20 void _Change_array(const pointer _Newvec, const size_type _Newsize, const size_type _Newcapacity) {

  00000	55		 push	 ebp
  00001	8b ec		 mov	 ebp, esp
  00003	56		 push	 esi
  00004	8b f1		 mov	 esi, ecx

; 2077 :         // orphan all iterators, discard old array, acquire new array
; 2078 :         auto& _Al         = _Getal();
; 2079 :         auto& _My_data    = _Mypair._Myval2;
; 2080 :         pointer& _Myfirst = _My_data._Myfirst;
; 2081 :         pointer& _Mylast  = _My_data._Mylast;
; 2082 :         pointer& _Myend   = _My_data._Myend;
; 2083 : 
; 2084 :         _My_data._Orphan_all();
; 2085 : 
; 2086 :         if (_Myfirst) { // destroy and deallocate old array

  00006	8b 06		 mov	 eax, DWORD PTR [esi]
  00008	85 c0		 test	 eax, eax
  0000a	74 53		 je	 SHORT $LN8@Change_arr

; 2087 :             _Destroy_range(_Myfirst, _Mylast, _Al);

  0000c	57		 push	 edi
  0000d	56		 push	 esi
  0000e	ff 76 04	 push	 DWORD PTR [esi+4]
  00011	50		 push	 eax
  00012	e8 00 00 00 00	 call	 ??$_Destroy_range@V?$allocator@USTerrainTexture@@@std@@@std@@YAXPAUSTerrainTexture@@QAU1@AAV?$allocator@USTerrainTexture@@@0@@Z ; std::_Destroy_range<std::allocator<STerrainTexture> >

; 2088 :             _ASAN_VECTOR_REMOVE;
; 2089 :             _Al.deallocate(_Myfirst, static_cast<size_type>(_Myend - _Myfirst));

  00017	8b 4e 08	 mov	 ecx, DWORD PTR [esi+8]
  0001a	b8 d3 20 0d d2	 mov	 eax, -770891565		; d20d20d3H
  0001f	8b 3e		 mov	 edi, DWORD PTR [esi]
  00021	83 c4 0c	 add	 esp, 12			; 0000000cH
  00024	2b cf		 sub	 ecx, edi
  00026	f7 e9		 imul	 ecx
  00028	03 d1		 add	 edx, ecx
  0002a	c1 fa 07	 sar	 edx, 7
  0002d	8b c2		 mov	 eax, edx
  0002f	c1 e8 1f	 shr	 eax, 31			; 0000001fH
  00032	03 c2		 add	 eax, edx
; File C:\Program Files\Microsoft Visual Studio\2022\Community\VC\Tools\MSVC\14.34.31933\include\xmemory

; 830  :         _Deallocate<_New_alignof<_Ty>>(_Ptr, sizeof(_Ty) * _Count);

  00034	69 c8 9c 00 00
	00		 imul	 ecx, eax, 156

; 251  :         if (_Bytes >= _Big_allocation_threshold) { // boost the alignment of big allocations to help autovectorization

  0003a	81 f9 00 10 00
	00		 cmp	 ecx, 4096		; 00001000H
  00040	72 12		 jb	 SHORT $LN18@Change_arr

; 150  :     const uintptr_t _Ptr_container   = _Ptr_user[-1];

  00042	8b 57 fc	 mov	 edx, DWORD PTR [edi-4]
  00045	83 c1 23	 add	 ecx, 35			; 00000023H

; 151  : 
; 152  :     // If the following asserts, it likely means that we are performing
; 153  :     // an aligned delete on memory coming from an unaligned allocation.
; 154  :     _STL_ASSERT(_Ptr_user[-2] == _Big_allocation_sentinel, "invalid argument");
; 155  : 
; 156  :     // Extra paranoia on aligned allocation/deallocation; ensure _Ptr_container is
; 157  :     // in range [_Min_back_shift, _Non_user_size]
; 158  : #ifdef _DEBUG
; 159  :     constexpr uintptr_t _Min_back_shift = 2 * sizeof(void*);
; 160  : #else // ^^^ _DEBUG ^^^ // vvv !_DEBUG vvv
; 161  :     constexpr uintptr_t _Min_back_shift = sizeof(void*);
; 162  : #endif // _DEBUG
; 163  :     const uintptr_t _Back_shift = reinterpret_cast<uintptr_t>(_Ptr) - _Ptr_container;

  00048	2b fa		 sub	 edi, edx

; 164  :     _STL_VERIFY(_Back_shift >= _Min_back_shift && _Back_shift <= _Non_user_size, "invalid argument");

  0004a	8d 47 fc	 lea	 eax, DWORD PTR [edi-4]
  0004d	83 f8 1f	 cmp	 eax, 31			; 0000001fH
  00050	77 2f		 ja	 SHORT $LN15@Change_arr

; 165  :     _Ptr = reinterpret_cast<void*>(_Ptr_container);

  00052	8b fa		 mov	 edi, edx
$LN18@Change_arr:

; 255  :         ::operator delete(_Ptr, _Bytes);

  00054	51		 push	 ecx
  00055	57		 push	 edi
  00056	e8 00 00 00 00	 call	 ??3@YAXPAXI@Z		; operator delete
  0005b	83 c4 08	 add	 esp, 8
  0005e	5f		 pop	 edi
$LN8@Change_arr:
; File C:\Program Files\Microsoft Visual Studio\2022\Community\VC\Tools\MSVC\14.34.31933\include\vector

; 2093 :         _Mylast  = _Newvec + _Newsize;

  0005f	69 45 0c 9c 00
	00 00		 imul	 eax, DWORD PTR __Newsize$[ebp], 156
  00066	8b 4d 08	 mov	 ecx, DWORD PTR __Newvec$[ebp]
  00069	89 0e		 mov	 DWORD PTR [esi], ecx
  0006b	03 c1		 add	 eax, ecx
  0006d	89 46 04	 mov	 DWORD PTR [esi+4], eax

; 2094 :         _Myend   = _Newvec + _Newcapacity;

  00070	69 45 10 9c 00
	00 00		 imul	 eax, DWORD PTR __Newcapacity$[ebp], 156
  00077	03 c1		 add	 eax, ecx
  00079	89 46 08	 mov	 DWORD PTR [esi+8], eax
  0007c	5e		 pop	 esi

; 2096 :     }

  0007d	5d		 pop	 ebp
  0007e	c2 0c 00	 ret	 12			; 0000000cH
$LN15@Change_arr:
; File C:\Program Files\Microsoft Visual Studio\2022\Community\VC\Tools\MSVC\14.34.31933\include\xmemory

; 164  :     _STL_VERIFY(_Back_shift >= _Min_back_shift && _Back_shift <= _Non_user_size, "invalid argument");

  00081	e8 00 00 00 00	 call	 __invalid_parameter_noinfo_noreturn
$LN22@Change_arr:
  00086	cc		 int	 3
?_Change_array@?$vector@USTerrainTexture@@V?$allocator@USTerrainTexture@@@std@@@std@@AAEXQAUSTerrainTexture@@II@Z ENDP ; std::vector<STerrainTexture,std::allocator<STerrainTexture> >::_Change_array
_TEXT	ENDS
; Function compile flags: /Ogtp
; File C:\Program Files\Microsoft Visual Studio\2022\Community\VC\Tools\MSVC\14.34.31933\include\vector
; File C:\Program Files\Microsoft Visual Studio\2022\Community\VC\Tools\MSVC\14.34.31933\include\xmemory
; File C:\Program Files\Microsoft Visual Studio\2022\Community\VC\Tools\MSVC\14.34.31933\include\vector
; File C:\Program Files\Microsoft Visual Studio\2022\Community\VC\Tools\MSVC\14.34.31933\include\xmemory
; File C:\Program Files\Microsoft Visual Studio\2022\Community\VC\Tools\MSVC\14.34.31933\include\vector
; File C:\Program Files\Microsoft Visual Studio\2022\Community\VC\Tools\MSVC\14.34.31933\include\xmemory
; File C:\Program Files\Microsoft Visual Studio\2022\Community\VC\Tools\MSVC\14.34.31933\include\vector
;	COMDAT ?_Reallocate_exactly@?$vector@USTerrainTexture@@V?$allocator@USTerrainTexture@@@std@@@std@@AAEXI@Z
_TEXT	SEGMENT
_this$ = -28						; size = 4
__Size$1$ = -24						; size = 4
$T2 = -20						; size = 4
__$EHRec$ = -16						; size = 16
__Newcapacity$ = 8					; size = 4
?_Reallocate_exactly@?$vector@USTerrainTexture@@V?$allocator@USTerrainTexture@@@std@@@std@@AAEXI@Z PROC ; std::vector<STerrainTexture,std::allocator<STerrainTexture> >::_Reallocate_exactly, COMDAT
; _this$ = ecx

; 1664 :     _CONSTEXPR20 void _Reallocate_exactly(const size_type _Newcapacity) {

  00000	55		 push	 ebp
  00001	8b ec		 mov	 ebp, esp
  00003	6a ff		 push	 -1
  00005	68 00 00 00 00	 push	 __ehhandler$?_Reallocate_exactly@?$vector@USTerrainTexture@@V?$allocator@USTerrainTexture@@@std@@@std@@AAEXI@Z
  0000a	64 a1 00 00 00
	00		 mov	 eax, DWORD PTR fs:0
  00010	50		 push	 eax
  00011	83 ec 10	 sub	 esp, 16			; 00000010H
  00014	53		 push	 ebx
  00015	56		 push	 esi
  00016	57		 push	 edi
  00017	a1 00 00 00 00	 mov	 eax, DWORD PTR ___security_cookie
  0001c	33 c5		 xor	 eax, ebp
  0001e	50		 push	 eax
  0001f	8d 45 f4	 lea	 eax, DWORD PTR __$EHRec$[ebp+4]
  00022	64 a3 00 00 00
	00		 mov	 DWORD PTR fs:0, eax
  00028	89 65 f0	 mov	 DWORD PTR __$EHRec$[ebp], esp
  0002b	8b f9		 mov	 edi, ecx
  0002d	89 7d e4	 mov	 DWORD PTR _this$[ebp], edi

; 1671 :         const auto _Size = static_cast<size_type>(_Mylast - _Myfirst);

  00030	8b 77 04	 mov	 esi, DWORD PTR [edi+4]
  00033	b8 d3 20 0d d2	 mov	 eax, -770891565		; d20d20d3H
  00038	2b 37		 sub	 esi, DWORD PTR [edi]
; File C:\Program Files\Microsoft Visual Studio\2022\Community\VC\Tools\MSVC\14.34.31933\include\xmemory

; 60   :         if (_Count > _Max_possible) {

  0003a	8b 5d 08	 mov	 ebx, DWORD PTR __Newcapacity$[ebp]
; File C:\Program Files\Microsoft Visual Studio\2022\Community\VC\Tools\MSVC\14.34.31933\include\vector

; 1671 :         const auto _Size = static_cast<size_type>(_Mylast - _Myfirst);

  0003d	f7 ee		 imul	 esi
  0003f	03 d6		 add	 edx, esi
  00041	c1 fa 07	 sar	 edx, 7
  00044	8b c2		 mov	 eax, edx
  00046	c1 e8 1f	 shr	 eax, 31			; 0000001fH
  00049	03 c2		 add	 eax, edx
  0004b	89 45 e8	 mov	 DWORD PTR __Size$1$[ebp], eax
; File C:\Program Files\Microsoft Visual Studio\2022\Community\VC\Tools\MSVC\14.34.31933\include\xmemory

; 60   :         if (_Count > _Max_possible) {

  0004e	81 fb 41 1a a4
	01		 cmp	 ebx, 27531841		; 01a41a41H
  00054	0f 87 80 00 00
	00		 ja	 $LN25@Reallocate

; 62   :         }
; 63   :     }
; 64   : 
; 65   :     return _Count * _Ty_size;

  0005a	69 c3 9c 00 00
	00		 imul	 eax, ebx, 156

; 228  :         if (_Bytes >= _Big_allocation_threshold) { // boost the alignment of big allocations to help autovectorization

  00060	3d 00 10 00 00	 cmp	 eax, 4096		; 00001000H
  00065	72 0d		 jb	 SHORT $LN15@Reallocate

; 229  :             return _Allocate_manually_vector_aligned<_Traits>(_Bytes);

  00067	50		 push	 eax
  00068	e8 00 00 00 00	 call	 ??$_Allocate_manually_vector_aligned@U_Default_allocate_traits@std@@@std@@YAPAXI@Z ; std::_Allocate_manually_vector_aligned<std::_Default_allocate_traits>
  0006d	83 c4 04	 add	 esp, 4
  00070	8b f0		 mov	 esi, eax
  00072	eb 16		 jmp	 SHORT $LN23@Reallocate
$LN15@Reallocate:

; 230  :         }
; 231  :     }
; 232  : #endif // defined(_M_IX86) || defined(_M_X64)
; 233  : 
; 234  :     if (_Bytes != 0) {

  00074	85 c0		 test	 eax, eax
  00076	74 10		 je	 SHORT $LN16@Reallocate

; 77   :         return ::operator new(_Bytes);

  00078	50		 push	 eax
  00079	e8 00 00 00 00	 call	 ??2@YAPAXI@Z		; operator new
  0007e	83 c4 04	 add	 esp, 4

; 235  :         return _Traits::_Allocate(_Bytes);

  00081	89 45 ec	 mov	 DWORD PTR $T2[ebp], eax
  00084	8b f0		 mov	 esi, eax
  00086	eb 05		 jmp	 SHORT $LN14@Reallocate
$LN16@Reallocate:

; 236  :     }
; 237  : 
; 238  :     return nullptr;

  00088	33 f6		 xor	 esi, esi
$LN23@Reallocate:
; File C:\Program Files\Microsoft Visual Studio\2022\Community\VC\Tools\MSVC\14.34.31933\include\vector

; 1675 :         _TRY_BEGIN

  0008a	89 75 ec	 mov	 DWORD PTR $T2[ebp], esi
$LN14@Reallocate:

; 1676 :         if constexpr (is_nothrow_move_constructible_v<_Ty> || !is_copy_constructible_v<_Ty>) {
; 1677 :             _Uninitialized_move(_Myfirst, _Mylast, _Newvec, _Al);
; 1678 :         } else {
; 1679 :             _Uninitialized_copy(_Myfirst, _Mylast, _Newvec, _Al);

  0008d	57		 push	 edi
  0008e	56		 push	 esi
  0008f	ff 77 04	 push	 DWORD PTR [edi+4]
  00092	c7 45 fc 00 00
	00 00		 mov	 DWORD PTR __$EHRec$[ebp+12], 0
  00099	ff 37		 push	 DWORD PTR [edi]
  0009b	e8 00 00 00 00	 call	 ??$_Uninitialized_copy@PAUSTerrainTexture@@PAU1@V?$allocator@USTerrainTexture@@@std@@@std@@YAPAUSTerrainTexture@@PAU1@00AAV?$allocator@USTerrainTexture@@@0@@Z ; std::_Uninitialized_copy<STerrainTexture *,STerrainTexture *,std::allocator<STerrainTexture> >
  000a0	83 c4 10	 add	 esp, 16			; 00000010H

; 1684 :         _CATCH_END
; 1685 : 
; 1686 :         _Change_array(_Newvec, _Size, _Newcapacity);

  000a3	8b cf		 mov	 ecx, edi
  000a5	53		 push	 ebx
  000a6	ff 75 e8	 push	 DWORD PTR __Size$1$[ebp]
  000a9	56		 push	 esi
  000aa	e8 00 00 00 00	 call	 ?_Change_array@?$vector@USTerrainTexture@@V?$allocator@USTerrainTexture@@@std@@@std@@AAEXQAUSTerrainTexture@@II@Z ; std::vector<STerrainTexture,std::allocator<STerrainTexture> >::_Change_array

; 1687 :     }

  000af	8b 4d f4	 mov	 ecx, DWORD PTR __$EHRec$[ebp+4]
  000b2	64 89 0d 00 00
	00 00		 mov	 DWORD PTR fs:0, ecx
  000b9	59		 pop	 ecx
  000ba	5f		 pop	 edi
  000bb	5e		 pop	 esi
  000bc	5b		 pop	 ebx
  000bd	8b e5		 mov	 esp, ebp
  000bf	5d		 pop	 ebp
  000c0	c2 04 00	 ret	 4
__catch$?_Reallocate_exactly@?$vector@USTerrainTexture@@V?$allocator@USTerrainTexture@@@std@@@std@@AAEXI@Z$0:

; 1680 :         }
; 1681 :         _CATCH_ALL
; 1682 :         _Al.deallocate(_Newvec, _Newcapacity);

  000c3	ff 75 08	 push	 DWORD PTR __Newcapacity$[ebp]
  000c6	8b 4d e4	 mov	 ecx, DWORD PTR _this$[ebp]
  000c9	ff 75 ec	 push	 DWORD PTR $T2[ebp]
  000cc	e8 00 00 00 00	 call	 ?deallocate@?$allocator@USTerrainTexture@@@std@@QAEXQAUSTerrainTexture@@I@Z ; std::allocator<STerrainTexture>::deallocate

; 1683 :         _RERAISE;

  000d1	6a 00		 push	 0
  000d3	6a 00		 push	 0
  000d5	e8 00 00 00 00	 call	 __CxxThrowException@8
$LN25@Reallocate:
; File C:\Program Files\Microsoft Visual Studio\2022\Community\VC\Tools\MSVC\14.34.31933\include\xmemory

; 61   :             _Throw_bad_array_new_length(); // multiply overflow

  000da	e8 00 00 00 00	 call	 ?_Throw_bad_array_new_length@std@@YAXXZ ; std::_Throw_bad_array_new_length
$LN22@Reallocate:
  000df	cc		 int	 3
  000e0	cc		 int	 3
  000e1	cc		 int	 3
  000e2	cc		 int	 3
  000e3	cc		 int	 3
  000e4	cc		 int	 3
_TEXT	ENDS
;	COMDAT text$x
text$x	SEGMENT
__ehhandler$?_Reallocate_exactly@?$vector@USTerrainTexture@@V?$allocator@USTerrainTexture@@@std@@@std@@AAEXI@Z:
  00000	90		 npad	 1
  00001	90		 npad	 1
  00002	8b 54 24 08	 mov	 edx, DWORD PTR [esp+8]
  00006	8d 42 0c	 lea	 eax, DWORD PTR [edx+12]
  00009	8b 4a e0	 mov	 ecx, DWORD PTR [edx-32]
  0000c	33 c8		 xor	 ecx, eax
  0000e	e8 00 00 00 00	 call	 @__security_check_cookie@4
  00013	b8 00 00 00 00	 mov	 eax, OFFSET __ehfuncinfo$?_Reallocate_exactly@?$vector@USTerrainTexture@@V?$allocator@USTerrainTexture@@@std@@@std@@AAEXI@Z
  00018	e9 00 00 00 00	 jmp	 ___CxxFrameHandler3
text$x	ENDS
?_Reallocate_exactly@?$vector@USTerrainTexture@@V?$allocator@USTerrainTexture@@@std@@@std@@AAEXI@Z ENDP ; std::vector<STerrainTexture,std::allocator<STerrainTexture> >::_Reallocate_exactly
; Function compile flags: /Ogtp
; File C:\Program Files\Microsoft Visual Studio\2022\Community\VC\Tools\MSVC\14.34.31933\include\vector
; File C:\Program Files\Microsoft Visual Studio\2022\Community\VC\Tools\MSVC\14.34.31933\include\xmemory
; File C:\Program Files\Microsoft Visual Studio\2022\Community\VC\Tools\MSVC\14.34.31933\include\vector
; File C:\Program Files\Microsoft Visual Studio\2022\Community\VC\Tools\MSVC\14.34.31933\include\xmemory
; File C:\Program Files\Microsoft Visual Studio\2022\Community\VC\Tools\MSVC\14.34.31933\include\vector
;	COMDAT ??1?$vector@USTerrainTexture@@V?$allocator@USTerrainTexture@@@std@@@std@@QAE@XZ
_TEXT	SEGMENT
??1?$vector@USTerrainTexture@@V?$allocator@USTerrainTexture@@@std@@@std@@QAE@XZ PROC ; std::vector<STerrainTexture,std::allocator<STerrainTexture> >::~vector<STerrainTexture,std::allocator<STerrainTexture> >, COMDAT
; _this$ = ecx

; 829  :     _CONSTEXPR20 ~vector() noexcept {

  00000	56		 push	 esi
  00001	8b f1		 mov	 esi, ecx

; 2107 :         if (_Myfirst) { // destroy and deallocate old array

  00003	8b 06		 mov	 eax, DWORD PTR [esi]
  00005	85 c0		 test	 eax, eax
  00007	74 67		 je	 SHORT $LN4@vector

; 2108 :             _Destroy_range(_Myfirst, _Mylast, _Al);

  00009	57		 push	 edi
  0000a	56		 push	 esi
  0000b	ff 76 04	 push	 DWORD PTR [esi+4]
  0000e	50		 push	 eax
  0000f	e8 00 00 00 00	 call	 ??$_Destroy_range@V?$allocator@USTerrainTexture@@@std@@@std@@YAXPAUSTerrainTexture@@QAU1@AAV?$allocator@USTerrainTexture@@@0@@Z ; std::_Destroy_range<std::allocator<STerrainTexture> >

; 2109 :             _ASAN_VECTOR_REMOVE;
; 2110 :             _Al.deallocate(_Myfirst, static_cast<size_type>(_Myend - _Myfirst));

  00014	8b 4e 08	 mov	 ecx, DWORD PTR [esi+8]
  00017	b8 d3 20 0d d2	 mov	 eax, -770891565		; d20d20d3H
  0001c	8b 3e		 mov	 edi, DWORD PTR [esi]
  0001e	83 c4 0c	 add	 esp, 12			; 0000000cH
  00021	2b cf		 sub	 ecx, edi
  00023	f7 e9		 imul	 ecx
  00025	03 d1		 add	 edx, ecx
  00027	c1 fa 07	 sar	 edx, 7
  0002a	8b c2		 mov	 eax, edx
  0002c	c1 e8 1f	 shr	 eax, 31			; 0000001fH
  0002f	03 c2		 add	 eax, edx
; File C:\Program Files\Microsoft Visual Studio\2022\Community\VC\Tools\MSVC\14.34.31933\include\xmemory

; 830  :         _Deallocate<_New_alignof<_Ty>>(_Ptr, sizeof(_Ty) * _Count);

  00031	69 c8 9c 00 00
	00		 imul	 ecx, eax, 156

; 251  :         if (_Bytes >= _Big_allocation_threshold) { // boost the alignment of big allocations to help autovectorization

  00037	81 f9 00 10 00
	00		 cmp	 ecx, 4096		; 00001000H
  0003d	72 12		 jb	 SHORT $LN20@vector

; 150  :     const uintptr_t _Ptr_container   = _Ptr_user[-1];

  0003f	8b 57 fc	 mov	 edx, DWORD PTR [edi-4]
  00042	83 c1 23	 add	 ecx, 35			; 00000023H

; 151  : 
; 152  :     // If the following asserts, it likely means that we are performing
; 153  :     // an aligned delete on memory coming from an unaligned allocation.
; 154  :     _STL_ASSERT(_Ptr_user[-2] == _Big_allocation_sentinel, "invalid argument");
; 155  : 
; 156  :     // Extra paranoia on aligned allocation/deallocation; ensure _Ptr_container is
; 157  :     // in range [_Min_back_shift, _Non_user_size]
; 158  : #ifdef _DEBUG
; 159  :     constexpr uintptr_t _Min_back_shift = 2 * sizeof(void*);
; 160  : #else // ^^^ _DEBUG ^^^ // vvv !_DEBUG vvv
; 161  :     constexpr uintptr_t _Min_back_shift = sizeof(void*);
; 162  : #endif // _DEBUG
; 163  :     const uintptr_t _Back_shift = reinterpret_cast<uintptr_t>(_Ptr) - _Ptr_container;

  00045	2b fa		 sub	 edi, edx

; 164  :     _STL_VERIFY(_Back_shift >= _Min_back_shift && _Back_shift <= _Non_user_size, "invalid argument");

  00047	8d 47 fc	 lea	 eax, DWORD PTR [edi-4]
  0004a	83 f8 1f	 cmp	 eax, 31			; 0000001fH
  0004d	77 23		 ja	 SHORT $LN17@vector

; 165  :     _Ptr = reinterpret_cast<void*>(_Ptr_container);

  0004f	8b fa		 mov	 edi, edx
$LN20@vector:

; 255  :         ::operator delete(_Ptr, _Bytes);

  00051	51		 push	 ecx
  00052	57		 push	 edi
  00053	e8 00 00 00 00	 call	 ??3@YAXPAXI@Z		; operator delete
  00058	83 c4 08	 add	 esp, 8
; File C:\Program Files\Microsoft Visual Studio\2022\Community\VC\Tools\MSVC\14.34.31933\include\vector

; 2112 :             _Myfirst = nullptr;

  0005b	c7 06 00 00 00
	00		 mov	 DWORD PTR [esi], 0

; 2113 :             _Mylast  = nullptr;

  00061	c7 46 04 00 00
	00 00		 mov	 DWORD PTR [esi+4], 0

; 2114 :             _Myend   = nullptr;

  00068	c7 46 08 00 00
	00 00		 mov	 DWORD PTR [esi+8], 0
  0006f	5f		 pop	 edi
$LN4@vector:
  00070	5e		 pop	 esi

; 835  :     }

  00071	c3		 ret	 0
$LN17@vector:
; File C:\Program Files\Microsoft Visual Studio\2022\Community\VC\Tools\MSVC\14.34.31933\include\xmemory

; 164  :     _STL_VERIFY(_Back_shift >= _Min_back_shift && _Back_shift <= _Non_user_size, "invalid argument");

  00072	e8 00 00 00 00	 call	 __invalid_parameter_noinfo_noreturn
$LN25@vector:
  00077	cc		 int	 3
??1?$vector@USTerrainTexture@@V?$allocator@USTerrainTexture@@@std@@@std@@QAE@XZ ENDP ; std::vector<STerrainTexture,std::allocator<STerrainTexture> >::~vector<STerrainTexture,std::allocator<STerrainTexture> >
_TEXT	ENDS
; Function compile flags: /Ogtp
; File C:\Program Files\Microsoft Visual Studio\2022\Community\VC\Tools\MSVC\14.34.31933\include\xmemory
;	COMDAT ?deallocate@?$allocator@USTerrainTexture@@@std@@QAEXQAUSTerrainTexture@@I@Z
_TEXT	SEGMENT
__Ptr$ = 8						; size = 4
__Count$ = 12						; size = 4
?deallocate@?$allocator@USTerrainTexture@@@std@@QAEXQAUSTerrainTexture@@I@Z PROC ; std::allocator<STerrainTexture>::deallocate, COMDAT
; _this$ = ecx

; 827  :     _CONSTEXPR20 void deallocate(_Ty* const _Ptr, const size_t _Count) {

  00000	55		 push	 ebp
  00001	8b ec		 mov	 ebp, esp

; 828  :         _STL_ASSERT(_Ptr != nullptr || _Count == 0, "null pointer cannot point to a block of non-zero size");
; 829  :         // no overflow check on the following multiply; we assume _Allocate did that check
; 830  :         _Deallocate<_New_alignof<_Ty>>(_Ptr, sizeof(_Ty) * _Count);

  00003	69 4d 0c 9c 00
	00 00		 imul	 ecx, DWORD PTR __Count$[ebp], 156
  0000a	8b 45 08	 mov	 eax, DWORD PTR __Ptr$[ebp]

; 251  :         if (_Bytes >= _Big_allocation_threshold) { // boost the alignment of big allocations to help autovectorization

  0000d	81 f9 00 10 00
	00		 cmp	 ecx, 4096		; 00001000H
  00013	72 12		 jb	 SHORT $LN15@deallocate

; 150  :     const uintptr_t _Ptr_container   = _Ptr_user[-1];

  00015	8b 50 fc	 mov	 edx, DWORD PTR [eax-4]
  00018	83 c1 23	 add	 ecx, 35			; 00000023H

; 151  : 
; 152  :     // If the following asserts, it likely means that we are performing
; 153  :     // an aligned delete on memory coming from an unaligned allocation.
; 154  :     _STL_ASSERT(_Ptr_user[-2] == _Big_allocation_sentinel, "invalid argument");
; 155  : 
; 156  :     // Extra paranoia on aligned allocation/deallocation; ensure _Ptr_container is
; 157  :     // in range [_Min_back_shift, _Non_user_size]
; 158  : #ifdef _DEBUG
; 159  :     constexpr uintptr_t _Min_back_shift = 2 * sizeof(void*);
; 160  : #else // ^^^ _DEBUG ^^^ // vvv !_DEBUG vvv
; 161  :     constexpr uintptr_t _Min_back_shift = sizeof(void*);
; 162  : #endif // _DEBUG
; 163  :     const uintptr_t _Back_shift = reinterpret_cast<uintptr_t>(_Ptr) - _Ptr_container;

  0001b	2b c2		 sub	 eax, edx

; 164  :     _STL_VERIFY(_Back_shift >= _Min_back_shift && _Back_shift <= _Non_user_size, "invalid argument");

  0001d	83 c0 fc	 add	 eax, -4			; fffffffcH
  00020	83 f8 1f	 cmp	 eax, 31			; 0000001fH
  00023	77 10		 ja	 SHORT $LN12@deallocate

; 165  :     _Ptr = reinterpret_cast<void*>(_Ptr_container);

  00025	8b c2		 mov	 eax, edx
$LN15@deallocate:

; 255  :         ::operator delete(_Ptr, _Bytes);

  00027	51		 push	 ecx
  00028	50		 push	 eax
  00029	e8 00 00 00 00	 call	 ??3@YAXPAXI@Z		; operator delete
  0002e	83 c4 08	 add	 esp, 8

; 831  :     }

  00031	5d		 pop	 ebp
  00032	c2 08 00	 ret	 8
$LN12@deallocate:

; 164  :     _STL_VERIFY(_Back_shift >= _Min_back_shift && _Back_shift <= _Non_user_size, "invalid argument");

  00035	e8 00 00 00 00	 call	 __invalid_parameter_noinfo_noreturn
$LN18@deallocate:
  0003a	cc		 int	 3
?deallocate@?$allocator@USTerrainTexture@@@std@@QAEXQAUSTerrainTexture@@I@Z ENDP ; std::allocator<STerrainTexture>::deallocate
_TEXT	ENDS
; Function compile flags: /Ogtp
; File C:\Users\Marian\Desktop\Aeldra\ProjectA-main\Binary\Client\PRTerrainLib\TextureSet.cpp
; File C:\Program Files\Microsoft Visual Studio\2022\Community\VC\Tools\MSVC\14.34.31933\include\vector
; File C:\Users\Marian\Desktop\Aeldra\ProjectA-main\Binary\Client\PRTerrainLib\TextureSet.cpp
; File C:\Program Files\Microsoft Visual Studio\2022\Community\VC\Tools\MSVC\14.34.31933\include\vector
; File C:\Program Files\Microsoft Visual Studio\2022\Community\VC\Tools\MSVC\14.34.31933\include\xmemory
; File C:\Program Files\Microsoft Visual Studio\2022\Community\VC\Tools\MSVC\14.34.31933\include\vector
; File C:\Users\Marian\Desktop\Aeldra\ProjectA-main\Binary\Client\PRTerrainLib\TextureSet.h
; File C:\Program Files\Microsoft Visual Studio\2022\Community\VC\Tools\MSVC\14.34.31933\include\xstring
; File C:\Program Files\Microsoft Visual Studio\2022\Community\VC\Tools\MSVC\14.34.31933\include\xmemory
; File C:\Program Files\Microsoft Visual Studio\2022\Community\VC\Tools\MSVC\14.34.31933\include\xstring
; File C:\Program Files\Microsoft Visual Studio\2022\Community\VC\Tools\MSVC\14.34.31933\include\xmemory
; File C:\Users\Marian\Desktop\Aeldra\ProjectA-main\Binary\Client\PRTerrainLib\TextureSet.cpp
; File C:\Program Files\Microsoft Visual Studio\2022\Community\VC\Tools\MSVC\14.34.31933\include\xmemory
; File C:\Users\Marian\Desktop\Aeldra\ProjectA-main\Binary\Client\PRTerrainLib\TextureSet.cpp
;	COMDAT ?AddEmptyTexture@CTextureSet@@IAEXXZ
_TEXT	SEGMENT
_eraser$ = -172						; size = 156
__$ArrayPad$ = -16					; size = 4
__$EHRec$ = -12						; size = 12
?AddEmptyTexture@CTextureSet@@IAEXXZ PROC		; CTextureSet::AddEmptyTexture, COMDAT
; _this$ = ecx

; 106  : {

  00000	55		 push	 ebp
  00001	8b ec		 mov	 ebp, esp
  00003	6a ff		 push	 -1
  00005	68 00 00 00 00	 push	 __ehhandler$?AddEmptyTexture@CTextureSet@@IAEXXZ
  0000a	64 a1 00 00 00
	00		 mov	 eax, DWORD PTR fs:0
  00010	50		 push	 eax
  00011	81 ec a0 00 00
	00		 sub	 esp, 160		; 000000a0H
  00017	a1 00 00 00 00	 mov	 eax, DWORD PTR ___security_cookie
  0001c	33 c5		 xor	 eax, ebp
  0001e	89 45 f0	 mov	 DWORD PTR __$ArrayPad$[ebp], eax
  00021	56		 push	 esi
  00022	50		 push	 eax
  00023	8d 45 f4	 lea	 eax, DWORD PTR __$EHRec$[ebp]
  00026	64 a3 00 00 00
	00		 mov	 DWORD PTR fs:0, eax
  0002c	8b f1		 mov	 esi, ecx

; 107  : 	TTerrainTexture eraser;

  0002e	8d 8d 54 ff ff
	ff		 lea	 ecx, DWORD PTR _eraser$[ebp]
  00034	e8 00 00 00 00	 call	 ??0STerrainTexture@@QAE@XZ ; STerrainTexture::STerrainTexture
; File C:\Program Files\Microsoft Visual Studio\2022\Community\VC\Tools\MSVC\14.34.31933\include\vector

; 844  :         if (_Mylast != _My_data._Myend) {

  00039	8b 46 08	 mov	 eax, DWORD PTR [esi+8]
  0003c	8d 8d 54 ff ff
	ff		 lea	 ecx, DWORD PTR _eraser$[ebp]
; File C:\Users\Marian\Desktop\Aeldra\ProjectA-main\Binary\Client\PRTerrainLib\TextureSet.cpp

; 107  : 	TTerrainTexture eraser;

  00042	c7 45 fc 00 00
	00 00		 mov	 DWORD PTR __$EHRec$[ebp+8], 0
; File C:\Program Files\Microsoft Visual Studio\2022\Community\VC\Tools\MSVC\14.34.31933\include\vector

; 844  :         if (_Mylast != _My_data._Myend) {

  00049	51		 push	 ecx
  0004a	3b 46 0c	 cmp	 eax, DWORD PTR [esi+12]
  0004d	74 10		 je	 SHORT $LN7@AddEmptyTe
; File C:\Program Files\Microsoft Visual Studio\2022\Community\VC\Tools\MSVC\14.34.31933\include\xmemory

; 680  :             ::new (_Voidify_iter(_Ptr)) _Objty(_STD forward<_Types>(_Args)...);

  0004f	8b c8		 mov	 ecx, eax
  00051	e8 00 00 00 00	 call	 ??0STerrainTexture@@QAE@ABU0@@Z
; File C:\Program Files\Microsoft Visual Studio\2022\Community\VC\Tools\MSVC\14.34.31933\include\vector

; 869  :         ++_Mylast;

  00056	81 46 08 9c 00
	00 00		 add	 DWORD PTR [esi+8], 156	; 0000009cH

; 845  :             return _Emplace_back_with_unused_capacity(_STD forward<_Valty>(_Val)...);

  0005d	eb 09		 jmp	 SHORT $LN6@AddEmptyTe
$LN7@AddEmptyTe:

; 846  :         }
; 847  : 
; 848  :         return *_Emplace_reallocate(_Mylast, _STD forward<_Valty>(_Val)...);

  0005f	50		 push	 eax
  00060	8d 4e 04	 lea	 ecx, DWORD PTR [esi+4]
  00063	e8 00 00 00 00	 call	 ??$_Emplace_reallocate@ABUSTerrainTexture@@@?$vector@USTerrainTexture@@V?$allocator@USTerrainTexture@@@std@@@std@@AAEPAUSTerrainTexture@@QAU2@ABU2@@Z ; std::vector<STerrainTexture,std::allocator<STerrainTexture> >::_Emplace_reallocate<STerrainTexture const &>
$LN6@AddEmptyTe:
; File C:\Users\Marian\Desktop\Aeldra\ProjectA-main\Binary\Client\PRTerrainLib\TextureSet.h

; 21   : 	}

  00068	8d 8d 70 ff ff
	ff		 lea	 ecx, DWORD PTR _eraser$[ebp+28]
  0006e	e8 00 00 00 00	 call	 ??1CGraphicImageInstance@@UAE@XZ ; CGraphicImageInstance::~CGraphicImageInstance
; File C:\Program Files\Microsoft Visual Studio\2022\Community\VC\Tools\MSVC\14.34.31933\include\xstring

; 2301 :         return _BUF_SIZE <= _Myres;

  00073	8b 8d 68 ff ff
	ff		 mov	 ecx, DWORD PTR _eraser$[ebp+20]
  00079	83 f9 10	 cmp	 ecx, 16			; 00000010H

; 5011 :         if (_My_data._Large_string_engaged()) {

  0007c	72 2b		 jb	 SHORT $LN28@AddEmptyTe
; File C:\Program Files\Microsoft Visual Studio\2022\Community\VC\Tools\MSVC\14.34.31933\include\xmemory

; 830  :         _Deallocate<_New_alignof<_Ty>>(_Ptr, sizeof(_Ty) * _Count);

  0007e	8b 95 54 ff ff
	ff		 mov	 edx, DWORD PTR _eraser$[ebp]
; File C:\Program Files\Microsoft Visual Studio\2022\Community\VC\Tools\MSVC\14.34.31933\include\xstring

; 5016 :             _Al.deallocate(_Ptr, _My_data._Myres + 1);

  00084	41		 inc	 ecx
; File C:\Program Files\Microsoft Visual Studio\2022\Community\VC\Tools\MSVC\14.34.31933\include\xmemory

; 830  :         _Deallocate<_New_alignof<_Ty>>(_Ptr, sizeof(_Ty) * _Count);

  00085	8b c2		 mov	 eax, edx

; 251  :         if (_Bytes >= _Big_allocation_threshold) { // boost the alignment of big allocations to help autovectorization

  00087	81 f9 00 10 00
	00		 cmp	 ecx, 4096		; 00001000H
  0008d	72 10		 jb	 SHORT $LN38@AddEmptyTe

; 150  :     const uintptr_t _Ptr_container   = _Ptr_user[-1];

  0008f	8b 50 fc	 mov	 edx, DWORD PTR [eax-4]
  00092	83 c1 23	 add	 ecx, 35			; 00000023H
  00095	2b c2		 sub	 eax, edx

; 164  :     _STL_VERIFY(_Back_shift >= _Min_back_shift && _Back_shift <= _Non_user_size, "invalid argument");

  00097	83 c0 fc	 add	 eax, -4			; fffffffcH
  0009a	83 f8 1f	 cmp	 eax, 31			; 0000001fH
  0009d	77 24		 ja	 SHORT $LN48@AddEmptyTe
$LN38@AddEmptyTe:

; 255  :         ::operator delete(_Ptr, _Bytes);

  0009f	51		 push	 ecx
  000a0	52		 push	 edx
  000a1	e8 00 00 00 00	 call	 ??3@YAXPAXI@Z		; operator delete
  000a6	83 c4 08	 add	 esp, 8
$LN28@AddEmptyTe:
; File C:\Users\Marian\Desktop\Aeldra\ProjectA-main\Binary\Client\PRTerrainLib\TextureSet.cpp

; 109  : }

  000a9	8b 4d f4	 mov	 ecx, DWORD PTR __$EHRec$[ebp]
  000ac	64 89 0d 00 00
	00 00		 mov	 DWORD PTR fs:0, ecx
  000b3	59		 pop	 ecx
  000b4	5e		 pop	 esi
  000b5	8b 4d f0	 mov	 ecx, DWORD PTR __$ArrayPad$[ebp]
  000b8	33 cd		 xor	 ecx, ebp
  000ba	e8 00 00 00 00	 call	 @__security_check_cookie@4
  000bf	8b e5		 mov	 esp, ebp
  000c1	5d		 pop	 ebp
  000c2	c3		 ret	 0
$LN48@AddEmptyTe:
; File C:\Program Files\Microsoft Visual Studio\2022\Community\VC\Tools\MSVC\14.34.31933\include\xmemory

; 164  :     _STL_VERIFY(_Back_shift >= _Min_back_shift && _Back_shift <= _Non_user_size, "invalid argument");

  000c3	e8 00 00 00 00	 call	 __invalid_parameter_noinfo_noreturn
$LN46@AddEmptyTe:
  000c8	cc		 int	 3
_TEXT	ENDS
;	COMDAT text$x
text$x	SEGMENT
__unwindfunclet$?AddEmptyTexture@CTextureSet@@IAEXXZ$0:
  00000	8d 8d 54 ff ff
	ff		 lea	 ecx, DWORD PTR _eraser$[ebp]
  00006	e9 00 00 00 00	 jmp	 ??1STerrainTexture@@QAE@XZ ; STerrainTexture::~STerrainTexture
  0000b	cc		 int	 3
  0000c	cc		 int	 3
  0000d	cc		 int	 3
  0000e	cc		 int	 3
  0000f	cc		 int	 3
__ehhandler$?AddEmptyTexture@CTextureSet@@IAEXXZ:
  00010	90		 npad	 1
  00011	90		 npad	 1
  00012	8b 54 24 08	 mov	 edx, DWORD PTR [esp+8]
  00016	8d 42 0c	 lea	 eax, DWORD PTR [edx+12]
  00019	8b 8a 58 ff ff
	ff		 mov	 ecx, DWORD PTR [edx-168]
  0001f	33 c8		 xor	 ecx, eax
  00021	e8 00 00 00 00	 call	 @__security_check_cookie@4
  00026	8b 4a fc	 mov	 ecx, DWORD PTR [edx-4]
  00029	33 c8		 xor	 ecx, eax
  0002b	e8 00 00 00 00	 call	 @__security_check_cookie@4
  00030	b8 00 00 00 00	 mov	 eax, OFFSET __ehfuncinfo$?AddEmptyTexture@CTextureSet@@IAEXXZ
  00035	e9 00 00 00 00	 jmp	 ___CxxFrameHandler3
text$x	ENDS
?AddEmptyTexture@CTextureSet@@IAEXXZ ENDP		; CTextureSet::AddEmptyTexture
; Function compile flags: /Ogtp
; File C:\Users\Marian\Desktop\Aeldra\ProjectA-main\Binary\Client\PRTerrainLib\TextureSet.cpp
; File C:\Program Files\Microsoft Visual Studio\2022\Community\VC\Tools\MSVC\14.34.31933\include\vector
; File C:\Program Files\Microsoft Visual Studio\2022\Community\VC\Tools\MSVC\14.34.31933\include\xstring
; File C:\Users\Marian\Desktop\Aeldra\ProjectA-main\Binary\Client\PRTerrainLib\TextureSet.cpp
; File C:\Program Files\Microsoft Visual Studio\2022\Community\VC\Tools\MSVC\14.34.31933\include\xstring
; File C:\Users\Marian\Desktop\Aeldra\ProjectA-main\Binary\Client\PRTerrainLib\TextureSet.cpp
; File C:\Program Files\Microsoft Visual Studio\2022\Community\VC\Tools\MSVC\14.34.31933\include\vector
; File C:\Users\Marian\Desktop\Aeldra\ProjectA-main\Binary\Client\PRTerrainLib\TextureSet.cpp
; File C:\Program Files\Microsoft Visual Studio\2022\Community\VC\Tools\MSVC\14.34.31933\include\vector
; File C:\Users\Marian\Desktop\Aeldra\ProjectA-main\Binary\Client\PRTerrainLib\TextureSet.cpp
; File C:\Program Files\Microsoft Visual Studio\2022\Community\VC\Tools\MSVC\14.34.31933\include\vector
; File C:\Users\Marian\Desktop\Aeldra\ProjectA-main\Binary\Client\PRTerrainLib\TextureSet.cpp
; File C:\Program Files\Microsoft Visual Studio\2022\Community\VC\Tools\MSVC\14.34.31933\include\vector
; File C:\Users\Marian\Desktop\Aeldra\ProjectA-main\Binary\Client\PRTerrainLib\TextureSet.cpp
; File C:\Program Files\Microsoft Visual Studio\2022\Community\VC\Tools\MSVC\14.34.31933\include\vector
; File C:\Users\Marian\Desktop\Aeldra\ProjectA-main\Binary\Client\PRTerrainLib\TextureSet.cpp
; File C:\Program Files\Microsoft Visual Studio\2022\Community\VC\Tools\MSVC\14.34.31933\include\vector
; File C:\Users\Marian\Desktop\Aeldra\ProjectA-main\Binary\Client\PRTerrainLib\TextureSet.cpp
; File C:\Program Files\Microsoft Visual Studio\2022\Community\VC\Tools\MSVC\14.34.31933\include\vector
; File C:\Users\Marian\Desktop\Aeldra\ProjectA-main\Binary\Client\PRTerrainLib\TextureSet.cpp
